
wdt_int.elf:     file format elf32-littlearm


Disassembly of section .text:

40008000 <_start>:
40008000:	ea00000d 	b	4000803c <reset>
40008004:	e59ff014 	ldr	pc, [pc, #20]	; 40008020 <_undefined_instruction>
40008008:	e59ff014 	ldr	pc, [pc, #20]	; 40008024 <_software_interrupt>
4000800c:	e59ff014 	ldr	pc, [pc, #20]	; 40008028 <_prefetch_abort>
40008010:	e59ff014 	ldr	pc, [pc, #20]	; 4000802c <_data_abort>
40008014:	e59ff014 	ldr	pc, [pc, #20]	; 40008030 <_not_used>
40008018:	e59ff014 	ldr	pc, [pc, #20]	; 40008034 <_irq>
4000801c:	e59ff014 	ldr	pc, [pc, #20]	; 40008038 <_fiq>

40008020 <_undefined_instruction>:
40008020:	40008020 	andmi	r8, r0, r0, lsr #32

40008024 <_software_interrupt>:
40008024:	40008024 	andmi	r8, r0, r4, lsr #32

40008028 <_prefetch_abort>:
40008028:	40008028 	andmi	r8, r0, r8, lsr #32

4000802c <_data_abort>:
4000802c:	4000802c 	andmi	r8, r0, ip, lsr #32

40008030 <_not_used>:
40008030:	40008030 	andmi	r8, r0, r0, lsr r0

40008034 <_irq>:
40008034:	40008110 	andmi	r8, r0, r0, lsl r1

40008038 <_fiq>:
40008038:	40008038 	andmi	r8, r0, r8, lsr r0

4000803c <reset>:
4000803c:	e59f00e0 	ldr	r0, [pc, #224]	; 40008124 <stacktop+0x4>
40008040:	ee0c0f10 	mcr	15, 0, r0, cr12, cr0, {0}
40008044:	e10f0000 	mrs	r0, CPSR
40008048:	e3c0001f 	bic	r0, r0, #31
4000804c:	e38000d3 	orr	r0, r0, #211	; 0xd3
40008050:	e129f000 	msr	CPSR_fc, r0
40008054:	e3e0020f 	mvn	r0, #-268435456	; 0xf0000000
40008058:	ee010f50 	mcr	15, 0, r0, cr1, cr0, {2}
4000805c:	e3a00000 	mov	r0, #0
40008060:	ee080f17 	mcr	15, 0, r0, cr8, cr7, {0}
40008064:	ee070f15 	mcr	15, 0, r0, cr7, cr5, {0}
40008068:	e3a03101 	mov	r3, #1073741824	; 0x40000000
4000806c:	eee83a10 	vmsr	fpexc, r3
40008070:	ee110f10 	mrc	15, 0, r0, cr1, cr0, {0}
40008074:	e3c00a02 	bic	r0, r0, #8192	; 0x2000
40008078:	e3c00007 	bic	r0, r0, #7
4000807c:	e3800a01 	orr	r0, r0, #4096	; 0x1000
40008080:	e3800002 	orr	r0, r0, #2
40008084:	e3800b02 	orr	r0, r0, #2048	; 0x800
40008088:	ee010f10 	mcr	15, 0, r0, cr1, cr0, {0}
4000808c:	e59f0094 	ldr	r0, [pc, #148]	; 40008128 <stacktop+0x8>
40008090:	e5901000 	ldr	r1, [r0]
40008094:	e3c1180f 	bic	r1, r1, #983040	; 0xf0000
40008098:	e3811801 	orr	r1, r1, #65536	; 0x10000
4000809c:	e5801000 	str	r1, [r0]
400080a0:	e59f0084 	ldr	r0, [pc, #132]	; 4000812c <stacktop+0xc>
400080a4:	e5901000 	ldr	r1, [r0]
400080a8:	e3c11c03 	bic	r1, r1, #768	; 0x300
400080ac:	e5801000 	str	r1, [r0]
400080b0:	e59f0078 	ldr	r0, [pc, #120]	; 40008130 <stacktop+0x10>
400080b4:	e5901000 	ldr	r1, [r0]
400080b8:	e3811010 	orr	r1, r1, #16
400080bc:	e5801000 	str	r1, [r0]

400080c0 <init_stack>:
400080c0:	e59f0058 	ldr	r0, [pc, #88]	; 40008120 <stacktop>
400080c4:	e1a0d000 	mov	sp, r0
400080c8:	e2400c02 	sub	r0, r0, #512	; 0x200
400080cc:	e329f0d2 	msr	CPSR_fc, #210	; 0xd2
400080d0:	e1a0d000 	mov	sp, r0
400080d4:	e2400c02 	sub	r0, r0, #512	; 0x200
400080d8:	e329f0d1 	msr	CPSR_fc, #209	; 0xd1
400080dc:	e1a0d000 	mov	sp, r0
400080e0:	e2400000 	sub	r0, r0, #0
400080e4:	e329f0d7 	msr	CPSR_fc, #215	; 0xd7
400080e8:	e1a0d000 	mov	sp, r0
400080ec:	e2400000 	sub	r0, r0, #0
400080f0:	e329f0db 	msr	CPSR_fc, #219	; 0xdb
400080f4:	e1a0d000 	mov	sp, r0
400080f8:	e2400000 	sub	r0, r0, #0
400080fc:	e329f010 	msr	CPSR_fc, #16
40008100:	e1a0d000 	mov	sp, r0
40008104:	ea00056d 	b	400096c0 <main>
40008108:	e1a00000 	nop			; (mov r0, r0)
4000810c:	e1a00000 	nop			; (mov r0, r0)

40008110 <irq_handler>:
40008110:	e24ee004 	sub	lr, lr, #4
40008114:	e92d5fff 	push	{r0, r1, r2, r3, r4, r5, r6, r7, r8, r9, sl, fp, ip, lr}
40008118:	eb000519 	bl	40009584 <do_irq>
4000811c:	e8fd9fff 	ldm	sp!, {r0, r1, r2, r3, r4, r5, r6, r7, r8, r9, sl, fp, ip, pc}^

40008120 <stacktop>:
40008120:	4000a064 	andmi	sl, r0, r4, rrx
40008124:	40008000 	andmi	r8, r0, r0
40008128:	114001e0 	smlalttne	r0, r0, r0, r1	; <UNPREDICTABLE>
4000812c:	114001e8 	smlalttne	r0, r0, r8, r1	; <UNPREDICTABLE>
40008130:	114001e4 	smlalttne	r0, r0, r4, r1	; <UNPREDICTABLE>
40008134:	e1a00000 	nop			; (mov r0, r0)
40008138:	e1a00000 	nop			; (mov r0, r0)
4000813c:	e1a00000 	nop			; (mov r0, r0)

40008140 <__toupper>:
40008140:	e52db004 	push	{fp}		; (str fp, [sp, #-4]!)
40008144:	e28db000 	add	fp, sp, #0
40008148:	e24dd004 	sub	sp, sp, #4
4000814c:	e1a03000 	mov	r3, r0
40008150:	e54b3004 	strb	r3, [fp, #-4]
40008154:	e55b3004 	ldrb	r3, [fp, #-4]
40008158:	e59f202c 	ldr	r2, [pc, #44]	; 4000818c <__toupper+0x4c>
4000815c:	e7d23003 	ldrb	r3, [r2, r3]
40008160:	e2033002 	and	r3, r3, #2
40008164:	e3530000 	cmp	r3, #0
40008168:	0a000002 	beq	40008178 <__toupper+0x38>
4000816c:	e55b3004 	ldrb	r3, [fp, #-4]
40008170:	e2433020 	sub	r3, r3, #32
40008174:	e54b3004 	strb	r3, [fp, #-4]
40008178:	e55b3004 	ldrb	r3, [fp, #-4]
4000817c:	e1a00003 	mov	r0, r3
40008180:	e28bd000 	add	sp, fp, #0
40008184:	e8bd0800 	pop	{fp}
40008188:	e12fff1e 	bx	lr
4000818c:	4000a064 	andmi	sl, r0, r4, rrx

40008190 <simple_strtoul>:
40008190:	e92d4800 	push	{fp, lr}
40008194:	e28db004 	add	fp, sp, #4
40008198:	e24dd014 	sub	sp, sp, #20
4000819c:	e50b0010 	str	r0, [fp, #-16]
400081a0:	e50b1014 	str	r1, [fp, #-20]
400081a4:	e50b2018 	str	r2, [fp, #-24]
400081a8:	e3a03000 	mov	r3, #0
400081ac:	e50b3008 	str	r3, [fp, #-8]
400081b0:	e51b3010 	ldr	r3, [fp, #-16]
400081b4:	e5d33000 	ldrb	r3, [r3]
400081b8:	e3530030 	cmp	r3, #48	; 0x30
400081bc:	1a000018 	bne	40008224 <simple_strtoul+0x94>
400081c0:	e51b3010 	ldr	r3, [fp, #-16]
400081c4:	e2833001 	add	r3, r3, #1
400081c8:	e50b3010 	str	r3, [fp, #-16]
400081cc:	e51b3010 	ldr	r3, [fp, #-16]
400081d0:	e5d33000 	ldrb	r3, [r3]
400081d4:	e3530078 	cmp	r3, #120	; 0x78
400081d8:	1a00000c 	bne	40008210 <simple_strtoul+0x80>
400081dc:	e51b3010 	ldr	r3, [fp, #-16]
400081e0:	e2833001 	add	r3, r3, #1
400081e4:	e5d33000 	ldrb	r3, [r3]
400081e8:	e59f2144 	ldr	r2, [pc, #324]	; 40008334 <simple_strtoul+0x1a4>
400081ec:	e7d23003 	ldrb	r3, [r2, r3]
400081f0:	e2033044 	and	r3, r3, #68	; 0x44
400081f4:	e3530000 	cmp	r3, #0
400081f8:	0a000004 	beq	40008210 <simple_strtoul+0x80>
400081fc:	e3a03010 	mov	r3, #16
40008200:	e50b3018 	str	r3, [fp, #-24]
40008204:	e51b3010 	ldr	r3, [fp, #-16]
40008208:	e2833001 	add	r3, r3, #1
4000820c:	e50b3010 	str	r3, [fp, #-16]
40008210:	e51b3018 	ldr	r3, [fp, #-24]
40008214:	e3530000 	cmp	r3, #0
40008218:	1a000001 	bne	40008224 <simple_strtoul+0x94>
4000821c:	e3a03008 	mov	r3, #8
40008220:	e50b3018 	str	r3, [fp, #-24]
40008224:	e51b3018 	ldr	r3, [fp, #-24]
40008228:	e3530000 	cmp	r3, #0
4000822c:	1a00000c 	bne	40008264 <simple_strtoul+0xd4>
40008230:	e3a0300a 	mov	r3, #10
40008234:	e50b3018 	str	r3, [fp, #-24]
40008238:	ea000009 	b	40008264 <simple_strtoul+0xd4>
4000823c:	e51b3008 	ldr	r3, [fp, #-8]
40008240:	e51b2018 	ldr	r2, [fp, #-24]
40008244:	e0020293 	mul	r2, r3, r2
40008248:	e51b300c 	ldr	r3, [fp, #-12]
4000824c:	e0823003 	add	r3, r2, r3
40008250:	e50b3008 	str	r3, [fp, #-8]
40008254:	e51b3010 	ldr	r3, [fp, #-16]
40008258:	e2833001 	add	r3, r3, #1
4000825c:	e50b3010 	str	r3, [fp, #-16]
40008260:	ea000000 	b	40008268 <simple_strtoul+0xd8>
40008264:	e1a00000 	nop			; (mov r0, r0)
40008268:	e51b3010 	ldr	r3, [fp, #-16]
4000826c:	e5d33000 	ldrb	r3, [r3]
40008270:	e59f20bc 	ldr	r2, [pc, #188]	; 40008334 <simple_strtoul+0x1a4>
40008274:	e7d23003 	ldrb	r3, [r2, r3]
40008278:	e2033044 	and	r3, r3, #68	; 0x44
4000827c:	e3530000 	cmp	r3, #0
40008280:	0a000020 	beq	40008308 <simple_strtoul+0x178>
40008284:	e51b3010 	ldr	r3, [fp, #-16]
40008288:	e5d33000 	ldrb	r3, [r3]
4000828c:	e59f20a0 	ldr	r2, [pc, #160]	; 40008334 <simple_strtoul+0x1a4>
40008290:	e7d23003 	ldrb	r3, [r2, r3]
40008294:	e2033004 	and	r3, r3, #4
40008298:	e3530000 	cmp	r3, #0
4000829c:	0a000003 	beq	400082b0 <simple_strtoul+0x120>
400082a0:	e51b3010 	ldr	r3, [fp, #-16]
400082a4:	e5d33000 	ldrb	r3, [r3]
400082a8:	e2433030 	sub	r3, r3, #48	; 0x30
400082ac:	ea000010 	b	400082f4 <simple_strtoul+0x164>
400082b0:	e51b3010 	ldr	r3, [fp, #-16]
400082b4:	e5d33000 	ldrb	r3, [r3]
400082b8:	e59f2074 	ldr	r2, [pc, #116]	; 40008334 <simple_strtoul+0x1a4>
400082bc:	e7d23003 	ldrb	r3, [r2, r3]
400082c0:	e2033002 	and	r3, r3, #2
400082c4:	e3530000 	cmp	r3, #0
400082c8:	0a000006 	beq	400082e8 <simple_strtoul+0x158>
400082cc:	e51b3010 	ldr	r3, [fp, #-16]
400082d0:	e5d33000 	ldrb	r3, [r3]
400082d4:	e1a00003 	mov	r0, r3
400082d8:	ebffff98 	bl	40008140 <__toupper>
400082dc:	e1a03000 	mov	r3, r0
400082e0:	e2433037 	sub	r3, r3, #55	; 0x37
400082e4:	ea000002 	b	400082f4 <simple_strtoul+0x164>
400082e8:	e51b3010 	ldr	r3, [fp, #-16]
400082ec:	e5d33000 	ldrb	r3, [r3]
400082f0:	e2433037 	sub	r3, r3, #55	; 0x37
400082f4:	e50b300c 	str	r3, [fp, #-12]
400082f8:	e51b200c 	ldr	r2, [fp, #-12]
400082fc:	e51b3018 	ldr	r3, [fp, #-24]
40008300:	e1520003 	cmp	r2, r3
40008304:	3affffcc 	bcc	4000823c <simple_strtoul+0xac>
40008308:	e51b3014 	ldr	r3, [fp, #-20]
4000830c:	e3530000 	cmp	r3, #0
40008310:	0a000002 	beq	40008320 <simple_strtoul+0x190>
40008314:	e51b3014 	ldr	r3, [fp, #-20]
40008318:	e51b2010 	ldr	r2, [fp, #-16]
4000831c:	e5832000 	str	r2, [r3]
40008320:	e51b3008 	ldr	r3, [fp, #-8]
40008324:	e1a00003 	mov	r0, r3
40008328:	e24bd004 	sub	sp, fp, #4
4000832c:	e8bd4800 	pop	{fp, lr}
40008330:	e12fff1e 	bx	lr
40008334:	4000a064 	andmi	sl, r0, r4, rrx

40008338 <simple_strtol>:
40008338:	e92d4800 	push	{fp, lr}
4000833c:	e28db004 	add	fp, sp, #4
40008340:	e24dd00c 	sub	sp, sp, #12
40008344:	e50b0008 	str	r0, [fp, #-8]
40008348:	e50b100c 	str	r1, [fp, #-12]
4000834c:	e50b2010 	str	r2, [fp, #-16]
40008350:	e51b3008 	ldr	r3, [fp, #-8]
40008354:	e5d33000 	ldrb	r3, [r3]
40008358:	e353002d 	cmp	r3, #45	; 0x2d
4000835c:	1a000008 	bne	40008384 <simple_strtol+0x4c>
40008360:	e51b3008 	ldr	r3, [fp, #-8]
40008364:	e2833001 	add	r3, r3, #1
40008368:	e1a00003 	mov	r0, r3
4000836c:	e51b100c 	ldr	r1, [fp, #-12]
40008370:	e51b2010 	ldr	r2, [fp, #-16]
40008374:	ebffff85 	bl	40008190 <simple_strtoul>
40008378:	e1a03000 	mov	r3, r0
4000837c:	e2633000 	rsb	r3, r3, #0
40008380:	ea000004 	b	40008398 <simple_strtol+0x60>
40008384:	e51b0008 	ldr	r0, [fp, #-8]
40008388:	e51b100c 	ldr	r1, [fp, #-12]
4000838c:	e51b2010 	ldr	r2, [fp, #-16]
40008390:	ebffff7e 	bl	40008190 <simple_strtoul>
40008394:	e1a03000 	mov	r3, r0
40008398:	e1a00003 	mov	r0, r3
4000839c:	e24bd004 	sub	sp, fp, #4
400083a0:	e8bd4800 	pop	{fp, lr}
400083a4:	e12fff1e 	bx	lr

400083a8 <skip_atoi>:
400083a8:	e52db004 	push	{fp}		; (str fp, [sp, #-4]!)
400083ac:	e28db000 	add	fp, sp, #0
400083b0:	e24dd008 	sub	sp, sp, #8
400083b4:	e50b0008 	str	r0, [fp, #-8]
400083b8:	e3a03000 	mov	r3, #0
400083bc:	e50b3004 	str	r3, [fp, #-4]
400083c0:	ea00000e 	b	40008400 <skip_atoi+0x58>
400083c4:	e51b2004 	ldr	r2, [fp, #-4]
400083c8:	e1a03002 	mov	r3, r2
400083cc:	e1a03103 	lsl	r3, r3, #2
400083d0:	e0833002 	add	r3, r3, r2
400083d4:	e1a03083 	lsl	r3, r3, #1
400083d8:	e1a01003 	mov	r1, r3
400083dc:	e51b3008 	ldr	r3, [fp, #-8]
400083e0:	e5933000 	ldr	r3, [r3]
400083e4:	e5d32000 	ldrb	r2, [r3]
400083e8:	e0812002 	add	r2, r1, r2
400083ec:	e2422030 	sub	r2, r2, #48	; 0x30
400083f0:	e50b2004 	str	r2, [fp, #-4]
400083f4:	e2832001 	add	r2, r3, #1
400083f8:	e51b3008 	ldr	r3, [fp, #-8]
400083fc:	e5832000 	str	r2, [r3]
40008400:	e51b3008 	ldr	r3, [fp, #-8]
40008404:	e5933000 	ldr	r3, [r3]
40008408:	e5d33000 	ldrb	r3, [r3]
4000840c:	e353002f 	cmp	r3, #47	; 0x2f
40008410:	9a000004 	bls	40008428 <skip_atoi+0x80>
40008414:	e51b3008 	ldr	r3, [fp, #-8]
40008418:	e5933000 	ldr	r3, [r3]
4000841c:	e5d33000 	ldrb	r3, [r3]
40008420:	e3530039 	cmp	r3, #57	; 0x39
40008424:	9affffe6 	bls	400083c4 <skip_atoi+0x1c>
40008428:	e51b3004 	ldr	r3, [fp, #-4]
4000842c:	e1a00003 	mov	r0, r3
40008430:	e28bd000 	add	sp, fp, #0
40008434:	e8bd0800 	pop	{fp}
40008438:	e12fff1e 	bx	lr

4000843c <number>:
4000843c:	e92d4800 	push	{fp, lr}
40008440:	e28db004 	add	fp, sp, #4
40008444:	e24dd068 	sub	sp, sp, #104	; 0x68
40008448:	e50b0060 	str	r0, [fp, #-96]	; 0x60
4000844c:	e50b1064 	str	r1, [fp, #-100]	; 0x64
40008450:	e50b2068 	str	r2, [fp, #-104]	; 0x68
40008454:	e50b306c 	str	r3, [fp, #-108]	; 0x6c
40008458:	e59f346c 	ldr	r3, [pc, #1132]	; 400088cc <number+0x490>
4000845c:	e50b300c 	str	r3, [fp, #-12]
40008460:	e59b3008 	ldr	r3, [fp, #8]
40008464:	e2033040 	and	r3, r3, #64	; 0x40
40008468:	e3530000 	cmp	r3, #0
4000846c:	0a000001 	beq	40008478 <number+0x3c>
40008470:	e59f3458 	ldr	r3, [pc, #1112]	; 400088d0 <number+0x494>
40008474:	e50b300c 	str	r3, [fp, #-12]
40008478:	e59b3008 	ldr	r3, [fp, #8]
4000847c:	e2033010 	and	r3, r3, #16
40008480:	e3530000 	cmp	r3, #0
40008484:	0a000002 	beq	40008494 <number+0x58>
40008488:	e59b3008 	ldr	r3, [fp, #8]
4000848c:	e3c33001 	bic	r3, r3, #1
40008490:	e58b3008 	str	r3, [fp, #8]
40008494:	e51b3068 	ldr	r3, [fp, #-104]	; 0x68
40008498:	e3530001 	cmp	r3, #1
4000849c:	9a000002 	bls	400084ac <number+0x70>
400084a0:	e51b3068 	ldr	r3, [fp, #-104]	; 0x68
400084a4:	e3530024 	cmp	r3, #36	; 0x24
400084a8:	9a000001 	bls	400084b4 <number+0x78>
400084ac:	e3a03000 	mov	r3, #0
400084b0:	ea000101 	b	400088bc <number+0x480>
400084b4:	e59b3008 	ldr	r3, [fp, #8]
400084b8:	e2033001 	and	r3, r3, #1
400084bc:	e20330ff 	and	r3, r3, #255	; 0xff
400084c0:	e3530000 	cmp	r3, #0
400084c4:	0a000001 	beq	400084d0 <number+0x94>
400084c8:	e3a03030 	mov	r3, #48	; 0x30
400084cc:	ea000000 	b	400084d4 <number+0x98>
400084d0:	e3a03020 	mov	r3, #32
400084d4:	e54b3011 	strb	r3, [fp, #-17]
400084d8:	e3a03000 	mov	r3, #0
400084dc:	e54b3005 	strb	r3, [fp, #-5]
400084e0:	e59b3008 	ldr	r3, [fp, #8]
400084e4:	e2033002 	and	r3, r3, #2
400084e8:	e3530000 	cmp	r3, #0
400084ec:	0a00001e 	beq	4000856c <number+0x130>
400084f0:	e51b3064 	ldr	r3, [fp, #-100]	; 0x64
400084f4:	e3530000 	cmp	r3, #0
400084f8:	aa000008 	bge	40008520 <number+0xe4>
400084fc:	e3a0302d 	mov	r3, #45	; 0x2d
40008500:	e54b3005 	strb	r3, [fp, #-5]
40008504:	e51b3064 	ldr	r3, [fp, #-100]	; 0x64
40008508:	e2633000 	rsb	r3, r3, #0
4000850c:	e50b3064 	str	r3, [fp, #-100]	; 0x64
40008510:	e51b306c 	ldr	r3, [fp, #-108]	; 0x6c
40008514:	e2433001 	sub	r3, r3, #1
40008518:	e50b306c 	str	r3, [fp, #-108]	; 0x6c
4000851c:	ea000012 	b	4000856c <number+0x130>
40008520:	e59b3008 	ldr	r3, [fp, #8]
40008524:	e2033004 	and	r3, r3, #4
40008528:	e3530000 	cmp	r3, #0
4000852c:	0a000005 	beq	40008548 <number+0x10c>
40008530:	e3a0302b 	mov	r3, #43	; 0x2b
40008534:	e54b3005 	strb	r3, [fp, #-5]
40008538:	e51b306c 	ldr	r3, [fp, #-108]	; 0x6c
4000853c:	e2433001 	sub	r3, r3, #1
40008540:	e50b306c 	str	r3, [fp, #-108]	; 0x6c
40008544:	ea000008 	b	4000856c <number+0x130>
40008548:	e59b3008 	ldr	r3, [fp, #8]
4000854c:	e2033008 	and	r3, r3, #8
40008550:	e3530000 	cmp	r3, #0
40008554:	0a000004 	beq	4000856c <number+0x130>
40008558:	e3a03020 	mov	r3, #32
4000855c:	e54b3005 	strb	r3, [fp, #-5]
40008560:	e51b306c 	ldr	r3, [fp, #-108]	; 0x6c
40008564:	e2433001 	sub	r3, r3, #1
40008568:	e50b306c 	str	r3, [fp, #-108]	; 0x6c
4000856c:	e59b3008 	ldr	r3, [fp, #8]
40008570:	e2033020 	and	r3, r3, #32
40008574:	e3530000 	cmp	r3, #0
40008578:	0a00000c 	beq	400085b0 <number+0x174>
4000857c:	e51b3068 	ldr	r3, [fp, #-104]	; 0x68
40008580:	e3530010 	cmp	r3, #16
40008584:	1a000003 	bne	40008598 <number+0x15c>
40008588:	e51b306c 	ldr	r3, [fp, #-108]	; 0x6c
4000858c:	e2433002 	sub	r3, r3, #2
40008590:	e50b306c 	str	r3, [fp, #-108]	; 0x6c
40008594:	ea000005 	b	400085b0 <number+0x174>
40008598:	e51b3068 	ldr	r3, [fp, #-104]	; 0x68
4000859c:	e3530008 	cmp	r3, #8
400085a0:	1a000002 	bne	400085b0 <number+0x174>
400085a4:	e51b306c 	ldr	r3, [fp, #-108]	; 0x6c
400085a8:	e2433001 	sub	r3, r3, #1
400085ac:	e50b306c 	str	r3, [fp, #-108]	; 0x6c
400085b0:	e3a03000 	mov	r3, #0
400085b4:	e50b3010 	str	r3, [fp, #-16]
400085b8:	e51b3064 	ldr	r3, [fp, #-100]	; 0x64
400085bc:	e3530000 	cmp	r3, #0
400085c0:	1a000027 	bne	40008664 <number+0x228>
400085c4:	e3e03057 	mvn	r3, #87	; 0x57
400085c8:	e51b2010 	ldr	r2, [fp, #-16]
400085cc:	e24b0004 	sub	r0, fp, #4
400085d0:	e0802002 	add	r2, r0, r2
400085d4:	e0823003 	add	r3, r2, r3
400085d8:	e3a02030 	mov	r2, #48	; 0x30
400085dc:	e5c32000 	strb	r2, [r3]
400085e0:	e51b3010 	ldr	r3, [fp, #-16]
400085e4:	e2833001 	add	r3, r3, #1
400085e8:	e50b3010 	str	r3, [fp, #-16]
400085ec:	ea00001f 	b	40008670 <number+0x234>
400085f0:	e51b2010 	ldr	r2, [fp, #-16]
400085f4:	e59b3004 	ldr	r3, [fp, #4]
400085f8:	e1520003 	cmp	r2, r3
400085fc:	da000018 	ble	40008664 <number+0x228>
40008600:	e51b3064 	ldr	r3, [fp, #-100]	; 0x64
40008604:	e1a00003 	mov	r0, r3
40008608:	e51b1068 	ldr	r1, [fp, #-104]	; 0x68
4000860c:	eb0003b0 	bl	400094d4 <__umodsi3>
40008610:	e1a03000 	mov	r3, r0
40008614:	e50b3018 	str	r3, [fp, #-24]
40008618:	e51b3064 	ldr	r3, [fp, #-100]	; 0x64
4000861c:	e1a00003 	mov	r0, r3
40008620:	e51b1068 	ldr	r1, [fp, #-104]	; 0x68
40008624:	eb000385 	bl	40009440 <__udivsi3>
40008628:	e1a03000 	mov	r3, r0
4000862c:	e50b3064 	str	r3, [fp, #-100]	; 0x64
40008630:	e51b3018 	ldr	r3, [fp, #-24]
40008634:	e51b200c 	ldr	r2, [fp, #-12]
40008638:	e0823003 	add	r3, r2, r3
4000863c:	e5d32000 	ldrb	r2, [r3]
40008640:	e3e03057 	mvn	r3, #87	; 0x57
40008644:	e51b1010 	ldr	r1, [fp, #-16]
40008648:	e24b0004 	sub	r0, fp, #4
4000864c:	e0801001 	add	r1, r0, r1
40008650:	e0813003 	add	r3, r1, r3
40008654:	e5c32000 	strb	r2, [r3]
40008658:	e51b3010 	ldr	r3, [fp, #-16]
4000865c:	e2833001 	add	r3, r3, #1
40008660:	e50b3010 	str	r3, [fp, #-16]
40008664:	e51b3064 	ldr	r3, [fp, #-100]	; 0x64
40008668:	e3530000 	cmp	r3, #0
4000866c:	1affffdf 	bne	400085f0 <number+0x1b4>
40008670:	e51b3010 	ldr	r3, [fp, #-16]
40008674:	e58b3004 	str	r3, [fp, #4]
40008678:	e51b206c 	ldr	r2, [fp, #-108]	; 0x6c
4000867c:	e59b3004 	ldr	r3, [fp, #4]
40008680:	e0633002 	rsb	r3, r3, r2
40008684:	e50b306c 	str	r3, [fp, #-108]	; 0x6c
40008688:	e59b3008 	ldr	r3, [fp, #8]
4000868c:	e2033011 	and	r3, r3, #17
40008690:	e3530000 	cmp	r3, #0
40008694:	1a000010 	bne	400086dc <number+0x2a0>
40008698:	ea000005 	b	400086b4 <number+0x278>
4000869c:	e51b3060 	ldr	r3, [fp, #-96]	; 0x60
400086a0:	e3a02020 	mov	r2, #32
400086a4:	e5c32000 	strb	r2, [r3]
400086a8:	e51b3060 	ldr	r3, [fp, #-96]	; 0x60
400086ac:	e2833001 	add	r3, r3, #1
400086b0:	e50b3060 	str	r3, [fp, #-96]	; 0x60
400086b4:	e51b306c 	ldr	r3, [fp, #-108]	; 0x6c
400086b8:	e3530000 	cmp	r3, #0
400086bc:	d3a03000 	movle	r3, #0
400086c0:	c3a03001 	movgt	r3, #1
400086c4:	e20330ff 	and	r3, r3, #255	; 0xff
400086c8:	e51b206c 	ldr	r2, [fp, #-108]	; 0x6c
400086cc:	e2422001 	sub	r2, r2, #1
400086d0:	e50b206c 	str	r2, [fp, #-108]	; 0x6c
400086d4:	e3530000 	cmp	r3, #0
400086d8:	1affffef 	bne	4000869c <number+0x260>
400086dc:	e55b3005 	ldrb	r3, [fp, #-5]
400086e0:	e3530000 	cmp	r3, #0
400086e4:	0a000005 	beq	40008700 <number+0x2c4>
400086e8:	e51b3060 	ldr	r3, [fp, #-96]	; 0x60
400086ec:	e55b2005 	ldrb	r2, [fp, #-5]
400086f0:	e5c32000 	strb	r2, [r3]
400086f4:	e51b3060 	ldr	r3, [fp, #-96]	; 0x60
400086f8:	e2833001 	add	r3, r3, #1
400086fc:	e50b3060 	str	r3, [fp, #-96]	; 0x60
40008700:	e59b3008 	ldr	r3, [fp, #8]
40008704:	e2033020 	and	r3, r3, #32
40008708:	e3530000 	cmp	r3, #0
4000870c:	0a000019 	beq	40008778 <number+0x33c>
40008710:	e51b3068 	ldr	r3, [fp, #-104]	; 0x68
40008714:	e3530008 	cmp	r3, #8
40008718:	1a000006 	bne	40008738 <number+0x2fc>
4000871c:	e51b3060 	ldr	r3, [fp, #-96]	; 0x60
40008720:	e3a02030 	mov	r2, #48	; 0x30
40008724:	e5c32000 	strb	r2, [r3]
40008728:	e51b3060 	ldr	r3, [fp, #-96]	; 0x60
4000872c:	e2833001 	add	r3, r3, #1
40008730:	e50b3060 	str	r3, [fp, #-96]	; 0x60
40008734:	ea00000f 	b	40008778 <number+0x33c>
40008738:	e51b3068 	ldr	r3, [fp, #-104]	; 0x68
4000873c:	e3530010 	cmp	r3, #16
40008740:	1a00000c 	bne	40008778 <number+0x33c>
40008744:	e51b3060 	ldr	r3, [fp, #-96]	; 0x60
40008748:	e3a02030 	mov	r2, #48	; 0x30
4000874c:	e5c32000 	strb	r2, [r3]
40008750:	e51b3060 	ldr	r3, [fp, #-96]	; 0x60
40008754:	e2833001 	add	r3, r3, #1
40008758:	e50b3060 	str	r3, [fp, #-96]	; 0x60
4000875c:	e51b300c 	ldr	r3, [fp, #-12]
40008760:	e5d32021 	ldrb	r2, [r3, #33]	; 0x21
40008764:	e51b3060 	ldr	r3, [fp, #-96]	; 0x60
40008768:	e5c32000 	strb	r2, [r3]
4000876c:	e51b3060 	ldr	r3, [fp, #-96]	; 0x60
40008770:	e2833001 	add	r3, r3, #1
40008774:	e50b3060 	str	r3, [fp, #-96]	; 0x60
40008778:	e59b3008 	ldr	r3, [fp, #8]
4000877c:	e2033010 	and	r3, r3, #16
40008780:	e3530000 	cmp	r3, #0
40008784:	1a000018 	bne	400087ec <number+0x3b0>
40008788:	ea000005 	b	400087a4 <number+0x368>
4000878c:	e51b3060 	ldr	r3, [fp, #-96]	; 0x60
40008790:	e55b2011 	ldrb	r2, [fp, #-17]
40008794:	e5c32000 	strb	r2, [r3]
40008798:	e51b3060 	ldr	r3, [fp, #-96]	; 0x60
4000879c:	e2833001 	add	r3, r3, #1
400087a0:	e50b3060 	str	r3, [fp, #-96]	; 0x60
400087a4:	e51b306c 	ldr	r3, [fp, #-108]	; 0x6c
400087a8:	e3530000 	cmp	r3, #0
400087ac:	d3a03000 	movle	r3, #0
400087b0:	c3a03001 	movgt	r3, #1
400087b4:	e20330ff 	and	r3, r3, #255	; 0xff
400087b8:	e51b206c 	ldr	r2, [fp, #-108]	; 0x6c
400087bc:	e2422001 	sub	r2, r2, #1
400087c0:	e50b206c 	str	r2, [fp, #-108]	; 0x6c
400087c4:	e3530000 	cmp	r3, #0
400087c8:	1affffef 	bne	4000878c <number+0x350>
400087cc:	ea000006 	b	400087ec <number+0x3b0>
400087d0:	e51b3060 	ldr	r3, [fp, #-96]	; 0x60
400087d4:	e3a02030 	mov	r2, #48	; 0x30
400087d8:	e5c32000 	strb	r2, [r3]
400087dc:	e51b3060 	ldr	r3, [fp, #-96]	; 0x60
400087e0:	e2833001 	add	r3, r3, #1
400087e4:	e50b3060 	str	r3, [fp, #-96]	; 0x60
400087e8:	ea000000 	b	400087f0 <number+0x3b4>
400087ec:	e1a00000 	nop			; (mov r0, r0)
400087f0:	e59b2004 	ldr	r2, [fp, #4]
400087f4:	e51b3010 	ldr	r3, [fp, #-16]
400087f8:	e1520003 	cmp	r2, r3
400087fc:	d3a03000 	movle	r3, #0
40008800:	c3a03001 	movgt	r3, #1
40008804:	e20330ff 	and	r3, r3, #255	; 0xff
40008808:	e59b2004 	ldr	r2, [fp, #4]
4000880c:	e2422001 	sub	r2, r2, #1
40008810:	e58b2004 	str	r2, [fp, #4]
40008814:	e3530000 	cmp	r3, #0
40008818:	1affffec 	bne	400087d0 <number+0x394>
4000881c:	ea00000a 	b	4000884c <number+0x410>
40008820:	e3e03057 	mvn	r3, #87	; 0x57
40008824:	e51b2010 	ldr	r2, [fp, #-16]
40008828:	e24b1004 	sub	r1, fp, #4
4000882c:	e0812002 	add	r2, r1, r2
40008830:	e0823003 	add	r3, r2, r3
40008834:	e5d32000 	ldrb	r2, [r3]
40008838:	e51b3060 	ldr	r3, [fp, #-96]	; 0x60
4000883c:	e5c32000 	strb	r2, [r3]
40008840:	e51b3060 	ldr	r3, [fp, #-96]	; 0x60
40008844:	e2833001 	add	r3, r3, #1
40008848:	e50b3060 	str	r3, [fp, #-96]	; 0x60
4000884c:	e51b3010 	ldr	r3, [fp, #-16]
40008850:	e3530000 	cmp	r3, #0
40008854:	d3a03000 	movle	r3, #0
40008858:	c3a03001 	movgt	r3, #1
4000885c:	e20330ff 	and	r3, r3, #255	; 0xff
40008860:	e51b2010 	ldr	r2, [fp, #-16]
40008864:	e2422001 	sub	r2, r2, #1
40008868:	e50b2010 	str	r2, [fp, #-16]
4000886c:	e3530000 	cmp	r3, #0
40008870:	1affffea 	bne	40008820 <number+0x3e4>
40008874:	ea000005 	b	40008890 <number+0x454>
40008878:	e51b3060 	ldr	r3, [fp, #-96]	; 0x60
4000887c:	e3a02020 	mov	r2, #32
40008880:	e5c32000 	strb	r2, [r3]
40008884:	e51b3060 	ldr	r3, [fp, #-96]	; 0x60
40008888:	e2833001 	add	r3, r3, #1
4000888c:	e50b3060 	str	r3, [fp, #-96]	; 0x60
40008890:	e51b306c 	ldr	r3, [fp, #-108]	; 0x6c
40008894:	e3530000 	cmp	r3, #0
40008898:	d3a03000 	movle	r3, #0
4000889c:	c3a03001 	movgt	r3, #1
400088a0:	e20330ff 	and	r3, r3, #255	; 0xff
400088a4:	e51b206c 	ldr	r2, [fp, #-108]	; 0x6c
400088a8:	e2422001 	sub	r2, r2, #1
400088ac:	e50b206c 	str	r2, [fp, #-108]	; 0x6c
400088b0:	e3530000 	cmp	r3, #0
400088b4:	1affffef 	bne	40008878 <number+0x43c>
400088b8:	e51b3060 	ldr	r3, [fp, #-96]	; 0x60
400088bc:	e1a00003 	mov	r0, r3
400088c0:	e24bd004 	sub	sp, fp, #4
400088c4:	e8bd4800 	pop	{fp, lr}
400088c8:	e12fff1e 	bx	lr
400088cc:	4000979c 	mulmi	r0, ip, r7
400088d0:	400097c4 	andmi	r9, r0, r4, asr #15

400088d4 <strnlen>:
400088d4:	e52db004 	push	{fp}		; (str fp, [sp, #-4]!)
400088d8:	e28db000 	add	fp, sp, #0
400088dc:	e24dd00c 	sub	sp, sp, #12
400088e0:	e50b0008 	str	r0, [fp, #-8]
400088e4:	e50b100c 	str	r1, [fp, #-12]
400088e8:	e51b3008 	ldr	r3, [fp, #-8]
400088ec:	e50b3004 	str	r3, [fp, #-4]
400088f0:	ea000002 	b	40008900 <strnlen+0x2c>
400088f4:	e51b3004 	ldr	r3, [fp, #-4]
400088f8:	e2833001 	add	r3, r3, #1
400088fc:	e50b3004 	str	r3, [fp, #-4]
40008900:	e51b300c 	ldr	r3, [fp, #-12]
40008904:	e3530000 	cmp	r3, #0
40008908:	03a03000 	moveq	r3, #0
4000890c:	13a03001 	movne	r3, #1
40008910:	e20330ff 	and	r3, r3, #255	; 0xff
40008914:	e51b200c 	ldr	r2, [fp, #-12]
40008918:	e2422001 	sub	r2, r2, #1
4000891c:	e50b200c 	str	r2, [fp, #-12]
40008920:	e3530000 	cmp	r3, #0
40008924:	0a000003 	beq	40008938 <strnlen+0x64>
40008928:	e51b3004 	ldr	r3, [fp, #-4]
4000892c:	e5d33000 	ldrb	r3, [r3]
40008930:	e3530000 	cmp	r3, #0
40008934:	1affffee 	bne	400088f4 <strnlen+0x20>
40008938:	e51b2004 	ldr	r2, [fp, #-4]
4000893c:	e51b3008 	ldr	r3, [fp, #-8]
40008940:	e0633002 	rsb	r3, r3, r2
40008944:	e1a00003 	mov	r0, r3
40008948:	e28bd000 	add	sp, fp, #0
4000894c:	e8bd0800 	pop	{fp}
40008950:	e12fff1e 	bx	lr

40008954 <vsprintf>:
40008954:	e92d4800 	push	{fp, lr}
40008958:	e28db004 	add	fp, sp, #4
4000895c:	e24dd044 	sub	sp, sp, #68	; 0x44
40008960:	e50b0038 	str	r0, [fp, #-56]	; 0x38
40008964:	e50b103c 	str	r1, [fp, #-60]	; 0x3c
40008968:	e50b2040 	str	r2, [fp, #-64]	; 0x40
4000896c:	e51b3038 	ldr	r3, [fp, #-56]	; 0x38
40008970:	e50b3014 	str	r3, [fp, #-20]
40008974:	ea000235 	b	40009250 <vsprintf+0x8fc>
40008978:	e51b303c 	ldr	r3, [fp, #-60]	; 0x3c
4000897c:	e5d33000 	ldrb	r3, [r3]
40008980:	e3530025 	cmp	r3, #37	; 0x25
40008984:	0a000007 	beq	400089a8 <vsprintf+0x54>
40008988:	e51b303c 	ldr	r3, [fp, #-60]	; 0x3c
4000898c:	e5d32000 	ldrb	r2, [r3]
40008990:	e51b3014 	ldr	r3, [fp, #-20]
40008994:	e5c32000 	strb	r2, [r3]
40008998:	e51b3014 	ldr	r3, [fp, #-20]
4000899c:	e2833001 	add	r3, r3, #1
400089a0:	e50b3014 	str	r3, [fp, #-20]
400089a4:	ea000226 	b	40009244 <vsprintf+0x8f0>
400089a8:	e3a03000 	mov	r3, #0
400089ac:	e50b301c 	str	r3, [fp, #-28]
400089b0:	e51b303c 	ldr	r3, [fp, #-60]	; 0x3c
400089b4:	e2833001 	add	r3, r3, #1
400089b8:	e50b303c 	str	r3, [fp, #-60]	; 0x3c
400089bc:	e51b303c 	ldr	r3, [fp, #-60]	; 0x3c
400089c0:	e5d33000 	ldrb	r3, [r3]
400089c4:	e2433020 	sub	r3, r3, #32
400089c8:	e3530010 	cmp	r3, #16
400089cc:	979ff103 	ldrls	pc, [pc, r3, lsl #2]
400089d0:	ea000024 	b	40008a68 <vsprintf+0x114>
400089d4:	40008a38 	andmi	r8, r0, r8, lsr sl
400089d8:	40008a68 	andmi	r8, r0, r8, ror #20
400089dc:	40008a68 	andmi	r8, r0, r8, ror #20
400089e0:	40008a48 	andmi	r8, r0, r8, asr #20
400089e4:	40008a68 	andmi	r8, r0, r8, ror #20
400089e8:	40008a68 	andmi	r8, r0, r8, ror #20
400089ec:	40008a68 	andmi	r8, r0, r8, ror #20
400089f0:	40008a68 	andmi	r8, r0, r8, ror #20
400089f4:	40008a68 	andmi	r8, r0, r8, ror #20
400089f8:	40008a68 	andmi	r8, r0, r8, ror #20
400089fc:	40008a68 	andmi	r8, r0, r8, ror #20
40008a00:	40008a28 	andmi	r8, r0, r8, lsr #20
40008a04:	40008a68 	andmi	r8, r0, r8, ror #20
40008a08:	40008a18 	andmi	r8, r0, r8, lsl sl
40008a0c:	40008a68 	andmi	r8, r0, r8, ror #20
40008a10:	40008a68 	andmi	r8, r0, r8, ror #20
40008a14:	40008a58 	andmi	r8, r0, r8, asr sl
40008a18:	e51b301c 	ldr	r3, [fp, #-28]
40008a1c:	e3833010 	orr	r3, r3, #16
40008a20:	e50b301c 	str	r3, [fp, #-28]
40008a24:	eaffffe1 	b	400089b0 <vsprintf+0x5c>
40008a28:	e51b301c 	ldr	r3, [fp, #-28]
40008a2c:	e3833004 	orr	r3, r3, #4
40008a30:	e50b301c 	str	r3, [fp, #-28]
40008a34:	eaffffdd 	b	400089b0 <vsprintf+0x5c>
40008a38:	e51b301c 	ldr	r3, [fp, #-28]
40008a3c:	e3833008 	orr	r3, r3, #8
40008a40:	e50b301c 	str	r3, [fp, #-28]
40008a44:	eaffffd9 	b	400089b0 <vsprintf+0x5c>
40008a48:	e51b301c 	ldr	r3, [fp, #-28]
40008a4c:	e3833020 	orr	r3, r3, #32
40008a50:	e50b301c 	str	r3, [fp, #-28]
40008a54:	eaffffd5 	b	400089b0 <vsprintf+0x5c>
40008a58:	e51b301c 	ldr	r3, [fp, #-28]
40008a5c:	e3833001 	orr	r3, r3, #1
40008a60:	e50b301c 	str	r3, [fp, #-28]
40008a64:	eaffffd1 	b	400089b0 <vsprintf+0x5c>
40008a68:	e3e03000 	mvn	r3, #0
40008a6c:	e50b3020 	str	r3, [fp, #-32]
40008a70:	e51b303c 	ldr	r3, [fp, #-60]	; 0x3c
40008a74:	e5d33000 	ldrb	r3, [r3]
40008a78:	e353002f 	cmp	r3, #47	; 0x2f
40008a7c:	9a000008 	bls	40008aa4 <vsprintf+0x150>
40008a80:	e51b303c 	ldr	r3, [fp, #-60]	; 0x3c
40008a84:	e5d33000 	ldrb	r3, [r3]
40008a88:	e3530039 	cmp	r3, #57	; 0x39
40008a8c:	8a000004 	bhi	40008aa4 <vsprintf+0x150>
40008a90:	e24b303c 	sub	r3, fp, #60	; 0x3c
40008a94:	e1a00003 	mov	r0, r3
40008a98:	ebfffe42 	bl	400083a8 <skip_atoi>
40008a9c:	e50b0020 	str	r0, [fp, #-32]
40008aa0:	ea000014 	b	40008af8 <vsprintf+0x1a4>
40008aa4:	e51b303c 	ldr	r3, [fp, #-60]	; 0x3c
40008aa8:	e5d33000 	ldrb	r3, [r3]
40008aac:	e353002a 	cmp	r3, #42	; 0x2a
40008ab0:	1a000010 	bne	40008af8 <vsprintf+0x1a4>
40008ab4:	e51b303c 	ldr	r3, [fp, #-60]	; 0x3c
40008ab8:	e2833001 	add	r3, r3, #1
40008abc:	e50b303c 	str	r3, [fp, #-60]	; 0x3c
40008ac0:	e51b3040 	ldr	r3, [fp, #-64]	; 0x40
40008ac4:	e2832004 	add	r2, r3, #4
40008ac8:	e50b2040 	str	r2, [fp, #-64]	; 0x40
40008acc:	e5933000 	ldr	r3, [r3]
40008ad0:	e50b3020 	str	r3, [fp, #-32]
40008ad4:	e51b3020 	ldr	r3, [fp, #-32]
40008ad8:	e3530000 	cmp	r3, #0
40008adc:	aa000005 	bge	40008af8 <vsprintf+0x1a4>
40008ae0:	e51b3020 	ldr	r3, [fp, #-32]
40008ae4:	e2633000 	rsb	r3, r3, #0
40008ae8:	e50b3020 	str	r3, [fp, #-32]
40008aec:	e51b301c 	ldr	r3, [fp, #-28]
40008af0:	e3833010 	orr	r3, r3, #16
40008af4:	e50b301c 	str	r3, [fp, #-28]
40008af8:	e3e03000 	mvn	r3, #0
40008afc:	e50b3024 	str	r3, [fp, #-36]	; 0x24
40008b00:	e51b303c 	ldr	r3, [fp, #-60]	; 0x3c
40008b04:	e5d33000 	ldrb	r3, [r3]
40008b08:	e353002e 	cmp	r3, #46	; 0x2e
40008b0c:	1a000020 	bne	40008b94 <vsprintf+0x240>
40008b10:	e51b303c 	ldr	r3, [fp, #-60]	; 0x3c
40008b14:	e2833001 	add	r3, r3, #1
40008b18:	e50b303c 	str	r3, [fp, #-60]	; 0x3c
40008b1c:	e51b303c 	ldr	r3, [fp, #-60]	; 0x3c
40008b20:	e5d33000 	ldrb	r3, [r3]
40008b24:	e353002f 	cmp	r3, #47	; 0x2f
40008b28:	9a000008 	bls	40008b50 <vsprintf+0x1fc>
40008b2c:	e51b303c 	ldr	r3, [fp, #-60]	; 0x3c
40008b30:	e5d33000 	ldrb	r3, [r3]
40008b34:	e3530039 	cmp	r3, #57	; 0x39
40008b38:	8a000004 	bhi	40008b50 <vsprintf+0x1fc>
40008b3c:	e24b303c 	sub	r3, fp, #60	; 0x3c
40008b40:	e1a00003 	mov	r0, r3
40008b44:	ebfffe17 	bl	400083a8 <skip_atoi>
40008b48:	e50b0024 	str	r0, [fp, #-36]	; 0x24
40008b4c:	ea00000b 	b	40008b80 <vsprintf+0x22c>
40008b50:	e51b303c 	ldr	r3, [fp, #-60]	; 0x3c
40008b54:	e5d33000 	ldrb	r3, [r3]
40008b58:	e353002a 	cmp	r3, #42	; 0x2a
40008b5c:	1a000007 	bne	40008b80 <vsprintf+0x22c>
40008b60:	e51b303c 	ldr	r3, [fp, #-60]	; 0x3c
40008b64:	e2833001 	add	r3, r3, #1
40008b68:	e50b303c 	str	r3, [fp, #-60]	; 0x3c
40008b6c:	e51b3040 	ldr	r3, [fp, #-64]	; 0x40
40008b70:	e2832004 	add	r2, r3, #4
40008b74:	e50b2040 	str	r2, [fp, #-64]	; 0x40
40008b78:	e5933000 	ldr	r3, [r3]
40008b7c:	e50b3024 	str	r3, [fp, #-36]	; 0x24
40008b80:	e51b3024 	ldr	r3, [fp, #-36]	; 0x24
40008b84:	e3530000 	cmp	r3, #0
40008b88:	aa000001 	bge	40008b94 <vsprintf+0x240>
40008b8c:	e3a03000 	mov	r3, #0
40008b90:	e50b3024 	str	r3, [fp, #-36]	; 0x24
40008b94:	e3e03000 	mvn	r3, #0
40008b98:	e50b3028 	str	r3, [fp, #-40]	; 0x28
40008b9c:	e51b303c 	ldr	r3, [fp, #-60]	; 0x3c
40008ba0:	e5d33000 	ldrb	r3, [r3]
40008ba4:	e3530068 	cmp	r3, #104	; 0x68
40008ba8:	0a000017 	beq	40008c0c <vsprintf+0x2b8>
40008bac:	e51b303c 	ldr	r3, [fp, #-60]	; 0x3c
40008bb0:	e5d33000 	ldrb	r3, [r3]
40008bb4:	e353006c 	cmp	r3, #108	; 0x6c
40008bb8:	0a000013 	beq	40008c0c <vsprintf+0x2b8>
40008bbc:	e51b303c 	ldr	r3, [fp, #-60]	; 0x3c
40008bc0:	e5d33000 	ldrb	r3, [r3]
40008bc4:	e353004c 	cmp	r3, #76	; 0x4c
40008bc8:	0a00000f 	beq	40008c0c <vsprintf+0x2b8>
40008bcc:	e51b303c 	ldr	r3, [fp, #-60]	; 0x3c
40008bd0:	e5d33000 	ldrb	r3, [r3]
40008bd4:	e353005a 	cmp	r3, #90	; 0x5a
40008bd8:	0a00000b 	beq	40008c0c <vsprintf+0x2b8>
40008bdc:	e51b303c 	ldr	r3, [fp, #-60]	; 0x3c
40008be0:	e5d33000 	ldrb	r3, [r3]
40008be4:	e353007a 	cmp	r3, #122	; 0x7a
40008be8:	0a000007 	beq	40008c0c <vsprintf+0x2b8>
40008bec:	e51b303c 	ldr	r3, [fp, #-60]	; 0x3c
40008bf0:	e5d33000 	ldrb	r3, [r3]
40008bf4:	e3530074 	cmp	r3, #116	; 0x74
40008bf8:	0a000003 	beq	40008c0c <vsprintf+0x2b8>
40008bfc:	e51b303c 	ldr	r3, [fp, #-60]	; 0x3c
40008c00:	e5d33000 	ldrb	r3, [r3]
40008c04:	e3530071 	cmp	r3, #113	; 0x71
40008c08:	1a000012 	bne	40008c58 <vsprintf+0x304>
40008c0c:	e51b303c 	ldr	r3, [fp, #-60]	; 0x3c
40008c10:	e5d33000 	ldrb	r3, [r3]
40008c14:	e50b3028 	str	r3, [fp, #-40]	; 0x28
40008c18:	e51b3028 	ldr	r3, [fp, #-40]	; 0x28
40008c1c:	e353006c 	cmp	r3, #108	; 0x6c
40008c20:	1a000009 	bne	40008c4c <vsprintf+0x2f8>
40008c24:	e51b303c 	ldr	r3, [fp, #-60]	; 0x3c
40008c28:	e2833001 	add	r3, r3, #1
40008c2c:	e5d33000 	ldrb	r3, [r3]
40008c30:	e353006c 	cmp	r3, #108	; 0x6c
40008c34:	1a000004 	bne	40008c4c <vsprintf+0x2f8>
40008c38:	e3a03071 	mov	r3, #113	; 0x71
40008c3c:	e50b3028 	str	r3, [fp, #-40]	; 0x28
40008c40:	e51b303c 	ldr	r3, [fp, #-60]	; 0x3c
40008c44:	e2833001 	add	r3, r3, #1
40008c48:	e50b303c 	str	r3, [fp, #-60]	; 0x3c
40008c4c:	e51b303c 	ldr	r3, [fp, #-60]	; 0x3c
40008c50:	e2833001 	add	r3, r3, #1
40008c54:	e50b303c 	str	r3, [fp, #-60]	; 0x3c
40008c58:	e3a0300a 	mov	r3, #10
40008c5c:	e50b3010 	str	r3, [fp, #-16]
40008c60:	e51b303c 	ldr	r3, [fp, #-60]	; 0x3c
40008c64:	e5d33000 	ldrb	r3, [r3]
40008c68:	e2433025 	sub	r3, r3, #37	; 0x25
40008c6c:	e3530053 	cmp	r3, #83	; 0x53
40008c70:	979ff103 	ldrls	pc, [pc, r3, lsl #2]
40008c74:	ea00010d 	b	400090b0 <vsprintf+0x75c>
40008c78:	40009060 	andmi	r9, r0, r0, rrx
40008c7c:	400090b0 	strhmi	r9, [r0], -r0
40008c80:	400090b0 	strhmi	r9, [r0], -r0
40008c84:	400090b0 	strhmi	r9, [r0], -r0
40008c88:	400090b0 	strhmi	r9, [r0], -r0
40008c8c:	400090b0 	strhmi	r9, [r0], -r0
40008c90:	400090b0 	strhmi	r9, [r0], -r0
40008c94:	400090b0 	strhmi	r9, [r0], -r0
40008c98:	400090b0 	strhmi	r9, [r0], -r0
40008c9c:	400090b0 	strhmi	r9, [r0], -r0
40008ca0:	400090b0 	strhmi	r9, [r0], -r0
40008ca4:	400090b0 	strhmi	r9, [r0], -r0
40008ca8:	400090b0 	strhmi	r9, [r0], -r0
40008cac:	400090b0 	strhmi	r9, [r0], -r0
40008cb0:	400090b0 	strhmi	r9, [r0], -r0
40008cb4:	400090b0 	strhmi	r9, [r0], -r0
40008cb8:	400090b0 	strhmi	r9, [r0], -r0
40008cbc:	400090b0 	strhmi	r9, [r0], -r0
40008cc0:	400090b0 	strhmi	r9, [r0], -r0
40008cc4:	400090b0 	strhmi	r9, [r0], -r0
40008cc8:	400090b0 	strhmi	r9, [r0], -r0
40008ccc:	400090b0 	strhmi	r9, [r0], -r0
40008cd0:	400090b0 	strhmi	r9, [r0], -r0
40008cd4:	400090b0 	strhmi	r9, [r0], -r0
40008cd8:	400090b0 	strhmi	r9, [r0], -r0
40008cdc:	400090b0 	strhmi	r9, [r0], -r0
40008ce0:	400090b0 	strhmi	r9, [r0], -r0
40008ce4:	400090b0 	strhmi	r9, [r0], -r0
40008ce8:	400090b0 	strhmi	r9, [r0], -r0
40008cec:	400090b0 	strhmi	r9, [r0], -r0
40008cf0:	400090b0 	strhmi	r9, [r0], -r0
40008cf4:	400090b0 	strhmi	r9, [r0], -r0
40008cf8:	400090b0 	strhmi	r9, [r0], -r0
40008cfc:	400090b0 	strhmi	r9, [r0], -r0
40008d00:	400090b0 	strhmi	r9, [r0], -r0
40008d04:	400090b0 	strhmi	r9, [r0], -r0
40008d08:	400090b0 	strhmi	r9, [r0], -r0
40008d0c:	400090b0 	strhmi	r9, [r0], -r0
40008d10:	400090b0 	strhmi	r9, [r0], -r0
40008d14:	400090b0 	strhmi	r9, [r0], -r0
40008d18:	400090b0 	strhmi	r9, [r0], -r0
40008d1c:	400090b0 	strhmi	r9, [r0], -r0
40008d20:	400090b0 	strhmi	r9, [r0], -r0
40008d24:	400090b0 	strhmi	r9, [r0], -r0
40008d28:	400090b0 	strhmi	r9, [r0], -r0
40008d2c:	400090b0 	strhmi	r9, [r0], -r0
40008d30:	400090b0 	strhmi	r9, [r0], -r0
40008d34:	400090b0 	strhmi	r9, [r0], -r0
40008d38:	400090b0 	strhmi	r9, [r0], -r0
40008d3c:	400090b0 	strhmi	r9, [r0], -r0
40008d40:	400090b0 	strhmi	r9, [r0], -r0
40008d44:	40009088 	andmi	r9, r0, r8, lsl #1
40008d48:	400090b0 	strhmi	r9, [r0], -r0
40008d4c:	400090b0 	strhmi	r9, [r0], -r0
40008d50:	400090b0 	strhmi	r9, [r0], -r0
40008d54:	400090b0 	strhmi	r9, [r0], -r0
40008d58:	400090b0 	strhmi	r9, [r0], -r0
40008d5c:	400090b0 	strhmi	r9, [r0], -r0
40008d60:	400090b0 	strhmi	r9, [r0], -r0
40008d64:	400090b0 	strhmi	r9, [r0], -r0
40008d68:	400090b0 	strhmi	r9, [r0], -r0
40008d6c:	400090b0 	strhmi	r9, [r0], -r0
40008d70:	40008dc8 	andmi	r8, r0, r8, asr #27
40008d74:	400090a0 	andmi	r9, r0, r0, lsr #1
40008d78:	400090b0 	strhmi	r9, [r0], -r0
40008d7c:	400090b0 	strhmi	r9, [r0], -r0
40008d80:	400090b0 	strhmi	r9, [r0], -r0
40008d84:	400090b0 	strhmi	r9, [r0], -r0
40008d88:	400090a0 	andmi	r9, r0, r0, lsr #1
40008d8c:	400090b0 	strhmi	r9, [r0], -r0
40008d90:	400090b0 	strhmi	r9, [r0], -r0
40008d94:	400090b0 	strhmi	r9, [r0], -r0
40008d98:	400090b0 	strhmi	r9, [r0], -r0
40008d9c:	40008ffc 	strdmi	r8, [r0], -ip
40008da0:	4000907c 	andmi	r9, r0, ip, ror r0
40008da4:	40008fa0 	andmi	r8, r0, r0, lsr #31
40008da8:	400090b0 	strhmi	r9, [r0], -r0
40008dac:	400090b0 	strhmi	r9, [r0], -r0
40008db0:	40008e6c 	andmi	r8, r0, ip, ror #28
40008db4:	400090b0 	strhmi	r9, [r0], -r0
40008db8:	40009108 	andmi	r9, r0, r8, lsl #2
40008dbc:	400090b0 	strhmi	r9, [r0], -r0
40008dc0:	400090b0 	strhmi	r9, [r0], -r0
40008dc4:	40009094 	mulmi	r0, r4, r0
40008dc8:	e51b301c 	ldr	r3, [fp, #-28]
40008dcc:	e2033010 	and	r3, r3, #16
40008dd0:	e3530000 	cmp	r3, #0
40008dd4:	1a00000c 	bne	40008e0c <vsprintf+0x4b8>
40008dd8:	ea000005 	b	40008df4 <vsprintf+0x4a0>
40008ddc:	e51b3014 	ldr	r3, [fp, #-20]
40008de0:	e3a02020 	mov	r2, #32
40008de4:	e5c32000 	strb	r2, [r3]
40008de8:	e51b3014 	ldr	r3, [fp, #-20]
40008dec:	e2833001 	add	r3, r3, #1
40008df0:	e50b3014 	str	r3, [fp, #-20]
40008df4:	e51b3020 	ldr	r3, [fp, #-32]
40008df8:	e2433001 	sub	r3, r3, #1
40008dfc:	e50b3020 	str	r3, [fp, #-32]
40008e00:	e51b3020 	ldr	r3, [fp, #-32]
40008e04:	e3530000 	cmp	r3, #0
40008e08:	cafffff3 	bgt	40008ddc <vsprintf+0x488>
40008e0c:	e51b3040 	ldr	r3, [fp, #-64]	; 0x40
40008e10:	e2832004 	add	r2, r3, #4
40008e14:	e50b2040 	str	r2, [fp, #-64]	; 0x40
40008e18:	e5933000 	ldr	r3, [r3]
40008e1c:	e20320ff 	and	r2, r3, #255	; 0xff
40008e20:	e51b3014 	ldr	r3, [fp, #-20]
40008e24:	e5c32000 	strb	r2, [r3]
40008e28:	e51b3014 	ldr	r3, [fp, #-20]
40008e2c:	e2833001 	add	r3, r3, #1
40008e30:	e50b3014 	str	r3, [fp, #-20]
40008e34:	ea000005 	b	40008e50 <vsprintf+0x4fc>
40008e38:	e51b3014 	ldr	r3, [fp, #-20]
40008e3c:	e3a02020 	mov	r2, #32
40008e40:	e5c32000 	strb	r2, [r3]
40008e44:	e51b3014 	ldr	r3, [fp, #-20]
40008e48:	e2833001 	add	r3, r3, #1
40008e4c:	e50b3014 	str	r3, [fp, #-20]
40008e50:	e51b3020 	ldr	r3, [fp, #-32]
40008e54:	e2433001 	sub	r3, r3, #1
40008e58:	e50b3020 	str	r3, [fp, #-32]
40008e5c:	e51b3020 	ldr	r3, [fp, #-32]
40008e60:	e3530000 	cmp	r3, #0
40008e64:	cafffff3 	bgt	40008e38 <vsprintf+0x4e4>
40008e68:	ea0000f5 	b	40009244 <vsprintf+0x8f0>
40008e6c:	e51b3040 	ldr	r3, [fp, #-64]	; 0x40
40008e70:	e2832004 	add	r2, r3, #4
40008e74:	e50b2040 	str	r2, [fp, #-64]	; 0x40
40008e78:	e5933000 	ldr	r3, [r3]
40008e7c:	e50b3018 	str	r3, [fp, #-24]
40008e80:	e51b3018 	ldr	r3, [fp, #-24]
40008e84:	e3530000 	cmp	r3, #0
40008e88:	1a000001 	bne	40008e94 <vsprintf+0x540>
40008e8c:	e59f33f4 	ldr	r3, [pc, #1012]	; 40009288 <vsprintf+0x934>
40008e90:	e50b3018 	str	r3, [fp, #-24]
40008e94:	e51b3024 	ldr	r3, [fp, #-36]	; 0x24
40008e98:	e51b0018 	ldr	r0, [fp, #-24]
40008e9c:	e1a01003 	mov	r1, r3
40008ea0:	ebfffe8b 	bl	400088d4 <strnlen>
40008ea4:	e1a03000 	mov	r3, r0
40008ea8:	e50b302c 	str	r3, [fp, #-44]	; 0x2c
40008eac:	e51b301c 	ldr	r3, [fp, #-28]
40008eb0:	e2033010 	and	r3, r3, #16
40008eb4:	e3530000 	cmp	r3, #0
40008eb8:	1a000011 	bne	40008f04 <vsprintf+0x5b0>
40008ebc:	ea000005 	b	40008ed8 <vsprintf+0x584>
40008ec0:	e51b3014 	ldr	r3, [fp, #-20]
40008ec4:	e3a02020 	mov	r2, #32
40008ec8:	e5c32000 	strb	r2, [r3]
40008ecc:	e51b3014 	ldr	r3, [fp, #-20]
40008ed0:	e2833001 	add	r3, r3, #1
40008ed4:	e50b3014 	str	r3, [fp, #-20]
40008ed8:	e51b2020 	ldr	r2, [fp, #-32]
40008edc:	e51b302c 	ldr	r3, [fp, #-44]	; 0x2c
40008ee0:	e1520003 	cmp	r2, r3
40008ee4:	d3a03000 	movle	r3, #0
40008ee8:	c3a03001 	movgt	r3, #1
40008eec:	e20330ff 	and	r3, r3, #255	; 0xff
40008ef0:	e51b2020 	ldr	r2, [fp, #-32]
40008ef4:	e2422001 	sub	r2, r2, #1
40008ef8:	e50b2020 	str	r2, [fp, #-32]
40008efc:	e3530000 	cmp	r3, #0
40008f00:	1affffee 	bne	40008ec0 <vsprintf+0x56c>
40008f04:	e3a03000 	mov	r3, #0
40008f08:	e50b300c 	str	r3, [fp, #-12]
40008f0c:	ea00000c 	b	40008f44 <vsprintf+0x5f0>
40008f10:	e51b3018 	ldr	r3, [fp, #-24]
40008f14:	e5d32000 	ldrb	r2, [r3]
40008f18:	e51b3014 	ldr	r3, [fp, #-20]
40008f1c:	e5c32000 	strb	r2, [r3]
40008f20:	e51b3014 	ldr	r3, [fp, #-20]
40008f24:	e2833001 	add	r3, r3, #1
40008f28:	e50b3014 	str	r3, [fp, #-20]
40008f2c:	e51b3018 	ldr	r3, [fp, #-24]
40008f30:	e2833001 	add	r3, r3, #1
40008f34:	e50b3018 	str	r3, [fp, #-24]
40008f38:	e51b300c 	ldr	r3, [fp, #-12]
40008f3c:	e2833001 	add	r3, r3, #1
40008f40:	e50b300c 	str	r3, [fp, #-12]
40008f44:	e51b200c 	ldr	r2, [fp, #-12]
40008f48:	e51b302c 	ldr	r3, [fp, #-44]	; 0x2c
40008f4c:	e1520003 	cmp	r2, r3
40008f50:	baffffee 	blt	40008f10 <vsprintf+0x5bc>
40008f54:	ea000005 	b	40008f70 <vsprintf+0x61c>
40008f58:	e51b3014 	ldr	r3, [fp, #-20]
40008f5c:	e3a02020 	mov	r2, #32
40008f60:	e5c32000 	strb	r2, [r3]
40008f64:	e51b3014 	ldr	r3, [fp, #-20]
40008f68:	e2833001 	add	r3, r3, #1
40008f6c:	e50b3014 	str	r3, [fp, #-20]
40008f70:	e51b2020 	ldr	r2, [fp, #-32]
40008f74:	e51b302c 	ldr	r3, [fp, #-44]	; 0x2c
40008f78:	e1520003 	cmp	r2, r3
40008f7c:	d3a03000 	movle	r3, #0
40008f80:	c3a03001 	movgt	r3, #1
40008f84:	e20330ff 	and	r3, r3, #255	; 0xff
40008f88:	e51b2020 	ldr	r2, [fp, #-32]
40008f8c:	e2422001 	sub	r2, r2, #1
40008f90:	e50b2020 	str	r2, [fp, #-32]
40008f94:	e3530000 	cmp	r3, #0
40008f98:	1affffee 	bne	40008f58 <vsprintf+0x604>
40008f9c:	ea0000a8 	b	40009244 <vsprintf+0x8f0>
40008fa0:	e51b3020 	ldr	r3, [fp, #-32]
40008fa4:	e3730001 	cmn	r3, #1
40008fa8:	1a000004 	bne	40008fc0 <vsprintf+0x66c>
40008fac:	e3a03008 	mov	r3, #8
40008fb0:	e50b3020 	str	r3, [fp, #-32]
40008fb4:	e51b301c 	ldr	r3, [fp, #-28]
40008fb8:	e3833001 	orr	r3, r3, #1
40008fbc:	e50b301c 	str	r3, [fp, #-28]
40008fc0:	e51b3040 	ldr	r3, [fp, #-64]	; 0x40
40008fc4:	e2832004 	add	r2, r3, #4
40008fc8:	e50b2040 	str	r2, [fp, #-64]	; 0x40
40008fcc:	e5933000 	ldr	r3, [r3]
40008fd0:	e51b2024 	ldr	r2, [fp, #-36]	; 0x24
40008fd4:	e58d2000 	str	r2, [sp]
40008fd8:	e51b201c 	ldr	r2, [fp, #-28]
40008fdc:	e58d2004 	str	r2, [sp, #4]
40008fe0:	e51b0014 	ldr	r0, [fp, #-20]
40008fe4:	e1a01003 	mov	r1, r3
40008fe8:	e3a02010 	mov	r2, #16
40008fec:	e51b3020 	ldr	r3, [fp, #-32]
40008ff0:	ebfffd11 	bl	4000843c <number>
40008ff4:	e50b0014 	str	r0, [fp, #-20]
40008ff8:	ea000091 	b	40009244 <vsprintf+0x8f0>
40008ffc:	e51b3028 	ldr	r3, [fp, #-40]	; 0x28
40009000:	e353006c 	cmp	r3, #108	; 0x6c
40009004:	1a00000a 	bne	40009034 <vsprintf+0x6e0>
40009008:	e51b3040 	ldr	r3, [fp, #-64]	; 0x40
4000900c:	e2832004 	add	r2, r3, #4
40009010:	e50b2040 	str	r2, [fp, #-64]	; 0x40
40009014:	e5933000 	ldr	r3, [r3]
40009018:	e50b3030 	str	r3, [fp, #-48]	; 0x30
4000901c:	e51b2014 	ldr	r2, [fp, #-20]
40009020:	e51b3038 	ldr	r3, [fp, #-56]	; 0x38
40009024:	e0632002 	rsb	r2, r3, r2
40009028:	e51b3030 	ldr	r3, [fp, #-48]	; 0x30
4000902c:	e5832000 	str	r2, [r3]
40009030:	ea000083 	b	40009244 <vsprintf+0x8f0>
40009034:	e51b3040 	ldr	r3, [fp, #-64]	; 0x40
40009038:	e2832004 	add	r2, r3, #4
4000903c:	e50b2040 	str	r2, [fp, #-64]	; 0x40
40009040:	e5933000 	ldr	r3, [r3]
40009044:	e50b3034 	str	r3, [fp, #-52]	; 0x34
40009048:	e51b2014 	ldr	r2, [fp, #-20]
4000904c:	e51b3038 	ldr	r3, [fp, #-56]	; 0x38
40009050:	e0632002 	rsb	r2, r3, r2
40009054:	e51b3034 	ldr	r3, [fp, #-52]	; 0x34
40009058:	e5832000 	str	r2, [r3]
4000905c:	ea000078 	b	40009244 <vsprintf+0x8f0>
40009060:	e51b3014 	ldr	r3, [fp, #-20]
40009064:	e3a02025 	mov	r2, #37	; 0x25
40009068:	e5c32000 	strb	r2, [r3]
4000906c:	e51b3014 	ldr	r3, [fp, #-20]
40009070:	e2833001 	add	r3, r3, #1
40009074:	e50b3014 	str	r3, [fp, #-20]
40009078:	ea000071 	b	40009244 <vsprintf+0x8f0>
4000907c:	e3a03008 	mov	r3, #8
40009080:	e50b3010 	str	r3, [fp, #-16]
40009084:	ea000020 	b	4000910c <vsprintf+0x7b8>
40009088:	e51b301c 	ldr	r3, [fp, #-28]
4000908c:	e3833040 	orr	r3, r3, #64	; 0x40
40009090:	e50b301c 	str	r3, [fp, #-28]
40009094:	e3a03010 	mov	r3, #16
40009098:	e50b3010 	str	r3, [fp, #-16]
4000909c:	ea00001a 	b	4000910c <vsprintf+0x7b8>
400090a0:	e51b301c 	ldr	r3, [fp, #-28]
400090a4:	e3833002 	orr	r3, r3, #2
400090a8:	e50b301c 	str	r3, [fp, #-28]
400090ac:	ea000015 	b	40009108 <vsprintf+0x7b4>
400090b0:	e51b3014 	ldr	r3, [fp, #-20]
400090b4:	e3a02025 	mov	r2, #37	; 0x25
400090b8:	e5c32000 	strb	r2, [r3]
400090bc:	e51b3014 	ldr	r3, [fp, #-20]
400090c0:	e2833001 	add	r3, r3, #1
400090c4:	e50b3014 	str	r3, [fp, #-20]
400090c8:	e51b303c 	ldr	r3, [fp, #-60]	; 0x3c
400090cc:	e5d33000 	ldrb	r3, [r3]
400090d0:	e3530000 	cmp	r3, #0
400090d4:	0a000007 	beq	400090f8 <vsprintf+0x7a4>
400090d8:	e51b303c 	ldr	r3, [fp, #-60]	; 0x3c
400090dc:	e5d32000 	ldrb	r2, [r3]
400090e0:	e51b3014 	ldr	r3, [fp, #-20]
400090e4:	e5c32000 	strb	r2, [r3]
400090e8:	e51b3014 	ldr	r3, [fp, #-20]
400090ec:	e2833001 	add	r3, r3, #1
400090f0:	e50b3014 	str	r3, [fp, #-20]
400090f4:	ea000052 	b	40009244 <vsprintf+0x8f0>
400090f8:	e51b303c 	ldr	r3, [fp, #-60]	; 0x3c
400090fc:	e2433001 	sub	r3, r3, #1
40009100:	e50b303c 	str	r3, [fp, #-60]	; 0x3c
40009104:	ea00004e 	b	40009244 <vsprintf+0x8f0>
40009108:	e1a00000 	nop			; (mov r0, r0)
4000910c:	e51b3028 	ldr	r3, [fp, #-40]	; 0x28
40009110:	e353006c 	cmp	r3, #108	; 0x6c
40009114:	1a000005 	bne	40009130 <vsprintf+0x7dc>
40009118:	e51b3040 	ldr	r3, [fp, #-64]	; 0x40
4000911c:	e2832004 	add	r2, r3, #4
40009120:	e50b2040 	str	r2, [fp, #-64]	; 0x40
40009124:	e5933000 	ldr	r3, [r3]
40009128:	e50b3008 	str	r3, [fp, #-8]
4000912c:	ea000038 	b	40009214 <vsprintf+0x8c0>
40009130:	e51b3028 	ldr	r3, [fp, #-40]	; 0x28
40009134:	e353005a 	cmp	r3, #90	; 0x5a
40009138:	0a000002 	beq	40009148 <vsprintf+0x7f4>
4000913c:	e51b3028 	ldr	r3, [fp, #-40]	; 0x28
40009140:	e353007a 	cmp	r3, #122	; 0x7a
40009144:	1a000005 	bne	40009160 <vsprintf+0x80c>
40009148:	e51b3040 	ldr	r3, [fp, #-64]	; 0x40
4000914c:	e2832004 	add	r2, r3, #4
40009150:	e50b2040 	str	r2, [fp, #-64]	; 0x40
40009154:	e5933000 	ldr	r3, [r3]
40009158:	e50b3008 	str	r3, [fp, #-8]
4000915c:	ea00002c 	b	40009214 <vsprintf+0x8c0>
40009160:	e51b3028 	ldr	r3, [fp, #-40]	; 0x28
40009164:	e3530074 	cmp	r3, #116	; 0x74
40009168:	1a000005 	bne	40009184 <vsprintf+0x830>
4000916c:	e51b3040 	ldr	r3, [fp, #-64]	; 0x40
40009170:	e2832004 	add	r2, r3, #4
40009174:	e50b2040 	str	r2, [fp, #-64]	; 0x40
40009178:	e5933000 	ldr	r3, [r3]
4000917c:	e50b3008 	str	r3, [fp, #-8]
40009180:	ea000023 	b	40009214 <vsprintf+0x8c0>
40009184:	e51b3028 	ldr	r3, [fp, #-40]	; 0x28
40009188:	e3530068 	cmp	r3, #104	; 0x68
4000918c:	1a000011 	bne	400091d8 <vsprintf+0x884>
40009190:	e51b3040 	ldr	r3, [fp, #-64]	; 0x40
40009194:	e2832004 	add	r2, r3, #4
40009198:	e50b2040 	str	r2, [fp, #-64]	; 0x40
4000919c:	e5933000 	ldr	r3, [r3]
400091a0:	e1a03803 	lsl	r3, r3, #16
400091a4:	e1a03823 	lsr	r3, r3, #16
400091a8:	e50b3008 	str	r3, [fp, #-8]
400091ac:	e51b301c 	ldr	r3, [fp, #-28]
400091b0:	e2033002 	and	r3, r3, #2
400091b4:	e3530000 	cmp	r3, #0
400091b8:	0a000015 	beq	40009214 <vsprintf+0x8c0>
400091bc:	e51b3008 	ldr	r3, [fp, #-8]
400091c0:	e1a03803 	lsl	r3, r3, #16
400091c4:	e1a03823 	lsr	r3, r3, #16
400091c8:	e1a03803 	lsl	r3, r3, #16
400091cc:	e1a03843 	asr	r3, r3, #16
400091d0:	e50b3008 	str	r3, [fp, #-8]
400091d4:	ea00000e 	b	40009214 <vsprintf+0x8c0>
400091d8:	e51b301c 	ldr	r3, [fp, #-28]
400091dc:	e2033002 	and	r3, r3, #2
400091e0:	e3530000 	cmp	r3, #0
400091e4:	0a000005 	beq	40009200 <vsprintf+0x8ac>
400091e8:	e51b3040 	ldr	r3, [fp, #-64]	; 0x40
400091ec:	e2832004 	add	r2, r3, #4
400091f0:	e50b2040 	str	r2, [fp, #-64]	; 0x40
400091f4:	e5933000 	ldr	r3, [r3]
400091f8:	e50b3008 	str	r3, [fp, #-8]
400091fc:	ea000004 	b	40009214 <vsprintf+0x8c0>
40009200:	e51b3040 	ldr	r3, [fp, #-64]	; 0x40
40009204:	e2832004 	add	r2, r3, #4
40009208:	e50b2040 	str	r2, [fp, #-64]	; 0x40
4000920c:	e5933000 	ldr	r3, [r3]
40009210:	e50b3008 	str	r3, [fp, #-8]
40009214:	e51b2008 	ldr	r2, [fp, #-8]
40009218:	e51b3010 	ldr	r3, [fp, #-16]
4000921c:	e51b1024 	ldr	r1, [fp, #-36]	; 0x24
40009220:	e58d1000 	str	r1, [sp]
40009224:	e51b101c 	ldr	r1, [fp, #-28]
40009228:	e58d1004 	str	r1, [sp, #4]
4000922c:	e51b0014 	ldr	r0, [fp, #-20]
40009230:	e1a01002 	mov	r1, r2
40009234:	e1a02003 	mov	r2, r3
40009238:	e51b3020 	ldr	r3, [fp, #-32]
4000923c:	ebfffc7e 	bl	4000843c <number>
40009240:	e50b0014 	str	r0, [fp, #-20]
40009244:	e51b303c 	ldr	r3, [fp, #-60]	; 0x3c
40009248:	e2833001 	add	r3, r3, #1
4000924c:	e50b303c 	str	r3, [fp, #-60]	; 0x3c
40009250:	e51b303c 	ldr	r3, [fp, #-60]	; 0x3c
40009254:	e5d33000 	ldrb	r3, [r3]
40009258:	e3530000 	cmp	r3, #0
4000925c:	1afffdc5 	bne	40008978 <vsprintf+0x24>
40009260:	e51b3014 	ldr	r3, [fp, #-20]
40009264:	e3a02000 	mov	r2, #0
40009268:	e5c32000 	strb	r2, [r3]
4000926c:	e51b2014 	ldr	r2, [fp, #-20]
40009270:	e51b3038 	ldr	r3, [fp, #-56]	; 0x38
40009274:	e0633002 	rsb	r3, r3, r2
40009278:	e1a00003 	mov	r0, r3
4000927c:	e24bd004 	sub	sp, fp, #4
40009280:	e8bd4800 	pop	{fp, lr}
40009284:	e12fff1e 	bx	lr
40009288:	400097ec 	andmi	r9, r0, ip, ror #15

4000928c <sprintf>:
4000928c:	e92d000e 	push	{r1, r2, r3}
40009290:	e92d4800 	push	{fp, lr}
40009294:	e28db004 	add	fp, sp, #4
40009298:	e24dd00c 	sub	sp, sp, #12
4000929c:	e50b0010 	str	r0, [fp, #-16]
400092a0:	e28b2008 	add	r2, fp, #8
400092a4:	e24b300c 	sub	r3, fp, #12
400092a8:	e5832000 	str	r2, [r3]
400092ac:	e51b300c 	ldr	r3, [fp, #-12]
400092b0:	e51b0010 	ldr	r0, [fp, #-16]
400092b4:	e59b1004 	ldr	r1, [fp, #4]
400092b8:	e1a02003 	mov	r2, r3
400092bc:	ebfffda4 	bl	40008954 <vsprintf>
400092c0:	e50b0008 	str	r0, [fp, #-8]
400092c4:	e51b3008 	ldr	r3, [fp, #-8]
400092c8:	e1a00003 	mov	r0, r3
400092cc:	e24bd004 	sub	sp, fp, #4
400092d0:	e8bd4800 	pop	{fp, lr}
400092d4:	e28dd00c 	add	sp, sp, #12
400092d8:	e12fff1e 	bx	lr

400092dc <printf>:
400092dc:	e92d000f 	push	{r0, r1, r2, r3}
400092e0:	e92d4800 	push	{fp, lr}
400092e4:	e28db004 	add	fp, sp, #4
400092e8:	e24dd06c 	sub	sp, sp, #108	; 0x6c
400092ec:	e28b2008 	add	r2, fp, #8
400092f0:	e24b300c 	sub	r3, fp, #12
400092f4:	e5832000 	str	r2, [r3]
400092f8:	e51b300c 	ldr	r3, [fp, #-12]
400092fc:	e24b2070 	sub	r2, fp, #112	; 0x70
40009300:	e1a00002 	mov	r0, r2
40009304:	e59b1004 	ldr	r1, [fp, #4]
40009308:	e1a02003 	mov	r2, r3
4000930c:	ebfffd90 	bl	40008954 <vsprintf>
40009310:	e1a03000 	mov	r3, r0
40009314:	e50b3008 	str	r3, [fp, #-8]
40009318:	e24b3070 	sub	r3, fp, #112	; 0x70
4000931c:	e1a00003 	mov	r0, r3
40009320:	eb000033 	bl	400093f4 <puts>
40009324:	e24bd004 	sub	sp, fp, #4
40009328:	e8bd4800 	pop	{fp, lr}
4000932c:	e28dd010 	add	sp, sp, #16
40009330:	e12fff1e 	bx	lr

40009334 <uart_init>:
40009334:	e52db004 	push	{fp}		; (str fp, [sp, #-4]!)
40009338:	e28db000 	add	fp, sp, #0
4000933c:	e59f304c 	ldr	r3, [pc, #76]	; 40009390 <uart_init+0x5c>
40009340:	e59f2048 	ldr	r2, [pc, #72]	; 40009390 <uart_init+0x5c>
40009344:	e5922000 	ldr	r2, [r2]
40009348:	e3c220ff 	bic	r2, r2, #255	; 0xff
4000934c:	e3822022 	orr	r2, r2, #34	; 0x22
40009350:	e5832000 	str	r2, [r3]
40009354:	e59f3038 	ldr	r3, [pc, #56]	; 40009394 <uart_init+0x60>
40009358:	e3a02003 	mov	r2, #3
4000935c:	e5832000 	str	r2, [r3]
40009360:	e59f302c 	ldr	r3, [pc, #44]	; 40009394 <uart_init+0x60>
40009364:	e3a02005 	mov	r2, #5
40009368:	e5832004 	str	r2, [r3, #4]
4000936c:	e59f3020 	ldr	r3, [pc, #32]	; 40009394 <uart_init+0x60>
40009370:	e3a02035 	mov	r2, #53	; 0x35
40009374:	e5832028 	str	r2, [r3, #40]	; 0x28
40009378:	e59f3014 	ldr	r3, [pc, #20]	; 40009394 <uart_init+0x60>
4000937c:	e3a02005 	mov	r2, #5
40009380:	e583202c 	str	r2, [r3, #44]	; 0x2c
40009384:	e28bd000 	add	sp, fp, #0
40009388:	e8bd0800 	pop	{fp}
4000938c:	e12fff1e 	bx	lr
40009390:	11400020 	cmpne	r0, r0, lsr #32
40009394:	13820000 	orrne	r0, r2, #0

40009398 <putc>:
40009398:	e92d4800 	push	{fp, lr}
4000939c:	e28db004 	add	fp, sp, #4
400093a0:	e24dd004 	sub	sp, sp, #4
400093a4:	e1a03000 	mov	r3, r0
400093a8:	e54b3008 	strb	r3, [fp, #-8]
400093ac:	e1a00000 	nop			; (mov r0, r0)
400093b0:	e59f3038 	ldr	r3, [pc, #56]	; 400093f0 <putc+0x58>
400093b4:	e5933010 	ldr	r3, [r3, #16]
400093b8:	e2033002 	and	r3, r3, #2
400093bc:	e3530000 	cmp	r3, #0
400093c0:	0afffffa 	beq	400093b0 <putc+0x18>
400093c4:	e59f3024 	ldr	r3, [pc, #36]	; 400093f0 <putc+0x58>
400093c8:	e55b2008 	ldrb	r2, [fp, #-8]
400093cc:	e5832020 	str	r2, [r3, #32]
400093d0:	e55b3008 	ldrb	r3, [fp, #-8]
400093d4:	e353000a 	cmp	r3, #10
400093d8:	1a000001 	bne	400093e4 <putc+0x4c>
400093dc:	e3a0000d 	mov	r0, #13
400093e0:	ebffffec 	bl	40009398 <putc>
400093e4:	e24bd004 	sub	sp, fp, #4
400093e8:	e8bd4800 	pop	{fp, lr}
400093ec:	e12fff1e 	bx	lr
400093f0:	13820000 	orrne	r0, r2, #0

400093f4 <puts>:
400093f4:	e92d4800 	push	{fp, lr}
400093f8:	e28db004 	add	fp, sp, #4
400093fc:	e24dd004 	sub	sp, sp, #4
40009400:	e50b0008 	str	r0, [fp, #-8]
40009404:	ea000006 	b	40009424 <puts+0x30>
40009408:	e51b3008 	ldr	r3, [fp, #-8]
4000940c:	e5d33000 	ldrb	r3, [r3]
40009410:	e51b2008 	ldr	r2, [fp, #-8]
40009414:	e2822001 	add	r2, r2, #1
40009418:	e50b2008 	str	r2, [fp, #-8]
4000941c:	e1a00003 	mov	r0, r3
40009420:	ebffffdc 	bl	40009398 <putc>
40009424:	e51b3008 	ldr	r3, [fp, #-8]
40009428:	e5d33000 	ldrb	r3, [r3]
4000942c:	e3530000 	cmp	r3, #0
40009430:	1afffff4 	bne	40009408 <puts+0x14>
40009434:	e24bd004 	sub	sp, fp, #4
40009438:	e8bd4800 	pop	{fp, lr}
4000943c:	e12fff1e 	bx	lr

40009440 <__udivsi3>:
40009440:	e3510000 	cmp	r1, #0
40009444:	0a00001f 	beq	400094c8 <Ldiv0>
40009448:	e3a03001 	mov	r3, #1
4000944c:	e3a02000 	mov	r2, #0
40009450:	e1500001 	cmp	r0, r1
40009454:	3a000019 	bcc	400094c0 <Lgot_result>

40009458 <Loop1>:
40009458:	e3510201 	cmp	r1, #268435456	; 0x10000000
4000945c:	31510000 	cmpcc	r1, r0
40009460:	31a01201 	lslcc	r1, r1, #4
40009464:	31a03203 	lslcc	r3, r3, #4
40009468:	3afffffa 	bcc	40009458 <Loop1>

4000946c <Lbignum>:
4000946c:	e3510102 	cmp	r1, #-2147483648	; 0x80000000
40009470:	31510000 	cmpcc	r1, r0
40009474:	31a01081 	lslcc	r1, r1, #1
40009478:	31a03083 	lslcc	r3, r3, #1
4000947c:	3afffffa 	bcc	4000946c <Lbignum>

40009480 <Loop3>:
40009480:	e1500001 	cmp	r0, r1
40009484:	20400001 	subcs	r0, r0, r1
40009488:	21822003 	orrcs	r2, r2, r3
4000948c:	e15000a1 	cmp	r0, r1, lsr #1
40009490:	204000a1 	subcs	r0, r0, r1, lsr #1
40009494:	218220a3 	orrcs	r2, r2, r3, lsr #1
40009498:	e1500121 	cmp	r0, r1, lsr #2
4000949c:	20400121 	subcs	r0, r0, r1, lsr #2
400094a0:	21822123 	orrcs	r2, r2, r3, lsr #2
400094a4:	e15001a1 	cmp	r0, r1, lsr #3
400094a8:	204001a1 	subcs	r0, r0, r1, lsr #3
400094ac:	218221a3 	orrcs	r2, r2, r3, lsr #3
400094b0:	e3500000 	cmp	r0, #0
400094b4:	11b03223 	lsrsne	r3, r3, #4
400094b8:	11a01221 	lsrne	r1, r1, #4
400094bc:	1affffef 	bne	40009480 <Loop3>

400094c0 <Lgot_result>:
400094c0:	e1a00002 	mov	r0, r2
400094c4:	e1a0f00e 	mov	pc, lr

400094c8 <Ldiv0>:
400094c8:	e52de004 	push	{lr}		; (str lr, [sp, #-4]!)
400094cc:	e3a00000 	mov	r0, #0
400094d0:	e8bd8000 	pop	{pc}

400094d4 <__umodsi3>:
400094d4:	e3510000 	cmp	r1, #0
400094d8:	0a000026 	beq	40009578 <Ldiv0>
400094dc:	e3a03001 	mov	r3, #1
400094e0:	e1500001 	cmp	r0, r1
400094e4:	31a0f00e 	movcc	pc, lr

400094e8 <Loop1>:
400094e8:	e3510201 	cmp	r1, #268435456	; 0x10000000
400094ec:	31510000 	cmpcc	r1, r0
400094f0:	31a01201 	lslcc	r1, r1, #4
400094f4:	31a03203 	lslcc	r3, r3, #4
400094f8:	3afffffa 	bcc	400094e8 <Loop1>

400094fc <Lbignum>:
400094fc:	e3510102 	cmp	r1, #-2147483648	; 0x80000000
40009500:	31510000 	cmpcc	r1, r0
40009504:	31a01081 	lslcc	r1, r1, #1
40009508:	31a03083 	lslcc	r3, r3, #1
4000950c:	3afffffa 	bcc	400094fc <Lbignum>

40009510 <Loop3>:
40009510:	e3a02000 	mov	r2, #0
40009514:	e1500001 	cmp	r0, r1
40009518:	20400001 	subcs	r0, r0, r1
4000951c:	e15000a1 	cmp	r0, r1, lsr #1
40009520:	204000a1 	subcs	r0, r0, r1, lsr #1
40009524:	218220e3 	orrcs	r2, r2, r3, ror #1
40009528:	e1500121 	cmp	r0, r1, lsr #2
4000952c:	20400121 	subcs	r0, r0, r1, lsr #2
40009530:	21822163 	orrcs	r2, r2, r3, ror #2
40009534:	e15001a1 	cmp	r0, r1, lsr #3
40009538:	204001a1 	subcs	r0, r0, r1, lsr #3
4000953c:	218221e3 	orrcs	r2, r2, r3, ror #3
40009540:	e1a0c003 	mov	ip, r3
40009544:	e3500000 	cmp	r0, #0
40009548:	11b03223 	lsrsne	r3, r3, #4
4000954c:	11a01221 	lsrne	r1, r1, #4
40009550:	1affffee 	bne	40009510 <Loop3>
40009554:	e212220e 	ands	r2, r2, #-536870912	; 0xe0000000
40009558:	01a0f00e 	moveq	pc, lr
4000955c:	e11201ec 	tst	r2, ip, ror #3
40009560:	108001a1 	addne	r0, r0, r1, lsr #3
40009564:	e112016c 	tst	r2, ip, ror #2
40009568:	10800121 	addne	r0, r0, r1, lsr #2
4000956c:	e11200ec 	tst	r2, ip, ror #1
40009570:	108000a1 	addne	r0, r0, r1, lsr #1
40009574:	e1a0f00e 	mov	pc, lr

40009578 <Ldiv0>:
40009578:	e52de004 	push	{lr}		; (str lr, [sp, #-4]!)
4000957c:	e3a00000 	mov	r0, #0
40009580:	e8bd8000 	pop	{pc}

40009584 <do_irq>:
40009584:	e92d4800 	push	{fp, lr}
40009588:	e28db004 	add	fp, sp, #4
4000958c:	e24dd004 	sub	sp, sp, #4
40009590:	e59f304c 	ldr	r3, [pc, #76]	; 400095e4 <do_irq+0x60>
40009594:	e593300c 	ldr	r3, [r3, #12]
40009598:	e1a03b83 	lsl	r3, r3, #23
4000959c:	e1a03ba3 	lsr	r3, r3, #23
400095a0:	e50b3008 	str	r3, [fp, #-8]
400095a4:	e59f003c 	ldr	r0, [pc, #60]	; 400095e8 <do_irq+0x64>
400095a8:	ebffff4b 	bl	400092dc <printf>
400095ac:	e59f3038 	ldr	r3, [pc, #56]	; 400095ec <do_irq+0x68>
400095b0:	e3a02001 	mov	r2, #1
400095b4:	e583200c 	str	r2, [r3, #12]
400095b8:	e59f2024 	ldr	r2, [pc, #36]	; 400095e4 <do_irq+0x60>
400095bc:	e59f3020 	ldr	r3, [pc, #32]	; 400095e4 <do_irq+0x60>
400095c0:	e5933010 	ldr	r3, [r3, #16]
400095c4:	e3c33f7f 	bic	r3, r3, #508	; 0x1fc
400095c8:	e3c33003 	bic	r3, r3, #3
400095cc:	e51b1008 	ldr	r1, [fp, #-8]
400095d0:	e1833001 	orr	r3, r3, r1
400095d4:	e5823010 	str	r3, [r2, #16]
400095d8:	e24bd004 	sub	sp, fp, #4
400095dc:	e8bd4800 	pop	{fp, lr}
400095e0:	e12fff1e 	bx	lr
400095e4:	10480000 	subne	r0, r8, r0
400095e8:	400097f4 	strdmi	r9, [r0], -r4
400095ec:	10060000 	andne	r0, r6, r0

400095f0 <mydelay_ms>:
400095f0:	e52db004 	push	{fp}		; (str fp, [sp, #-4]!)
400095f4:	e28db000 	add	fp, sp, #0
400095f8:	e24dd00c 	sub	sp, sp, #12
400095fc:	e50b000c 	str	r0, [fp, #-12]
40009600:	ea000012 	b	40009650 <mydelay_ms+0x60>
40009604:	e3a03000 	mov	r3, #0
40009608:	e50b3004 	str	r3, [fp, #-4]
4000960c:	ea00000c 	b	40009644 <mydelay_ms+0x54>
40009610:	e3a03000 	mov	r3, #0
40009614:	e50b3008 	str	r3, [fp, #-8]
40009618:	ea000002 	b	40009628 <mydelay_ms+0x38>
4000961c:	e51b3008 	ldr	r3, [fp, #-8]
40009620:	e2833001 	add	r3, r3, #1
40009624:	e50b3008 	str	r3, [fp, #-8]
40009628:	e51b2008 	ldr	r2, [fp, #-8]
4000962c:	e59f3050 	ldr	r3, [pc, #80]	; 40009684 <mydelay_ms+0x94>
40009630:	e1520003 	cmp	r2, r3
40009634:	dafffff8 	ble	4000961c <mydelay_ms+0x2c>
40009638:	e51b3004 	ldr	r3, [fp, #-4]
4000963c:	e2833001 	add	r3, r3, #1
40009640:	e50b3004 	str	r3, [fp, #-4]
40009644:	e51b3004 	ldr	r3, [fp, #-4]
40009648:	e3530004 	cmp	r3, #4
4000964c:	daffffef 	ble	40009610 <mydelay_ms+0x20>
40009650:	e51b300c 	ldr	r3, [fp, #-12]
40009654:	e3530000 	cmp	r3, #0
40009658:	03a03000 	moveq	r3, #0
4000965c:	13a03001 	movne	r3, #1
40009660:	e20330ff 	and	r3, r3, #255	; 0xff
40009664:	e51b200c 	ldr	r2, [fp, #-12]
40009668:	e2422001 	sub	r2, r2, #1
4000966c:	e50b200c 	str	r2, [fp, #-12]
40009670:	e3530000 	cmp	r3, #0
40009674:	1affffe2 	bne	40009604 <mydelay_ms+0x14>
40009678:	e28bd000 	add	sp, fp, #0
4000967c:	e8bd0800 	pop	{fp}
40009680:	e12fff1e 	bx	lr
40009684:	00000201 	andeq	r0, r0, r1, lsl #4

40009688 <wdt_init>:
40009688:	e52db004 	push	{fp}		; (str fp, [sp, #-4]!)
4000968c:	e28db000 	add	fp, sp, #0
40009690:	e59f301c 	ldr	r3, [pc, #28]	; 400096b4 <wdt_init+0x2c>
40009694:	e59f201c 	ldr	r2, [pc, #28]	; 400096b8 <wdt_init+0x30>
40009698:	e5832008 	str	r2, [r3, #8]
4000969c:	e59f3010 	ldr	r3, [pc, #16]	; 400096b4 <wdt_init+0x2c>
400096a0:	e59f2014 	ldr	r2, [pc, #20]	; 400096bc <wdt_init+0x34>
400096a4:	e5832000 	str	r2, [r3]
400096a8:	e28bd000 	add	sp, fp, #0
400096ac:	e8bd0800 	pop	{fp}
400096b0:	e12fff1e 	bx	lr
400096b4:	10060000 	andne	r0, r6, r0
400096b8:	00002014 	andeq	r2, r0, r4, lsl r0
400096bc:	0000ff3c 	andeq	pc, r0, ip, lsr pc	; <UNPREDICTABLE>

400096c0 <main>:
400096c0:	e92d4800 	push	{fp, lr}
400096c4:	e28db004 	add	fp, sp, #4
400096c8:	e59f30b0 	ldr	r3, [pc, #176]	; 40009780 <main+0xc0>
400096cc:	e3a02201 	mov	r2, #268435456	; 0x10000000
400096d0:	e5832000 	str	r2, [r3]
400096d4:	ebffff16 	bl	40009334 <uart_init>
400096d8:	e59f30a4 	ldr	r3, [pc, #164]	; 40009784 <main+0xc4>
400096dc:	e59f20a0 	ldr	r2, [pc, #160]	; 40009784 <main+0xc4>
400096e0:	e5922008 	ldr	r2, [r2, #8]
400096e4:	e3822b02 	orr	r2, r2, #2048	; 0x800
400096e8:	e5832008 	str	r2, [r3, #8]
400096ec:	e59f3094 	ldr	r3, [pc, #148]	; 40009788 <main+0xc8>
400096f0:	e59f2090 	ldr	r2, [pc, #144]	; 40009788 <main+0xc8>
400096f4:	e5922000 	ldr	r2, [r2]
400096f8:	e3822001 	orr	r2, r2, #1
400096fc:	e5832000 	str	r2, [r3]
40009700:	e59f3080 	ldr	r3, [pc, #128]	; 40009788 <main+0xc8>
40009704:	e3a020ff 	mov	r2, #255	; 0xff
40009708:	e5832004 	str	r2, [r3, #4]
4000970c:	e59f3078 	ldr	r3, [pc, #120]	; 4000978c <main+0xcc>
40009710:	e3a02001 	mov	r2, #1
40009714:	e5832000 	str	r2, [r3]
40009718:	e59f3070 	ldr	r3, [pc, #112]	; 40009790 <main+0xd0>
4000971c:	e59f206c 	ldr	r2, [pc, #108]	; 40009790 <main+0xd0>
40009720:	e5922048 	ldr	r2, [r2, #72]	; 0x48
40009724:	e3c224ff 	bic	r2, r2, #-16777216	; 0xff000000
40009728:	e3822401 	orr	r2, r2, #16777216	; 0x1000000
4000972c:	e5832048 	str	r2, [r3, #72]	; 0x48
40009730:	ebffffd4 	bl	40009688 <wdt_init>
40009734:	e59f0058 	ldr	r0, [pc, #88]	; 40009794 <main+0xd4>
40009738:	ebfffee7 	bl	400092dc <printf>
4000973c:	e59f303c 	ldr	r3, [pc, #60]	; 40009780 <main+0xc0>
40009740:	e59f2038 	ldr	r2, [pc, #56]	; 40009780 <main+0xc0>
40009744:	e5922004 	ldr	r2, [r2, #4]
40009748:	e3822080 	orr	r2, r2, #128	; 0x80
4000974c:	e5832004 	str	r2, [r3, #4]
40009750:	e3a000c8 	mov	r0, #200	; 0xc8
40009754:	ebffffa5 	bl	400095f0 <mydelay_ms>
40009758:	e59f0038 	ldr	r0, [pc, #56]	; 40009798 <main+0xd8>
4000975c:	ebfffede 	bl	400092dc <printf>
40009760:	e59f3018 	ldr	r3, [pc, #24]	; 40009780 <main+0xc0>
40009764:	e59f2014 	ldr	r2, [pc, #20]	; 40009780 <main+0xc0>
40009768:	e5922004 	ldr	r2, [r2, #4]
4000976c:	e3c22080 	bic	r2, r2, #128	; 0x80
40009770:	e5832004 	str	r2, [r3, #4]
40009774:	e3a000c8 	mov	r0, #200	; 0xc8
40009778:	ebffff9c 	bl	400095f0 <mydelay_ms>
4000977c:	eaffffee 	b	4000973c <main+0x7c>
40009780:	11000c40 	tstne	r0, r0, asr #24
40009784:	10490100 	subne	r0, r9, r0, lsl #2
40009788:	10480000 	subne	r0, r8, r0
4000978c:	10490000 	subne	r0, r9, r0
40009790:	10490800 	subne	r0, r9, r0, lsl #16
40009794:	40009820 	andmi	r9, r0, r0, lsr #16
40009798:	40009858 	andmi	r9, r0, r8, asr r8

Disassembly of section .rodata:

4000979c <.rodata>:
4000979c:	33323130 	teqcc	r2, #12
400097a0:	37363534 			; <UNDEFINED> instruction: 0x37363534
400097a4:	62613938 	rsbvs	r3, r1, #917504	; 0xe0000
400097a8:	66656463 	strbtvs	r6, [r5], -r3, ror #8
400097ac:	6a696867 	bvs	41a63950 <_ctype+0x1a598ec>
400097b0:	6e6d6c6b 	cdpvs	12, 6, cr6, cr13, cr11, {3}
400097b4:	7271706f 	rsbsvc	r7, r1, #111	; 0x6f
400097b8:	76757473 			; <UNDEFINED> instruction: 0x76757473
400097bc:	7a797877 	bvc	41e679a0 <_ctype+0x1e5d93c>
400097c0:	00000000 	andeq	r0, r0, r0
400097c4:	33323130 	teqcc	r2, #12
400097c8:	37363534 			; <UNDEFINED> instruction: 0x37363534
400097cc:	42413938 	submi	r3, r1, #917504	; 0xe0000
400097d0:	46454443 	strbmi	r4, [r5], -r3, asr #8
400097d4:	4a494847 	bmi	4125b8f8 <_ctype+0x1251894>
400097d8:	4e4d4c4b 	cdpmi	12, 4, cr4, cr13, cr11, {2}
400097dc:	5251504f 	subspl	r5, r1, #79	; 0x4f
400097e0:	56555453 			; <UNDEFINED> instruction: 0x56555453
400097e4:	5a595857 	bpl	4165f948 <_ctype+0x16558e4>
400097e8:	00000000 	andeq	r0, r0, r0
400097ec:	4c554e3c 	mrrcmi	14, 3, r4, r5, cr12
400097f0:	00003e4c 	andeq	r3, r0, ip, asr #28
400097f4:	2a2a200a 	bcs	40a91824 <_ctype+0xa877c0>
400097f8:	2a2a2a2a 	bcs	40a940a8 <_ctype+0xa8a044>
400097fc:	5452202a 	ldrbpl	r2, [r2], #-42	; 0x2a
40009800:	4c415f43 	mcrrmi	15, 4, r5, r1, cr3
40009804:	204d5241 	subcs	r5, sp, r1, asr #4
40009808:	746e6920 	strbtvc	r6, [lr], #-2336	; 0x920
4000980c:	75727265 	ldrbvc	r7, [r2, #-613]!	; 0x265
40009810:	21207470 	teqcs	r0, r0, ror r4
40009814:	2a2a2a21 	bcs	40a940a0 <_ctype+0xa8a03c>
40009818:	2a2a2a2a 	bcs	40a940c8 <_ctype+0xa8a064>
4000981c:	00000a2a 	andeq	r0, r0, sl, lsr #20
40009820:	2a2a2a0a 	bcs	40a94050 <_ctype+0xa89fec>
40009824:	2a2a2a2a 	bcs	40a940d4 <_ctype+0xa8a070>
40009828:	2a2a2a2a 	bcs	40a940d8 <_ctype+0xa8a074>
4000982c:	2a2a2a2a 	bcs	40a940dc <_ctype+0xa8a078>
40009830:	5444572a 	strbpl	r5, [r4], #-1834	; 0x72a
40009834:	746e4920 	strbtvc	r4, [lr], #-2336	; 0x920
40009838:	75727265 	ldrbvc	r7, [r2, #-613]!	; 0x265
4000983c:	74207470 	strtvc	r7, [r0], #-1136	; 0x470
40009840:	21747365 	cmncs	r4, r5, ror #6
40009844:	2a2a2a21 	bcs	40a940d0 <_ctype+0xa8a06c>
40009848:	2a2a2a2a 	bcs	40a940f8 <_ctype+0xa8a094>
4000984c:	2a2a2a2a 	bcs	40a940fc <_ctype+0xa8a098>
40009850:	2a2a2a2a 	bcs	40a94100 <_ctype+0xa8a09c>
40009854:	0000000a 	andeq	r0, r0, sl
40009858:	6b726f77 	blvs	41ca563c <_ctype+0x1c9b5d8>
4000985c:	2e676e69 	cdpcs	14, 6, cr6, cr7, cr9, {3}
40009860:	000a2e2e 	andeq	r2, sl, lr, lsr #28

Disassembly of section .data:

40009864 <stack>:
	...

4000a064 <_ctype>:
4000a064:	08080808 	stmdaeq	r8, {r3, fp}
4000a068:	08080808 	stmdaeq	r8, {r3, fp}
4000a06c:	28282808 	stmdacs	r8!, {r3, fp, sp}
4000a070:	08082828 	stmdaeq	r8, {r3, r5, fp, sp}
4000a074:	08080808 	stmdaeq	r8, {r3, fp}
4000a078:	08080808 	stmdaeq	r8, {r3, fp}
4000a07c:	08080808 	stmdaeq	r8, {r3, fp}
4000a080:	08080808 	stmdaeq	r8, {r3, fp}
4000a084:	101010a0 	andsne	r1, r0, r0, lsr #1
4000a088:	10101010 	andsne	r1, r0, r0, lsl r0
4000a08c:	10101010 	andsne	r1, r0, r0, lsl r0
4000a090:	10101010 	andsne	r1, r0, r0, lsl r0
4000a094:	04040404 	streq	r0, [r4], #-1028	; 0x404
4000a098:	04040404 	streq	r0, [r4], #-1028	; 0x404
4000a09c:	10100404 	andsne	r0, r0, r4, lsl #8
4000a0a0:	10101010 	andsne	r1, r0, r0, lsl r0
4000a0a4:	41414110 	cmpmi	r1, r0, lsl r1
4000a0a8:	01414141 	cmpeq	r1, r1, asr #2
4000a0ac:	01010101 	tsteq	r1, r1, lsl #2
4000a0b0:	01010101 	tsteq	r1, r1, lsl #2
4000a0b4:	01010101 	tsteq	r1, r1, lsl #2
4000a0b8:	01010101 	tsteq	r1, r1, lsl #2
4000a0bc:	10010101 	andne	r0, r1, r1, lsl #2
4000a0c0:	10101010 	andsne	r1, r0, r0, lsl r0
4000a0c4:	42424210 	submi	r4, r2, #1
4000a0c8:	02424242 	subeq	r4, r2, #536870916	; 0x20000004
4000a0cc:	02020202 	andeq	r0, r2, #536870912	; 0x20000000
4000a0d0:	02020202 	andeq	r0, r2, #536870912	; 0x20000000
4000a0d4:	02020202 	andeq	r0, r2, #536870912	; 0x20000000
4000a0d8:	02020202 	andeq	r0, r2, #536870912	; 0x20000000
4000a0dc:	10020202 	andne	r0, r2, r2, lsl #4
4000a0e0:	08101010 	ldmdaeq	r0, {r4, ip}
	...
4000a104:	101010a0 	andsne	r1, r0, r0, lsr #1
4000a108:	10101010 	andsne	r1, r0, r0, lsl r0
4000a10c:	10101010 	andsne	r1, r0, r0, lsl r0
4000a110:	10101010 	andsne	r1, r0, r0, lsl r0
4000a114:	10101010 	andsne	r1, r0, r0, lsl r0
4000a118:	10101010 	andsne	r1, r0, r0, lsl r0
4000a11c:	10101010 	andsne	r1, r0, r0, lsl r0
4000a120:	10101010 	andsne	r1, r0, r0, lsl r0
4000a124:	01010101 	tsteq	r1, r1, lsl #2
4000a128:	01010101 	tsteq	r1, r1, lsl #2
4000a12c:	01010101 	tsteq	r1, r1, lsl #2
4000a130:	01010101 	tsteq	r1, r1, lsl #2
4000a134:	01010101 	tsteq	r1, r1, lsl #2
4000a138:	10010101 	andne	r0, r1, r1, lsl #2
4000a13c:	01010101 	tsteq	r1, r1, lsl #2
4000a140:	02010101 	andeq	r0, r1, #1073741824	; 0x40000000
4000a144:	02020202 	andeq	r0, r2, #536870912	; 0x20000000
4000a148:	02020202 	andeq	r0, r2, #536870912	; 0x20000000
4000a14c:	02020202 	andeq	r0, r2, #536870912	; 0x20000000
4000a150:	02020202 	andeq	r0, r2, #536870912	; 0x20000000
4000a154:	02020202 	andeq	r0, r2, #536870912	; 0x20000000
4000a158:	10020202 	andne	r0, r2, r2, lsl #4
4000a15c:	02020202 	andeq	r0, r2, #536870912	; 0x20000000
4000a160:	02020202 	andeq	r0, r2, #536870912	; 0x20000000

Disassembly of section .ARM.attributes:

00000000 <.ARM.attributes>:
   0:	00000f41 	andeq	r0, r0, r1, asr #30
   4:	61656100 	cmnvs	r5, r0, lsl #2
   8:	01006962 	tsteq	r0, r2, ror #18
   c:	00000005 	andeq	r0, r0, r5

Disassembly of section .comment:

00000000 <.comment>:
   0:	3a434347 	bcc	10d0d24 <_start-0x3ef372dc>
   4:	4e472820 	cdpmi	8, 4, cr2, cr7, cr0, {1}
   8:	34202955 	strtcc	r2, [r0], #-2389	; 0x955
   c:	322e362e 	eorcc	r3, lr, #48234496	; 0x2e00000
	...

Disassembly of section .debug_line:

00000000 <.debug_line>:
   0:	00000079 	andeq	r0, r0, r9, ror r0
   4:	00240002 	eoreq	r0, r4, r2
   8:	01020000 	mrseq	r0, (UNDEF: 2)
   c:	000d0efb 	strdeq	r0, [sp], -fp
  10:	01010101 	tsteq	r1, r1, lsl #2
  14:	01000000 	mrseq	r0, (UNDEF: 0)
  18:	73010000 	movwvc	r0, #4096	; 0x1000
  1c:	74726174 	ldrbtvc	r6, [r2], #-372	; 0x174
  20:	74730000 	ldrbtvc	r0, [r3]
  24:	2e747261 	cdpcs	2, 7, cr7, cr4, cr1, {3}
  28:	00010053 	andeq	r0, r1, r3, asr r0
  2c:	05000000 	streq	r0, [r0]
  30:	00800002 	addeq	r0, r0, r2
  34:	2f2f1540 	svccs	0x002f1540
  38:	2f2f2f2f 	svccs	0x002f2f2f
  3c:	f20d032f 	vcgt.s8	d0, d13, d31
  40:	2f2f302f 	svccs	0x002f302f
  44:	342f302f 	strtcc	r3, [pc], #-47	; 4c <_start-0x40007fb4>
  48:	2f322f2f 	svccs	0x00322f2f
  4c:	2f2f2f33 	svccs	0x002f2f33
  50:	322f2f2f 	eorcc	r2, pc, #188	; 0xbc
  54:	2f2f2f2f 	svccs	0x002f2f2f
  58:	2f2f2f30 	svccs	0x002f2f30
  5c:	2f2f2f30 	svccs	0x002f2f30
  60:	302f3131 	eorcc	r3, pc, r1, lsr r1	; <UNPREDICTABLE>
  64:	2f302f2f 	svccs	0x00302f2f
  68:	2f2f302f 	svccs	0x002f302f
  6c:	302f2f30 	eorcc	r2, pc, r0, lsr pc	; <UNPREDICTABLE>
  70:	0a03302f 	beq	cc134 <_start-0x3ff3becc>
  74:	2f2f2f66 	svccs	0x002f2f66
  78:	01000c02 	tsteq	r0, r2, lsl #24
  7c:	00025301 	andeq	r5, r2, r1, lsl #6
  80:	52000200 	andpl	r0, r0, #0
  84:	02000000 	andeq	r0, r0, #0
  88:	0d0efb01 	vstreq	d15, [lr, #-4]
  8c:	01010100 	mrseq	r0, (UNDEF: 17)
  90:	00000001 	andeq	r0, r0, r1
  94:	01000001 	tsteq	r0, r1
  98:	6f632f2e 	svcvs	0x00632f2e
  9c:	6e6f6d6d 	cdpvs	13, 6, cr6, cr15, cr13, {3}
  a0:	636e692f 	cmnvs	lr, #770048	; 0xbc000
  a4:	6564756c 	strbvs	r7, [r4, #-1388]!	; 0x56c
  a8:	6d6f6300 	stclvs	3, cr6, [pc]	; b0 <_start-0x40007f50>
  ac:	2f6e6f6d 	svccs	0x006e6f6d
  b0:	00637273 	rsbeq	r7, r3, r3, ror r2
  b4:	79746300 	ldmdbvc	r4!, {r8, r9, sp, lr}^
  b8:	682e6570 	stmdavs	lr!, {r4, r5, r6, r8, sl, sp, lr}
  bc:	00000100 	andeq	r0, r0, r0, lsl #2
  c0:	6e697270 	mcrvs	2, 3, r7, cr9, cr0, {3}
  c4:	632e6674 	teqvs	lr, #121634816	; 0x7400000
  c8:	00000200 	andeq	r0, r0, r0, lsl #4
  cc:	61647473 	smcvs	18243	; 0x4743
  d0:	682e6772 	stmdavs	lr!, {r1, r4, r5, r6, r8, r9, sl, sp, lr}
  d4:	00000100 	andeq	r0, r0, r0, lsl #2
  d8:	02050000 	andeq	r0, r5, #0
  dc:	40008140 	andmi	r8, r0, r0, asr #2
  e0:	0100c403 	tsteq	r0, r3, lsl #8
  e4:	2f67bb9f 	svccs	0x0067bb9f
  e8:	bf030204 	svclt	0x00030204
  ec:	4cbb9e7f 	ldcmi	14, cr9, [fp], #508	; 0x1fc
  f0:	02006783 	andeq	r6, r0, #34340864	; 0x20c0000
  f4:	82060104 	andhi	r0, r6, #1
  f8:	684bf306 	stmdavs	fp, {r1, r2, r8, r9, ip, sp, lr, pc}^
  fc:	4c674d67 	stclmi	13, cr4, [r7], #-412	; 0xfffffe64
 100:	007fbb30 	rsbseq	fp, pc, r0, lsr fp	; <UNPREDICTABLE>
 104:	06010402 	streq	r0, [r1], -r2, lsl #8
 108:	0402002e 	streq	r0, [r2], #-46	; 0x2e
 10c:	0200d602 	andeq	sp, r0, #2097152	; 0x200000
 110:	00d60104 	sbcseq	r0, r6, r4, lsl #2
 114:	82020402 	andhi	r0, r2, #33554432	; 0x2000000
 118:	0200d706 	andeq	sp, r0, #1572864	; 0x180000
 11c:	d6060304 	strle	r0, [r6], -r4, lsl #6
 120:	05040200 	streq	r0, [r4, #-512]	; 0x200
 124:	67a36506 	strvs	r6, [r3, r6, lsl #10]!
 128:	bba12f67 	bllt	fe84becc <_ctype+0xbe841e68>
 12c:	9f210883 	svcls	0x00210883
 130:	83822403 	orrhi	r2, r2, #50331648	; 0x3000000
 134:	02002f4c 	andeq	r2, r0, #304	; 0x130
 138:	c7080104 	strgt	r0, [r8, -r4, lsl #2]
 13c:	02040200 	andeq	r0, r4, #0
 140:	a0069e06 	andge	r9, r6, r6, lsl #28
 144:	8220032f 	eorhi	r0, r0, #-1140850688	; 0xbc000000
 148:	4b834dd8 	blmi	fe0d38b0 <_ctype+0xbe0c984c>
 14c:	02006783 	andeq	r6, r0, #34340864	; 0x20c0000
 150:	66060104 	strvs	r0, [r6], -r4, lsl #2
 154:	004b6706 	subeq	r6, fp, r6, lsl #14
 158:	06010402 	streq	r0, [r1], -r2, lsl #8
 15c:	0402009e 	streq	r0, [r2], #-158	; 0x9e
 160:	02004a02 	andeq	r4, r0, #8192	; 0x2000
 164:	002e0304 	eoreq	r0, lr, r4, lsl #6
 168:	06030402 	streq	r0, [r3], -r2, lsl #8
 16c:	0402002f 	streq	r0, [r2], #-47	; 0x2f
 170:	67834b03 	strvs	r4, [r3, r3, lsl #22]
 174:	8383674b 	orrhi	r6, r3, #19660800	; 0x12c0000
 178:	4b83834b 	blmi	fe0e0eac <_ctype+0xbe0d6e48>
 17c:	83678369 	cmnhi	r7, #-1543503871	; 0xa4000001
 180:	674b6867 	strbvs	r6, [fp, -r7, ror #16]
 184:	00835a08 	addeq	r5, r3, r8, lsl #20
 188:	02010402 	andeq	r0, r1, #33554432	; 0x2000000
 18c:	4b691032 	blmi	1a4425c <_start-0x3e5c3da4>
 190:	002f8383 	eoreq	r8, pc, r3, lsl #7
 194:	b9010402 	stmdblt	r1, {r1, sl}
 198:	bb673e08 	bllt	19cf9c0 <_start-0x3e638640>
 19c:	67d76783 	ldrbvs	r6, [r7, r3, lsl #15]
 1a0:	2f83d9bb 	svccs	0x0083d9bb
 1a4:	01040200 	mrseq	r0, R12_usr
 1a8:	2f3e08b9 	svccs	0x003e08b9
 1ac:	040200d5 	streq	r0, [r2], #-213	; 0xd5
 1b0:	062e0601 	strteq	r0, [lr], -r1, lsl #12
 1b4:	002f5a08 	eoreq	r5, pc, r8, lsl #20
 1b8:	08010402 	stmdaeq	r1, {r1, sl}
 1bc:	2f3e0857 	svccs	0x003e0857
 1c0:	01040200 	mrseq	r0, R12_usr
 1c4:	2f3e08b9 	svccs	0x003e08b9
 1c8:	0200a1bf 	andeq	sl, r0, #-1073741777	; 0xc000002f
 1cc:	66060104 	strvs	r0, [r6], -r4, lsl #2
 1d0:	02040200 	andeq	r0, r4, #0
 1d4:	84069008 	strhi	r9, [r6], #-8
 1d8:	12038467 	andne	r8, r3, #1728053248	; 0x67000000
 1dc:	d78367ba 			; <UNDEFINED> instruction: 0xd78367ba
 1e0:	02674c32 	rsbeq	r4, r7, #12800	; 0x3200
 1e4:	8383132e 	orrhi	r1, r3, #-1207959552	; 0xb8000000
 1e8:	4b868383 	blmi	fe1a0ffc <_ctype+0xbe196f98>
 1ec:	01040200 	mrseq	r0, R12_usr
 1f0:	83068206 	movwhi	r8, #25094	; 0x6206
 1f4:	9f68839f 	svcls	0x0068839f
 1f8:	4b6b6767 	blmi	1ad9f9c <_start-0x3e52e064>
 1fc:	02006783 	andeq	r6, r0, #34340864	; 0x20c0000
 200:	82060104 	andhi	r0, r6, #1
 204:	839f8306 	orrshi	r8, pc, #402653184	; 0x18000000
 208:	4e67a068 	cdpmi	0, 6, cr10, cr7, cr8, {3}
 20c:	0402004b 	streq	r0, [r2], #-75	; 0x4b
 210:	00820601 	addeq	r0, r2, r1, lsl #12
 214:	06010402 	streq	r0, [r1], -r2, lsl #8
 218:	040200f3 	streq	r0, [r2], #-243	; 0xf3
 21c:	004b4901 	subeq	r4, fp, r1, lsl #18
 220:	06010402 	streq	r0, [r1], -r2, lsl #8
 224:	04020082 	streq	r0, [r2], #-130	; 0x82
 228:	00830601 	addeq	r0, r3, r1, lsl #12
 22c:	49010402 	stmdbmi	r1, {r1, sl}
 230:	0200674c 	andeq	r6, r0, #19922944	; 0x1300000
 234:	66060104 	strvs	r0, [r6], -r4, lsl #2
 238:	684b9f06 	stmdavs	fp, {r1, r2, r8, r9, sl, fp, ip, pc}^
 23c:	b4024c6a 	strlt	r4, [r2], #-3178	; 0xc6a
 240:	2f831401 	svccs	0x00831401
 244:	01040200 	mrseq	r0, R12_usr
 248:	3d08bcb9 	stccc	12, cr11, [r8, #-740]	; 0xfffffd1c
 24c:	0402002f 	streq	r0, [r2], #-47	; 0x2f
 250:	31bcb901 			; <UNDEFINED> instruction: 0x31bcb901
 254:	bc4c679f 	mcrrlt	7, 9, r6, ip, cr15
 258:	02002f83 	andeq	r2, r0, #524	; 0x20c
 25c:	08b90104 	ldmeq	r9!, {r2, r8}
 260:	0402005a 	streq	r0, [r2], #-90	; 0x5a
 264:	02006702 	andeq	r6, r0, #524288	; 0x80000
 268:	3b080204 	blcc	200a80 <_start-0x3fe07580>
 26c:	01040200 	mrseq	r0, R12_usr
 270:	84066606 	strhi	r6, [r6], #-1542	; 0x606
 274:	0402002f 	streq	r0, [r2], #-47	; 0x2f
 278:	5a08b901 	bpl	22e684 <_start-0x3fdd997c>
 27c:	694b6731 	stmdbvs	fp, {r0, r4, r5, r8, r9, sl, sp, lr}^
 280:	323f0881 	eorscc	r0, pc, #8454144	; 0x810000
 284:	2ba39f67 	blcs	fe8e8028 <_ctype+0xbe8ddfc4>
 288:	bb31a09f 	bllt	c6850c <_start-0x3f39faf4>
 28c:	68314b32 	ldmdavs	r1!, {r1, r4, r5, r8, r9, fp, lr}
 290:	3168324b 	cmncc	r8, fp, asr #4
 294:	2dd983bb 	ldclcs	3, cr8, [r9, #748]	; 0x2ec
 298:	2e780367 	cdpcs	3, 7, cr0, cr8, cr7, {3}
 29c:	672e0f03 	strvs	r0, [lr, -r3, lsl #30]!
 2a0:	040200bb 	streq	r0, [r2], #-187	; 0xbb
 2a4:	06660601 	strbteq	r0, [r6], -r1, lsl #12
 2a8:	bb67bb67 	bllt	19ef04c <_start-0x3e618fb4>
 2ac:	d783d767 	strle	sp, [r3, r7, ror #14]
 2b0:	039fbc83 	orrseq	fp, pc, #33536	; 0x8300
 2b4:	74087ee2 	strvc	r7, [r8], #-3810	; 0xee2
 2b8:	01040200 	mrseq	r0, R12_usr
 2bc:	03066606 	movweq	r6, #26118	; 0x6606
 2c0:	678201a0 	strvs	r0, [r2, r0, lsr #3]
 2c4:	67a2a167 	strvs	sl, [r2, r7, ror #2]!
 2c8:	86a12fbc 			; <UNDEFINED> instruction: 0x86a12fbc
 2cc:	0267f46b 	rsbeq	pc, r7, #1795162112	; 0x6b000000
 2d0:	01010008 	tsteq	r1, r8
 2d4:	00000079 	andeq	r0, r0, r9, ror r0
 2d8:	004a0002 	subeq	r0, sl, r2
 2dc:	01020000 	mrseq	r0, (UNDEF: 2)
 2e0:	000d0efb 	strdeq	r0, [sp], -fp
 2e4:	01010101 	tsteq	r1, r1, lsl #2
 2e8:	01000000 	mrseq	r0, (UNDEF: 0)
 2ec:	63010000 	movwvs	r0, #4096	; 0x1000
 2f0:	6f6d6d6f 	svcvs	0x006d6d6f
 2f4:	72732f6e 	rsbsvc	r2, r3, #440	; 0x1b8
 2f8:	2f2e0063 	svccs	0x002e0063
 2fc:	6d6d6f63 	stclvs	15, cr6, [sp, #-396]!	; 0xfffffe74
 300:	692f6e6f 	stmdbvs	pc!, {r0, r1, r2, r3, r5, r6, r9, sl, fp, sp, lr}	; <UNPREDICTABLE>
 304:	756c636e 	strbvc	r6, [ip, #-878]!	; 0x36e
 308:	00006564 	andeq	r6, r0, r4, ror #10
 30c:	74726175 	ldrbtvc	r6, [r2], #-373	; 0x175
 310:	0100632e 	tsteq	r0, lr, lsr #6
 314:	78650000 	stmdavc	r5!, {}^	; <UNPREDICTABLE>
 318:	736f6e79 	cmnvc	pc, #1936	; 0x790
 31c:	3134345f 	teqcc	r4, pc, asr r4
 320:	00682e32 	rsbeq	r2, r8, r2, lsr lr
 324:	00000002 	andeq	r0, r0, r2
 328:	34020500 	strcc	r0, [r2], #-1280	; 0x500
 32c:	15400093 	strbne	r0, [r0, #-147]	; 0x93
 330:	6867bc4d 	stmdavs	r7!, {r0, r2, r3, r6, sl, fp, ip, sp, pc}^
 334:	9fa16767 	svcls	0x00a16767
 338:	01040200 	mrseq	r0, R12_usr
 33c:	9f062e06 	svcls	0x00062e06
 340:	844b6767 	strbhi	r6, [fp], #-1895	; 0x767
 344:	02002f83 	andeq	r2, r0, #524	; 0x20c
 348:	84d50104 	ldrbhi	r0, [r5], #260	; 0x104
 34c:	01000602 	tsteq	r0, r2, lsl #12
 350:	00006501 	andeq	r6, r0, r1, lsl #10
 354:	2c000200 	sfmcs	f0, 4, [r0], {0}
 358:	02000000 	andeq	r0, r0, #0
 35c:	0d0efb01 	vstreq	d15, [lr, #-4]
 360:	01010100 	mrseq	r0, (UNDEF: 17)
 364:	00000001 	andeq	r0, r0, r1
 368:	01000001 	tsteq	r0, r1
 36c:	6d6d6f63 	stclvs	15, cr6, [sp, #-396]!	; 0xfffffe74
 370:	732f6e6f 	teqvc	pc, #1776	; 0x6f0
 374:	00006372 	andeq	r6, r0, r2, ror r3
 378:	6964755f 	stmdbvs	r4!, {r0, r1, r2, r3, r4, r6, r8, sl, ip, sp, lr}^
 37c:	33697376 	cmncc	r9, #-671088639	; 0xd8000001
 380:	0100532e 	tsteq	r0, lr, lsr #6
 384:	00000000 	andeq	r0, r0, r0
 388:	94400205 	strbls	r0, [r0], #-517	; 0x205
 38c:	11034000 	mrsne	r4, (UNDEF: 3)
 390:	2f2f2f01 	svccs	0x002f2f01
 394:	2f342f2f 	svccs	0x00342f2f
 398:	322f2f2f 	eorcc	r2, pc, #188	; 0xbc
 39c:	2f2f2f2f 	svccs	0x002f2f2f
 3a0:	2f2f2f34 	svccs	0x002f2f34
 3a4:	2f2f2f2f 	svccs	0x002f2f2f
 3a8:	2f2f2f2f 	svccs	0x002f2f2f
 3ac:	2f2f2f2f 	svccs	0x002f2f2f
 3b0:	30302f30 	eorscc	r2, r0, r0, lsr pc
 3b4:	0002022f 	andeq	r0, r2, pc, lsr #4
 3b8:	006c0101 	rsbeq	r0, ip, r1, lsl #2
 3bc:	00020000 	andeq	r0, r2, r0
 3c0:	0000002c 	andeq	r0, r0, ip, lsr #32
 3c4:	0efb0102 	cdpeq	1, 15, cr0, cr11, cr2, {0}
 3c8:	0101000d 	tsteq	r1, sp
 3cc:	00000101 	andeq	r0, r0, r1, lsl #2
 3d0:	00000100 	andeq	r0, r0, r0, lsl #2
 3d4:	6d6f6301 	stclvs	3, cr6, [pc, #-4]!	; 3d8 <_start-0x40007c28>
 3d8:	2f6e6f6d 	svccs	0x006e6f6d
 3dc:	00637273 	rsbeq	r7, r3, r3, ror r2
 3e0:	6d755f00 	ldclvs	15, cr5, [r5]
 3e4:	6973646f 	ldmdbvs	r3!, {r0, r1, r2, r3, r5, r6, sl, sp, lr}^
 3e8:	00532e33 	subseq	r2, r3, r3, lsr lr
 3ec:	00000001 	andeq	r0, r0, r1
 3f0:	d4020500 	strle	r0, [r2], #-1280	; 0x500
 3f4:	03400094 	movteq	r0, #148	; 0x94
 3f8:	2f2f0112 	svccs	0x002f0112
 3fc:	2f342f2f 	svccs	0x00342f2f
 400:	322f2f2f 	eorcc	r2, pc, #188	; 0xbc
 404:	2f2f2f2f 	svccs	0x002f2f2f
 408:	2f2f2f33 	svccs	0x002f2f33
 40c:	2f2f2f2f 	svccs	0x002f2f2f
 410:	2f2f2f2f 	svccs	0x002f2f2f
 414:	2f2f2f2f 	svccs	0x002f2f2f
 418:	2f2f352f 	svccs	0x002f352f
 41c:	2f2f2f2f 	svccs	0x002f2f2f
 420:	30302f2f 	eorscc	r2, r0, pc, lsr #30
 424:	0002022f 	andeq	r0, r2, pc, lsr #4
 428:	00a60101 	adceq	r0, r6, r1, lsl #2
 42c:	00020000 	andeq	r0, r2, r0
 430:	0000003f 	andeq	r0, r0, pc, lsr r0
 434:	0efb0102 	cdpeq	1, 15, cr0, cr11, cr2, {0}
 438:	0101000d 	tsteq	r1, sp
 43c:	00000101 	andeq	r0, r0, r1, lsl #2
 440:	00000100 	andeq	r0, r0, r0, lsl #2
 444:	632f2e01 	teqvs	pc, #16
 448:	6f6d6d6f 	svcvs	0x006d6d6f
 44c:	6e692f6e 	cdpvs	15, 6, cr2, cr9, cr14, {3}
 450:	64756c63 	ldrbtvs	r6, [r5], #-3171	; 0xc63
 454:	6d000065 	stcvs	0, cr0, [r0, #-404]	; 0xfffffe6c
 458:	2e6e6961 	cdpcs	9, 6, cr6, cr14, cr1, {3}
 45c:	00000063 	andeq	r0, r0, r3, rrx
 460:	79786500 	ldmdbvc	r8!, {r8, sl, sp, lr}^
 464:	5f736f6e 	svcpl	0x00736f6e
 468:	32313434 	eorscc	r3, r1, #872415232	; 0x34000000
 46c:	0100682e 	tsteq	r0, lr, lsr #16
 470:	00000000 	andeq	r0, r0, r0
 474:	95840205 	strls	r0, [r4, #517]	; 0x205
 478:	12034000 	andne	r4, r3, #0
 47c:	4ba06901 	blmi	fe81a888 <_ctype+0xbe810824>
 480:	84c2f468 	strbhi	pc, [r2], #1128	; 0x468	; <UNPREDICTABLE>
 484:	02006730 	andeq	r6, r0, #12582912	; 0xc00000
 488:	66060204 	strvs	r0, [r6], -r4, lsl #4
 48c:	01040200 	mrseq	r0, R12_usr
 490:	00810666 	addeq	r0, r1, r6, ror #12
 494:	06010402 	streq	r0, [r1], -r2, lsl #8
 498:	04020066 	streq	r0, [r2], #-102	; 0x66
 49c:	08640601 	stmdaeq	r4!, {r0, r9, sl}^
 4a0:	6d4b8541 	cfstr64vs	mvdx8, [fp, #-260]	; 0xfffffefc
 4a4:	ba0a0367 	blt	281248 <_start-0x3fd86db8>
 4a8:	a034674b 	eorsge	r6, r4, fp, asr #14
 4ac:	bc6a689f 	stcllt	8, cr6, [sl], #-636	; 0xfffffd84
 4b0:	04020030 	streq	r0, [r2], #-48	; 0x30
 4b4:	02004f01 	andeq	r4, r0, #4
 4b8:	009f0104 	addseq	r0, pc, r4, lsl #2
 4bc:	50010402 	andpl	r0, r1, r2, lsl #8
 4c0:	01040200 	mrseq	r0, R12_usr
 4c4:	0402004c 	streq	r0, [r2], #-76	; 0x4c
 4c8:	02009f01 	andeq	r9, r0, #4
 4cc:	024b0104 	subeq	r0, fp, #1
 4d0:	01010010 	tsteq	r1, r0, lsl r0

Disassembly of section .debug_info:

00000000 <.debug_info>:
   0:	00000071 	andeq	r0, r0, r1, ror r0
   4:	00000002 	andeq	r0, r0, r2
   8:	01040000 	mrseq	r0, (UNDEF: 4)
   c:	00000000 	andeq	r0, r0, r0
  10:	40008000 	andmi	r8, r0, r0
  14:	40008134 	andmi	r8, r0, r4, lsr r1
  18:	72617473 	rsbvc	r7, r1, #1929379840	; 0x73000000
  1c:	74732f74 	ldrbtvc	r2, [r3], #-3956	; 0xf74
  20:	2e747261 	cdpcs	2, 7, cr7, cr4, cr1, {3}
  24:	3a470053 	bcc	11c0178 <_start-0x3ee47e88>
  28:	4d52415c 	ldfmie	f4, [r2, #-368]	; 0xfffffe90
  2c:	4d52415c 	ldfmie	f4, [r2, #-368]	; 0xfffffe90
  30:	3134342d 	teqcc	r4, sp, lsr #8
  34:	39412d32 	stmdbcc	r1, {r1, r4, r5, r8, sl, fp, sp}^
  38:	ccb3cebf 	ldcgt	14, cr12, [r3], #764	; 0x2fc
  3c:	cfc1cad7 	svcgt	0x00c1cad7
  40:	4d52415c 	ldfmie	f4, [r2, #-368]	; 0xfffffe90
  44:	fabbe3c2 	blx	feef8f54 <_ctype+0xbeeeeef0>
  48:	cfc1cad7 	svcgt	0x00c1cad7
  4c:	3453462d 	ldrbcc	r4, [r3], #-1581	; 0x62d
  50:	5c323134 	ldfpls	f3, [r2], #-208	; 0xffffff30
  54:	e9d1b5ca 	ldmib	r1, {r1, r3, r6, r7, r8, sl, ip, sp, pc}^
  58:	ebc2fab4 	bl	ff0beb30 <_ctype+0xbf0b4acc>
  5c:	572e395c 			; <UNDEFINED> instruction: 0x572e395c
  60:	495f5444 	ldmdbmi	pc, {r2, r6, sl, ip, lr}^	; <UNPREDICTABLE>
  64:	4700544e 	strmi	r5, [r0, -lr, asr #8]
  68:	4120554e 	teqmi	r0, lr, asr #10
  6c:	2e322053 	mrccs	0, 1, r2, cr2, cr3, {2}
  70:	01003132 	tsteq	r0, r2, lsr r1
  74:	0004be80 	andeq	fp, r4, r0, lsl #29
  78:	14000200 	strne	r0, [r0], #-512	; 0x200
  7c:	04000000 	streq	r0, [r0]
  80:	0000ae01 	andeq	sl, r0, r1, lsl #28
  84:	00da0100 	sbcseq	r0, sl, r0, lsl #2
  88:	00000000 	andeq	r0, r0, r0
  8c:	81400000 	mrshi	r0, (UNDEF: 64)
  90:	93344000 	teqls	r4, #0
  94:	007d4000 	rsbseq	r4, sp, r0
  98:	82020000 	andhi	r0, r2, #0
  9c:	03000000 	movweq	r0, #0
  a0:	00003028 	andeq	r3, r0, r8, lsr #32
  a4:	41040300 	mrsmi	r0, LR_abt
  a8:	02000000 	andeq	r0, r0, #0
  ac:	00000089 	andeq	r0, r0, r9, lsl #1
  b0:	00256603 	eoreq	r6, r5, r3, lsl #12
  b4:	78040000 	stmdavc	r4, {}	; <UNPREDICTABLE>
  b8:	01000000 	mrseq	r0, (UNDEF: 0)
  bc:	006a0144 	rsbeq	r0, sl, r4, asr #2
  c0:	81400000 	mrshi	r0, (UNDEF: 64)
  c4:	81904000 	orrshi	r4, r0, r0
  c8:	00004000 	andeq	r4, r0, r0
  cc:	006a0000 	rsbeq	r0, sl, r0
  d0:	63050000 	movwvs	r0, #20480	; 0x5000
  d4:	6a440100 	bvs	11004dc <_start-0x3ef07b24>
  d8:	02000000 	andeq	r0, r0, #0
  dc:	06007891 			; <UNDEFINED> instruction: 0x06007891
  e0:	009b0801 	addseq	r0, fp, r1, lsl #16
  e4:	01070000 	mrseq	r0, (UNDEF: 7)
  e8:	00000053 	andeq	r0, r0, r3, asr r0
  ec:	d4010702 	strle	r0, [r1], #-1794	; 0x702
  f0:	90000000 	andls	r0, r0, r0
  f4:	38400081 	stmdacc	r0, {r0, r7}^
  f8:	2c400083 	mcrrcs	0, 8, r0, r0, cr3
  fc:	d4000000 	strle	r0, [r0]
 100:	05000000 	streq	r0, [r0]
 104:	02007063 	andeq	r7, r0, #99	; 0x63
 108:	0000db07 	andeq	sp, r0, r7, lsl #22
 10c:	6c910200 	lfmvs	f0, 4, [r1], {0}
 110:	00011408 	andeq	r1, r1, r8, lsl #8
 114:	ed070200 	sfm	f0, 4, [r7]
 118:	02000000 	andeq	r0, r0, #0
 11c:	a9086891 	stmdbge	r8, {r0, r4, r7, fp, sp, lr}
 120:	02000000 	andeq	r0, r0, #0
 124:	0000f907 	andeq	pc, r0, r7, lsl #18
 128:	64910200 	ldrvs	r0, [r1], #512	; 0x200
 12c:	0000fe09 	andeq	pc, r0, r9, lsl #28
 130:	d4090200 	strle	r0, [r9], #-512	; 0x200
 134:	02000000 	andeq	r0, r0, #0
 138:	62097491 	andvs	r7, r9, #-1862270976	; 0x91000000
 13c:	02000000 	andeq	r0, r0, #0
 140:	0000d409 	andeq	sp, r0, r9, lsl #8
 144:	70910200 	addsvc	r0, r1, r0, lsl #4
 148:	07040600 	streq	r0, [r4, -r0, lsl #12]
 14c:	000000ba 	strheq	r0, [r0], -sl
 150:	00e1040a 	rsceq	r0, r1, sl, lsl #8
 154:	e60b0000 	str	r0, [fp], -r0
 158:	06000000 	streq	r0, [r0], -r0
 15c:	00a40801 	adceq	r0, r4, r1, lsl #16
 160:	040a0000 	streq	r0, [sl]
 164:	000000f3 	strdeq	r0, [r0], -r3
 168:	00e6040a 	rsceq	r0, r6, sl, lsl #8
 16c:	04060000 	streq	r0, [r6]
 170:	0000bf07 	andeq	fp, r0, r7, lsl #30
 174:	cc010700 	stcgt	7, cr0, [r1], {0}
 178:	02000000 	andeq	r0, r0, #0
 17c:	01470122 	cmpeq	r7, r2, lsr #2
 180:	83380000 	teqhi	r8, #0
 184:	83a84000 			; <UNDEFINED> instruction: 0x83a84000
 188:	00584000 	subseq	r4, r8, r0
 18c:	01470000 	mrseq	r0, (UNDEF: 71)
 190:	63050000 	movwvs	r0, #20480	; 0x5000
 194:	22020070 	andcs	r0, r2, #112	; 0x70
 198:	000000db 	ldrdeq	r0, [r0], -fp
 19c:	08749102 	ldmdaeq	r4!, {r1, r8, ip, pc}^
 1a0:	00000114 	andeq	r0, r0, r4, lsl r1
 1a4:	00ed2202 	rsceq	r2, sp, r2, lsl #4
 1a8:	91020000 	mrsls	r0, (UNDEF: 2)
 1ac:	00a90870 	adceq	r0, r9, r0, ror r8
 1b0:	22020000 	andcs	r0, r2, #0
 1b4:	000000f9 	strdeq	r0, [r0], -r9
 1b8:	006c9102 	rsbeq	r9, ip, r2, lsl #2
 1bc:	4b050406 	blmi	1411dc <_start-0x3fec6e24>
 1c0:	04000001 	streq	r0, [r0], #-1
 1c4:	0000006e 	andeq	r0, r0, lr, rrx
 1c8:	83014a02 	movwhi	r4, #6658	; 0x1a02
 1cc:	a8000001 	stmdage	r0, {r0}
 1d0:	3c400083 	mcrrcc	0, 8, r0, r0, cr3
 1d4:	84400084 	strbhi	r0, [r0], #-132	; 0x84
 1d8:	83000000 	movwhi	r0, #0
 1dc:	05000001 	streq	r0, [r0, #-1]
 1e0:	4a020073 	bmi	803b4 <_start-0x3ff87c4c>
 1e4:	0000018a 	andeq	r0, r0, sl, lsl #3
 1e8:	0c749102 	ldfeqp	f1, [r4], #-8
 1ec:	4c020069 	stcmi	0, cr0, [r2], {105}	; 0x69
 1f0:	00000183 	andeq	r0, r0, r3, lsl #3
 1f4:	00789102 	rsbseq	r9, r8, r2, lsl #2
 1f8:	6905040d 	stmdbvs	r5, {r0, r2, r3, sl}
 1fc:	0a00746e 	beq	1d3bc <_start-0x3ffeac44>
 200:	0000db04 	andeq	sp, r0, r4, lsl #22
 204:	01440400 	cmpeq	r4, r0, lsl #8
 208:	6f020000 	svcvs	0x00020000
 20c:	0000f301 	andeq	pc, r0, r1, lsl #6
 210:	00843c00 	addeq	r3, r4, r0, lsl #24
 214:	0088d440 	addeq	sp, r8, r0, asr #8
 218:	0000b040 	andeq	fp, r0, r0, asr #32
 21c:	00026000 	andeq	r6, r2, r0
 220:	74730500 	ldrbtvc	r0, [r3], #-1280	; 0x500
 224:	6f020072 	svcvs	0x00020072
 228:	000000f3 	strdeq	r0, [r0], -r3
 22c:	7f9c9103 	svcvc	0x009c9103
 230:	6d756e05 	ldclvs	14, cr6, [r5, #-20]!	; 0xffffffec
 234:	476f0200 	strbmi	r0, [pc, -r0, lsl #4]!
 238:	03000001 	movweq	r0, #1
 23c:	087f9891 	ldmdaeq	pc!, {r0, r4, r7, fp, ip, pc}^	; <UNPREDICTABLE>
 240:	000000a9 	andeq	r0, r0, r9, lsr #1
 244:	00f96f02 	rscseq	r6, r9, r2, lsl #30
 248:	91030000 	mrsls	r0, (UNDEF: 3)
 24c:	5f087f94 	svcpl	0x00087f94
 250:	02000001 	andeq	r0, r0, #1
 254:	0001836f 	andeq	r8, r1, pc, ror #6
 258:	90910300 	addsls	r0, r1, r0, lsl #6
 25c:	0091087f 	addseq	r0, r1, pc, ror r8
 260:	6f020000 	svcvs	0x00020000
 264:	00000183 	andeq	r0, r0, r3, lsl #3
 268:	08009102 	stmdaeq	r0, {r1, r8, ip, pc}
 26c:	0000011b 	andeq	r0, r0, fp, lsl r1
 270:	01836f02 	orreq	r6, r3, r2, lsl #30
 274:	91020000 	mrsls	r0, (UNDEF: 2)
 278:	00630c04 	rsbeq	r0, r3, r4, lsl #24
 27c:	00e67202 	rsceq	r7, r6, r2, lsl #4
 280:	91020000 	mrsls	r0, (UNDEF: 2)
 284:	0154096b 	cmpeq	r4, fp, ror #18
 288:	72020000 	andvc	r0, r2, #0
 28c:	000000e6 	andeq	r0, r0, r6, ror #1
 290:	0c779102 	ldfeqp	f1, [r7], #-8
 294:	00706d74 	rsbseq	r6, r0, r4, ror sp
 298:	02607202 	rsbeq	r7, r0, #536870912	; 0x20000000
 29c:	91030000 	mrsls	r0, (UNDEF: 3)
 2a0:	20097fa0 	andcs	r7, r9, r0, lsr #31
 2a4:	02000001 	andeq	r0, r0, #1
 2a8:	0000db73 	andeq	sp, r0, r3, ror fp
 2ac:	70910200 	addsvc	r0, r1, r0, lsl #4
 2b0:	0200690c 	andeq	r6, r0, #196608	; 0x30000
 2b4:	00018374 	andeq	r8, r1, r4, ror r3
 2b8:	6c910200 	lfmvs	f0, 4, [r1], {0}
 2bc:	0086000e 	addeq	r0, r6, lr
 2c0:	00863440 	addeq	r3, r6, r0, asr #8
 2c4:	01590940 	cmpeq	r9, r0, asr #18
 2c8:	96020000 	strls	r0, [r2], -r0
 2cc:	00000183 	andeq	r0, r0, r3, lsl #3
 2d0:	00649102 	rsbeq	r9, r4, r2, lsl #2
 2d4:	00e60f00 	rsceq	r0, r6, r0, lsl #30
 2d8:	02700000 	rsbseq	r0, r0, #0
 2dc:	d4100000 	ldrle	r0, [r0]
 2e0:	41000000 	mrsmi	r0, (UNDEF: 0)
 2e4:	0c010700 	stceq	7, cr0, [r1], {0}
 2e8:	02000001 	andeq	r0, r0, #1
 2ec:	00f901b4 	ldrhteq	r0, [r9], #20
 2f0:	88d40000 	ldmhi	r4, {}^	; <UNPREDICTABLE>
 2f4:	89544000 	ldmdbhi	r4, {lr}^
 2f8:	00dc4000 	sbcseq	r4, ip, r0
 2fc:	02b50000 	adcseq	r0, r5, #0
 300:	73050000 	movwvc	r0, #20480	; 0x5000
 304:	dbb40200 	blle	fed00b0c <_ctype+0xbecf6aa8>
 308:	02000000 	andeq	r0, r0, #0
 30c:	68087491 	stmdavs	r8, {r0, r4, r7, sl, ip, sp, lr}
 310:	02000000 	andeq	r0, r0, #0
 314:	0000f9b4 			; <UNDEFINED> instruction: 0x0000f9b4
 318:	70910200 	addsvc	r0, r1, r0, lsl #4
 31c:	0063730c 	rsbeq	r7, r3, ip, lsl #6
 320:	00dbb602 	sbcseq	fp, fp, r2, lsl #12
 324:	91020000 	mrsls	r0, (UNDEF: 2)
 328:	01070078 	tsteq	r7, r8, ror r0
 32c:	00000164 	andeq	r0, r0, r4, ror #2
 330:	8301bc02 	movwhi	fp, #7170	; 0x1c02
 334:	54000001 	strpl	r0, [r0], #-1
 338:	8c400089 	mcrrhi	0, 8, r0, r0, cr9
 33c:	08400092 	stmdaeq	r0, {r1, r4, r7}^
 340:	c5000001 	strgt	r0, [r0, #-1]
 344:	05000003 	streq	r0, [r0, #-3]
 348:	00667562 	rsbeq	r7, r6, r2, ror #10
 34c:	00f3bc02 	rscseq	fp, r3, r2, lsl #24
 350:	91020000 	mrsls	r0, (UNDEF: 2)
 354:	6d660544 	cfstr64vs	mvdx0, [r6, #-272]!	; 0xfffffef0
 358:	bc020074 	stclt	0, cr0, [r2], {116}	; 0x74
 35c:	000000db 	ldrdeq	r0, [r0], -fp
 360:	08409102 	stmdaeq	r0, {r1, r8, ip, pc}^
 364:	0000013f 	andeq	r0, r0, pc, lsr r1
 368:	0036bc02 	eorseq	fp, r6, r2, lsl #24
 36c:	91030000 	mrsls	r0, (UNDEF: 3)
 370:	6c0c7fbc 	stcvs	15, cr7, [ip], {188}	; 0xbc
 374:	02006e65 	andeq	r6, r0, #1616	; 0x650
 378:	000183be 			; <UNDEFINED> instruction: 0x000183be
 37c:	50910200 	addspl	r0, r1, r0, lsl #4
 380:	6d756e0c 	ldclvs	14, cr6, [r5, #-48]!	; 0xffffffd0
 384:	d4c20200 	strble	r0, [r2], #512	; 0x200
 388:	02000000 	andeq	r0, r0, #0
 38c:	690c7491 	stmdbvs	ip, {r0, r4, r7, sl, ip, sp, lr}
 390:	83c40200 	bichi	r0, r4, #0
 394:	02000001 	andeq	r0, r0, #1
 398:	a9097091 	stmdbge	r9, {r0, r4, r7, ip, sp, lr}
 39c:	02000000 	andeq	r0, r0, #0
 3a0:	000183c4 	andeq	r8, r1, r4, asr #7
 3a4:	6c910200 	lfmvs	f0, 4, [r1], {0}
 3a8:	7274730c 	rsbsvc	r7, r4, #805306368	; 0x30000000
 3ac:	f3c50200 	vsubl.u8	q8, d5, d0
 3b0:	02000000 	andeq	r0, r0, #0
 3b4:	730c6891 	movwvc	r6, #51345	; 0xc891
 3b8:	dbc60200 	blle	ff180bc0 <_ctype+0xbf176b5c>
 3bc:	02000000 	andeq	r0, r0, #0
 3c0:	ee096491 	mcr	4, 0, r6, cr9, cr1, {4}
 3c4:	02000000 	andeq	r0, r0, #0
 3c8:	000183c8 	andeq	r8, r1, r8, asr #7
 3cc:	60910200 	addsvs	r0, r1, r0, lsl #4
 3d0:	00013309 	andeq	r3, r1, r9, lsl #6
 3d4:	83ca0200 	bichi	r0, sl, #0
 3d8:	02000001 	andeq	r0, r0, #1
 3dc:	91095c91 			; <UNDEFINED> instruction: 0x91095c91
 3e0:	02000000 	andeq	r0, r0, #0
 3e4:	000183cb 	andeq	r8, r1, fp, asr #7
 3e8:	58910200 	ldmpl	r1, {r9}
 3ec:	0000f409 	andeq	pc, r0, r9, lsl #8
 3f0:	83cd0200 	bichi	r0, sp, #0
 3f4:	02000001 	andeq	r0, r0, #1
 3f8:	05115491 	ldreq	r5, [r1, #-1169]	; 0x491
 3fc:	02000001 	andeq	r0, r0, #1
 400:	0089b0d7 	ldrdeq	fp, [r9], r7
 404:	90081240 	andls	r1, r8, r0, asr #4
 408:	90304000 	eorsls	r4, r0, r0
 40c:	03ac4000 			; <UNDEFINED> instruction: 0x03ac4000
 410:	69130000 	ldmdbvs	r3, {}	; <UNPREDICTABLE>
 414:	35020070 	strcc	r0, [r2, #-112]	; 0x70
 418:	0003c501 	andeq	ip, r3, r1, lsl #10
 41c:	4c910200 	lfmmi	f0, 4, [r1], {0}
 420:	90340e00 	eorsls	r0, r4, r0, lsl #28
 424:	905c4000 	subsls	r4, ip, r0
 428:	69134000 	ldmdbvs	r3, {lr}
 42c:	38020070 	stmdacc	r2, {r4, r5, r6}
 430:	0003cb01 	andeq	ip, r3, r1, lsl #22
 434:	48910200 	ldmmi	r1, {r9}
 438:	040a0000 	streq	r0, [sl]
 43c:	00000147 	andeq	r0, r0, r7, asr #2
 440:	0183040a 	orreq	r0, r3, sl, lsl #8
 444:	01140000 	tsteq	r4, r0
 448:	00000165 	andeq	r0, r0, r5, ror #2
 44c:	01017302 	tsteq	r1, r2, lsl #6
 450:	00000183 	andeq	r0, r0, r3, lsl #3
 454:	4000928c 	andmi	r9, r0, ip, lsl #5
 458:	400092dc 	ldrdmi	r9, [r0], -ip
 45c:	00000134 	andeq	r0, r0, r4, lsr r1
 460:	0000042b 	andeq	r0, r0, fp, lsr #8
 464:	66756215 			; <UNDEFINED> instruction: 0x66756215
 468:	01730200 	cmneq	r3, r0, lsl #4
 46c:	000000f3 	strdeq	r0, [r0], -r3
 470:	15609102 	strbne	r9, [r0, #-258]!	; 0x102
 474:	00746d66 	rsbseq	r6, r4, r6, ror #26
 478:	db017302 	blle	5d088 <_start-0x3ffaaf78>
 47c:	02000000 	andeq	r0, r0, #0
 480:	17167491 			; <UNDEFINED> instruction: 0x17167491
 484:	0000013f 	andeq	r0, r0, pc, lsr r1
 488:	36017502 	strcc	r7, [r1], -r2, lsl #10
 48c:	02000000 	andeq	r0, r0, #0
 490:	69136491 	ldmdbvs	r3, {r0, r4, r7, sl, sp, lr}
 494:	01760200 	cmneq	r6, r0, lsl #4
 498:	00000183 	andeq	r0, r0, r3, lsl #3
 49c:	00689102 	rsbeq	r9, r8, r2, lsl #2
 4a0:	01660118 	cmneq	r6, r8, lsl r1
 4a4:	7e020000 	cdpvc	0, 0, cr0, cr2, cr0, {0}
 4a8:	92dc0101 	sbcsls	r0, ip, #1073741824	; 0x40000000
 4ac:	93344000 	teqls	r4, #0
 4b0:	016c4000 	cmneq	ip, r0
 4b4:	04820000 	streq	r0, [r2]
 4b8:	66150000 	ldrvs	r0, [r5], -r0
 4bc:	0200746d 	andeq	r7, r0, #1828716544	; 0x6d000000
 4c0:	00db017e 	sbcseq	r0, fp, lr, ror r1
 4c4:	91020000 	mrsls	r0, (UNDEF: 2)
 4c8:	3f171670 	svccc	0x00171670
 4cc:	02000001 	andeq	r0, r0, #1
 4d0:	00360180 	eorseq	r0, r6, r0, lsl #3
 4d4:	91020000 	mrsls	r0, (UNDEF: 2)
 4d8:	00691360 	rsbeq	r1, r9, r0, ror #6
 4dc:	f9018102 			; <UNDEFINED> instruction: 0xf9018102
 4e0:	02000000 	andeq	r0, r0, #0
 4e4:	27176491 			; <UNDEFINED> instruction: 0x27176491
 4e8:	02000001 	andeq	r0, r0, #1
 4ec:	04820182 	streq	r0, [r2], #386	; 0x182
 4f0:	91030000 	mrsls	r0, (UNDEF: 3)
 4f4:	0f007efc 	svceq	0x00007efc
 4f8:	000000e6 	andeq	r0, r0, r6, ror #1
 4fc:	00000492 	muleq	r0, r2, r4
 500:	0000d410 	andeq	sp, r0, r0, lsl r4
 504:	0f006300 	svceq	0x00006300
 508:	0000006a 	andeq	r0, r0, sl, rrx
 50c:	000004a2 	andeq	r0, r0, r2, lsr #9
 510:	0000d410 	andeq	sp, r0, r0, lsl r4
 514:	1900ff00 	stmdbne	r0, {r8, r9, sl, fp, ip, sp, lr, pc}
 518:	00000119 	andeq	r0, r0, r9, lsl r1
 51c:	04921101 	ldreq	r1, [r2], #257	; 0x101
 520:	01010000 	mrseq	r0, (UNDEF: 1)
 524:	0001191a 	andeq	r1, r1, sl, lsl r9
 528:	92110100 	andsls	r0, r1, #0
 52c:	01000004 	tsteq	r0, r4
 530:	a0640305 	rsbge	r0, r4, r5, lsl #6
 534:	0d004000 	stceq	0, cr4, [r0]
 538:	02000002 	andeq	r0, r0, #2
 53c:	00018700 	andeq	r8, r1, r0, lsl #14
 540:	ae010400 	cfcpysge	mvf0, mvf1
 544:	01000000 	mrseq	r0, (UNDEF: 0)
 548:	000001f9 	strdeq	r0, [r0], -r9
 54c:	00000000 	andeq	r0, r0, r0
 550:	40009334 	andmi	r9, r0, r4, lsr r3
 554:	40009440 	andmi	r9, r0, r0, asr #8
 558:	000002d4 	ldrdeq	r0, [r0], -r4
 55c:	bf070402 	svclt	0x00070402
 560:	03000000 	movweq	r0, #0
 564:	018a0218 	orreq	r0, sl, r8, lsl r2
 568:	00000090 	muleq	r0, r0, r0
 56c:	4e4f4304 	cdpmi	3, 4, cr4, cr15, cr4, {0}
 570:	018b0200 	orreq	r0, fp, r0, lsl #4
 574:	00000025 	andeq	r0, r0, r5, lsr #32
 578:	04002302 	streq	r2, [r0], #-770	; 0x302
 57c:	00544144 	subseq	r4, r4, r4, asr #2
 580:	25018c02 	strcs	r8, [r1, #-3074]	; 0xc02
 584:	02000000 	andeq	r0, r0, #0
 588:	50040423 	andpl	r0, r4, r3, lsr #8
 58c:	02004455 	andeq	r4, r0, #1426063360	; 0x55000000
 590:	0025018d 	eoreq	r0, r5, sp, lsl #3
 594:	23020000 	movwcs	r0, #8192	; 0x2000
 598:	52440408 	subpl	r0, r4, #134217728	; 0x8000000
 59c:	8e020056 	mcrhi	0, 0, r0, cr2, cr6, {2}
 5a0:	00002501 	andeq	r2, r0, r1, lsl #10
 5a4:	0c230200 	sfmeq	f0, 4, [r3]
 5a8:	0001bc05 	andeq	fp, r1, r5, lsl #24
 5ac:	018f0200 	orreq	r0, pc, r0, lsl #4
 5b0:	00000025 	andeq	r0, r0, r5, lsr #32
 5b4:	05102302 	ldreq	r2, [r0, #-770]	; 0x302
 5b8:	000001f2 	strdeq	r0, [r0], -r2
 5bc:	25019002 	strcs	r9, [r1, #-2]
 5c0:	02000000 	andeq	r0, r0, #0
 5c4:	06001423 	streq	r1, [r0], -r3, lsr #8
 5c8:	000001df 	ldrdeq	r0, [r0], -pc	; <UNPREDICTABLE>
 5cc:	2c019102 	stfcsd	f1, [r1], {2}
 5d0:	03000000 	movweq	r0, #0
 5d4:	03ca023c 	biceq	r0, sl, #-1073741821	; 0xc0000003
 5d8:	00000187 	andeq	r0, r0, r7, lsl #3
 5dc:	0001d805 	andeq	sp, r1, r5, lsl #16
 5e0:	03cb0200 	biceq	r0, fp, #0
 5e4:	00000025 	andeq	r0, r0, r5, lsr #32
 5e8:	05002302 	streq	r2, [r0, #-770]	; 0x302
 5ec:	000001c3 	andeq	r0, r0, r3, asr #3
 5f0:	2503cc02 	strcs	ip, [r3, #-3074]	; 0xc02
 5f4:	02000000 	andeq	r0, r0, #0
 5f8:	af050423 	svcge	0x00050423
 5fc:	02000001 	andeq	r0, r0, #1
 600:	002503cd 	eoreq	r0, r5, sp, asr #7
 604:	23020000 	movwcs	r0, #8192	; 0x2000
 608:	02100508 	andseq	r0, r0, #33554432	; 0x2000000
 60c:	ce020000 	cdpgt	0, 0, cr0, cr2, cr0, {0}
 610:	00002503 	andeq	r2, r0, r3, lsl #10
 614:	0c230200 	sfmeq	f0, 4, [r3]
 618:	00019705 	andeq	r9, r1, r5, lsl #14
 61c:	03cf0200 	biceq	r0, pc, #0
 620:	00000025 	andeq	r0, r0, r5, lsr #32
 624:	05102302 	ldreq	r2, [r0, #-770]	; 0x302
 628:	000001e9 	andeq	r0, r0, r9, ror #3
 62c:	2503d002 	strcs	sp, [r3, #-2]
 630:	02000000 	andeq	r0, r0, #0
 634:	8f051423 	svchi	0x00051423
 638:	02000001 	andeq	r0, r0, #1
 63c:	002503d1 	ldrdeq	r0, [r5], -r1	; <UNPREDICTABLE>
 640:	23020000 	movwcs	r0, #8192	; 0x2000
 644:	01c90518 	biceq	r0, r9, r8, lsl r5
 648:	d2020000 	andle	r0, r2, #0
 64c:	00002503 	andeq	r2, r0, r3, lsl #10
 650:	1c230200 	sfmne	f0, 4, [r3]
 654:	0001b605 	andeq	fp, r1, r5, lsl #12
 658:	03d30200 	bicseq	r0, r3, #0
 65c:	00000025 	andeq	r0, r0, r5, lsr #32
 660:	05202302 	streq	r2, [r0, #-770]!	; 0x302
 664:	00000217 	andeq	r0, r0, r7, lsl r2
 668:	2503d402 	strcs	sp, [r3, #-1026]	; 0x402
 66c:	02000000 	andeq	r0, r0, #0
 670:	82052423 	andhi	r2, r5, #587202560	; 0x23000000
 674:	02000001 	andeq	r0, r0, #1
 678:	002503d5 	ldrdeq	r0, [r5], -r5	; <UNPREDICTABLE>
 67c:	23020000 	movwcs	r0, #8192	; 0x2000
 680:	021d0528 	andseq	r0, sp, #167772160	; 0xa000000
 684:	d6020000 	strle	r0, [r2], -r0
 688:	00002503 	andeq	r2, r0, r3, lsl #10
 68c:	2c230200 	sfmcs	f0, 4, [r3]
 690:	00017305 	andeq	r7, r1, r5, lsl #6
 694:	03d70200 	bicseq	r0, r7, #0
 698:	00000025 	andeq	r0, r0, r5, lsr #32
 69c:	05302302 	ldreq	r2, [r0, #-770]!	; 0x302
 6a0:	0000017a 	andeq	r0, r0, sl, ror r1
 6a4:	2503d802 	strcs	sp, [r3, #-2050]	; 0x802
 6a8:	02000000 	andeq	r0, r0, #0
 6ac:	d1053423 	tstle	r5, r3, lsr #8
 6b0:	02000001 	andeq	r0, r0, #1
 6b4:	002503d9 	ldrdeq	r0, [r5], -r9	; <UNPREDICTABLE>
 6b8:	23020000 	movwcs	r0, #8192	; 0x2000
 6bc:	6d060038 	stcvs	0, cr0, [r6, #-224]	; 0xffffff20
 6c0:	02000001 	andeq	r0, r0, #1
 6c4:	009c03da 			; <UNDEFINED> instruction: 0x009c03da
 6c8:	04020000 	streq	r0, [r2]
 6cc:	0000ba07 	andeq	fp, r0, r7, lsl #20
 6d0:	a0010700 	andge	r0, r1, r0, lsl #14
 6d4:	01000001 	tsteq	r0, r1
 6d8:	00933403 	addseq	r3, r3, r3, lsl #8
 6dc:	00939840 	addseq	r9, r3, r0, asr #16
 6e0:	0001a440 	andeq	sl, r1, r0, asr #8
 6e4:	e4010800 	str	r0, [r1], #-2048	; 0x800
 6e8:	01000001 	tsteq	r0, r1
 6ec:	93980110 	orrsls	r0, r8, #4
 6f0:	93f44000 	mvnsls	r4, #0
 6f4:	01d04000 	bicseq	r4, r0, r0
 6f8:	01d60000 	bicseq	r0, r6, r0
 6fc:	aa090000 	bge	240704 <_start-0x3fdc78fc>
 700:	01000001 	tsteq	r0, r1
 704:	0001d610 	andeq	sp, r1, r0, lsl r6
 708:	74910200 	ldrvc	r0, [r1], #512	; 0x200
 70c:	01db0a00 	bicseq	r0, fp, r0, lsl #20
 710:	01020000 	mrseq	r0, (UNDEF: 2)
 714:	0000a408 	andeq	sl, r0, r8, lsl #8
 718:	0b010800 	bleq	42720 <_start-0x3ffc58e0>
 71c:	01000002 	tsteq	r0, r2
 720:	93f40117 	mvnsls	r0, #-1073741819	; 0xc0000005
 724:	94404000 	strbls	r4, [r0]
 728:	01fc4000 	mvnseq	r4, r0
 72c:	020a0000 	andeq	r0, sl, #0
 730:	8a090000 	bhi	240738 <_start-0x3fdc78c8>
 734:	01000001 	tsteq	r0, r1
 738:	00020a17 	andeq	r0, r2, r7, lsl sl
 73c:	74910200 	ldrvc	r0, [r1], #512	; 0x200
 740:	d6040b00 	strle	r0, [r4], -r0, lsl #22
 744:	00000001 	andeq	r0, r0, r1
 748:	00000079 	andeq	r0, r0, r9, ror r0
 74c:	02270002 	eoreq	r0, r7, #2
 750:	01040000 	mrseq	r0, (UNDEF: 4)
 754:	00000351 	andeq	r0, r0, r1, asr r3
 758:	40009440 	andmi	r9, r0, r0, asr #8
 75c:	400094d4 	ldrdmi	r9, [r0], -r4
 760:	6d6d6f63 	stclvs	15, cr6, [sp, #-396]!	; 0xfffffe74
 764:	732f6e6f 	teqvc	pc, #1776	; 0x6f0
 768:	5f2f6372 	svcpl	0x002f6372
 76c:	76696475 			; <UNDEFINED> instruction: 0x76696475
 770:	2e336973 	mrccs	9, 1, r6, cr3, cr3, {3}
 774:	3a470053 	bcc	11c08c8 <_start-0x3ee47738>
 778:	4d52415c 	ldfmie	f4, [r2, #-368]	; 0xfffffe90
 77c:	4d52415c 	ldfmie	f4, [r2, #-368]	; 0xfffffe90
 780:	3134342d 	teqcc	r4, sp, lsr #8
 784:	39412d32 	stmdbcc	r1, {r1, r4, r5, r8, sl, fp, sp}^
 788:	ccb3cebf 	ldcgt	14, cr12, [r3], #764	; 0x2fc
 78c:	cfc1cad7 	svcgt	0x00c1cad7
 790:	4d52415c 	ldfmie	f4, [r2, #-368]	; 0xfffffe90
 794:	fabbe3c2 	blx	feef96a4 <_ctype+0xbeeef640>
 798:	cfc1cad7 	svcgt	0x00c1cad7
 79c:	3453462d 	ldrbcc	r4, [r3], #-1581	; 0x62d
 7a0:	5c323134 	ldfpls	f3, [r2], #-208	; 0xffffff30
 7a4:	e9d1b5ca 	ldmib	r1, {r1, r3, r6, r7, r8, sl, ip, sp, pc}^
 7a8:	ebc2fab4 	bl	ff0bf280 <_ctype+0xbf0b521c>
 7ac:	572e395c 			; <UNDEFINED> instruction: 0x572e395c
 7b0:	495f5444 	ldmdbmi	pc, {r2, r6, sl, ip, lr}^	; <UNPREDICTABLE>
 7b4:	4700544e 	strmi	r5, [r0, -lr, asr #8]
 7b8:	4120554e 	teqmi	r0, lr, asr #10
 7bc:	2e322053 	mrccs	0, 1, r2, cr2, cr3, {2}
 7c0:	01003132 	tsteq	r0, r2, lsr r1
 7c4:	00007980 	andeq	r7, r0, r0, lsl #19
 7c8:	3b000200 	blcc	fd0 <_start-0x40007030>
 7cc:	04000002 	streq	r0, [r0], #-2
 7d0:	0003ba01 	andeq	fp, r3, r1, lsl #20
 7d4:	0094d400 	addseq	sp, r4, r0, lsl #8
 7d8:	00958440 	addseq	r8, r5, r0, asr #8
 7dc:	6d6f6340 	stclvs	3, cr6, [pc, #-256]!	; 6e4 <_start-0x4000791c>
 7e0:	2f6e6f6d 	svccs	0x006e6f6d
 7e4:	2f637273 	svccs	0x00637273
 7e8:	6f6d755f 	svcvs	0x006d755f
 7ec:	33697364 	cmncc	r9, #-1879048191	; 0x90000001
 7f0:	4700532e 	strmi	r5, [r0, -lr, lsr #6]
 7f4:	52415c3a 	subpl	r5, r1, #14848	; 0x3a00
 7f8:	52415c4d 	subpl	r5, r1, #19712	; 0x4d00
 7fc:	34342d4d 	ldrtcc	r2, [r4], #-3405	; 0xd4d
 800:	412d3231 	teqmi	sp, r1, lsr r2
 804:	b3cebf39 	biclt	fp, lr, #228	; 0xe4
 808:	c1cad7cc 	bicgt	sp, sl, ip, asr #15
 80c:	52415ccf 	subpl	r5, r1, #52992	; 0xcf00
 810:	bbe3c24d 	bllt	ff8f114c <_ctype+0xbf8e70e8>
 814:	c1cad7fa 	strdgt	sp, [sl, #122]	; 0x7a
 818:	53462dcf 	movtpl	r2, #28111	; 0x6dcf
 81c:	32313434 	eorscc	r3, r1, #872415232	; 0x34000000
 820:	d1b5ca5c 			; <UNDEFINED> instruction: 0xd1b5ca5c
 824:	c2fab4e9 	rscsgt	fp, sl, #-385875968	; 0xe9000000
 828:	2e395ceb 	cdpcs	12, 3, cr5, cr9, cr11, {7}
 82c:	5f544457 	svcpl	0x00544457
 830:	00544e49 	subseq	r4, r4, r9, asr #28
 834:	20554e47 	subscs	r4, r5, r7, asr #28
 838:	32205341 	eorcc	r5, r0, #67108865	; 0x4000001
 83c:	0031322e 	eorseq	r3, r1, lr, lsr #4
 840:	05128001 	ldreq	r8, [r2, #-1]
 844:	00020000 	andeq	r0, r2, r0
 848:	0000024f 	andeq	r0, r0, pc, asr #4
 84c:	00ae0104 	adceq	r0, lr, r4, lsl #2
 850:	cb010000 	blgt	40858 <_start-0x3ffc77a8>
 854:	00000003 	andeq	r0, r0, r3
 858:	84000000 	strhi	r0, [r0]
 85c:	9c400095 	mcrrls	0, 9, r0, r0, cr5
 860:	2a400097 	bcs	1000ac4 <_start-0x3f00753c>
 864:	02000004 	andeq	r0, r0, #4
 868:	00bf0704 	adcseq	r0, pc, r4, lsl #14
 86c:	10030000 	andne	r0, r3, r0
 870:	72016e02 	andvc	r6, r1, #32
 874:	04000000 	streq	r0, [r0]
 878:	000004a7 	andeq	r0, r0, r7, lsr #9
 87c:	25016f02 	strcs	r6, [r1, #-3842]	; 0xf02
 880:	02000000 	andeq	r0, r0, #0
 884:	3f040023 	svccc	0x00040023
 888:	02000002 	andeq	r0, r0, #2
 88c:	00250170 	eoreq	r0, r5, r0, ror r1
 890:	23020000 	movwcs	r0, #8192	; 0x2000
 894:	03c50404 	biceq	r0, r5, #67108864	; 0x4000000
 898:	71020000 	mrsvc	r0, (UNDEF: 2)
 89c:	00002501 	andeq	r2, r0, r1, lsl #10
 8a0:	08230200 	stmdaeq	r3!, {r9}
 8a4:	0003ec04 	andeq	lr, r3, r4, lsl #24
 8a8:	01720200 	cmneq	r2, r0, lsl #4
 8ac:	00000025 	andeq	r0, r0, r5, lsr #32
 8b0:	000c2302 	andeq	r2, ip, r2, lsl #6
 8b4:	74647705 	strbtvc	r7, [r4], #-1797	; 0x705
 8b8:	01730200 	cmneq	r3, r0, lsl #4
 8bc:	0000002c 	andeq	r0, r0, ip, lsr #32
 8c0:	0a021003 	beq	848d4 <_start-0x3ff8372c>
 8c4:	0000c402 	andeq	ip, r0, r2, lsl #8
 8c8:	4f430600 	svcmi	0x00430600
 8cc:	0b02004e 	bleq	80a0c <_start-0x3ff875f4>
 8d0:	00002502 	andeq	r2, r0, r2, lsl #10
 8d4:	00230200 	eoreq	r0, r3, r0, lsl #4
 8d8:	54414406 	strbpl	r4, [r1], #-1030	; 0x406
 8dc:	020c0200 	andeq	r0, ip, #0
 8e0:	00000025 	andeq	r0, r0, r5, lsr #32
 8e4:	06042302 	streq	r2, [r4], -r2, lsl #6
 8e8:	00445550 	subeq	r5, r4, r0, asr r5
 8ec:	25020d02 	strcs	r0, [r2, #-3330]	; 0xd02
 8f0:	02000000 	andeq	r0, r0, #0
 8f4:	44060823 	strmi	r0, [r6], #-2083	; 0x823
 8f8:	02005652 	andeq	r5, r0, #85983232	; 0x5200000
 8fc:	0025020e 	eoreq	r0, r5, lr, lsl #4
 900:	23020000 	movwcs	r0, #8192	; 0x2000
 904:	9907000c 	stmdbls	r7, {r2, r3}
 908:	02000003 	andeq	r0, r0, #3
 90c:	007e020f 	rsbseq	r0, lr, pc, lsl #4
 910:	28030000 	stmdacs	r3, {}	; <UNPREDICTABLE>
 914:	70024c02 	andvc	r4, r2, r2, lsl #24
 918:	04000001 	streq	r0, [r0], #-1
 91c:	000004a0 	andeq	r0, r0, r0, lsr #9
 920:	25024d02 	strcs	r4, [r2, #-3330]	; 0xd02
 924:	02000000 	andeq	r0, r0, #0
 928:	ff040023 			; <UNDEFINED> instruction: 0xff040023
 92c:	02000003 	andeq	r0, r0, #3
 930:	0025024e 	eoreq	r0, r5, lr, asr #4
 934:	23020000 	movwcs	r0, #8192	; 0x2000
 938:	02680404 	rsbeq	r0, r8, #67108864	; 0x4000000
 93c:	4f020000 	svcmi	0x00020000
 940:	00002502 	andeq	r2, r0, r2, lsl #10
 944:	08230200 	stmdaeq	r3!, {r9}
 948:	00031304 	andeq	r1, r3, r4, lsl #6
 94c:	02500200 	subseq	r0, r0, #0
 950:	00000025 	andeq	r0, r0, r5, lsr #32
 954:	040c2302 	streq	r2, [ip], #-770	; 0x302
 958:	0000024a 	andeq	r0, r0, sl, asr #4
 95c:	25025102 	strcs	r5, [r2, #-258]	; 0x102
 960:	02000000 	andeq	r0, r0, #0
 964:	e0041023 	and	r1, r4, r3, lsr #32
 968:	02000003 	andeq	r0, r0, #3
 96c:	00250252 	eoreq	r0, r5, r2, asr r2
 970:	23020000 	movwcs	r0, #8192	; 0x2000
 974:	04750414 	ldrbteq	r0, [r5], #-1044	; 0x414
 978:	53020000 	movwpl	r0, #8192	; 0x2000
 97c:	00002502 	andeq	r2, r0, r2, lsl #10
 980:	18230200 	stmdane	r3!, {r9}
 984:	00033804 	andeq	r3, r3, r4, lsl #16
 988:	02540200 	subseq	r0, r4, #0
 98c:	00000025 	andeq	r0, r0, r5, lsr #32
 990:	041c2302 	ldreq	r2, [ip], #-770	; 0x302
 994:	000002ea 	andeq	r0, r0, sl, ror #5
 998:	25025502 	strcs	r5, [r2, #-1282]	; 0x502
 99c:	02000000 	andeq	r0, r0, #0
 9a0:	31042023 	tstcc	r4, r3, lsr #32
 9a4:	02000002 	andeq	r0, r0, #2
 9a8:	00250256 	eoreq	r0, r5, r6, asr r2
 9ac:	23020000 	movwcs	r0, #8192	; 0x2000
 9b0:	e7070024 	str	r0, [r7, -r4, lsr #32]
 9b4:	02000003 	andeq	r0, r0, #3
 9b8:	00d00257 	sbcseq	r0, r0, r7, asr r2
 9bc:	14030000 	strne	r0, [r3]
 9c0:	d1029802 	tstle	r2, r2, lsl #16
 9c4:	04000001 	streq	r0, [r0], #-1
 9c8:	00000442 	andeq	r0, r0, r2, asr #8
 9cc:	25029902 	strcs	r9, [r2, #-2306]	; 0x902
 9d0:	02000000 	andeq	r0, r0, #0
 9d4:	5a040023 	bpl	100a68 <_start-0x3ff07598>
 9d8:	02000004 	andeq	r0, r0, #4
 9dc:	0025029a 	mlaeq	r5, sl, r2, r0
 9e0:	23020000 	movwcs	r0, #8192	; 0x2000
 9e4:	04630404 	strbteq	r0, [r3], #-1028	; 0x404
 9e8:	9b020000 	blls	809f0 <_start-0x3ff87610>
 9ec:	00002502 	andeq	r2, r0, r2, lsl #10
 9f0:	08230200 	stmdaeq	r3!, {r9}
 9f4:	00046c04 	andeq	r6, r4, r4, lsl #24
 9f8:	029c0200 	addseq	r0, ip, #0
 9fc:	00000025 	andeq	r0, r0, r5, lsr #32
 a00:	040c2302 	streq	r2, [ip], #-770	; 0x302
 a04:	000003b1 			; <UNDEFINED> instruction: 0x000003b1
 a08:	25029d02 	strcs	r9, [r2, #-3330]	; 0xd02
 a0c:	02000000 	andeq	r0, r0, #0
 a10:	07001023 	streq	r1, [r0, -r3, lsr #32]
 a14:	000004ad 	andeq	r0, r0, sp, lsr #9
 a18:	7c029e02 	stcvc	14, cr9, [r2], {2}
 a1c:	03000001 	movweq	r0, #1
 a20:	02f702a0 	rscseq	r0, r7, #10
 a24:	00000447 	andeq	r0, r0, r7, asr #8
 a28:	00047d04 	andeq	r7, r4, r4, lsl #26
 a2c:	02f80200 	rscseq	r0, r8, #0
 a30:	00000025 	andeq	r0, r0, r5, lsr #32
 a34:	04002302 	streq	r2, [r0], #-770	; 0x302
 a38:	0000048b 	andeq	r0, r0, fp, lsl #9
 a3c:	2502f902 	strcs	pc, [r2, #-2306]	; 0x902
 a40:	02000000 	andeq	r0, r0, #0
 a44:	8b040423 	blhi	101ad8 <_start-0x3ff06528>
 a48:	02000003 	andeq	r0, r0, #3
 a4c:	002502fa 	strdeq	r0, [r5], -sl	; <UNPREDICTABLE>
 a50:	23020000 	movwcs	r0, #8192	; 0x2000
 a54:	039e0408 	orrseq	r0, lr, #134217728	; 0x8000000
 a58:	fb020000 	blx	80a62 <_start-0x3ff8759e>
 a5c:	00002502 	andeq	r2, r0, r2, lsl #10
 a60:	0c230200 	sfmeq	f0, 4, [r3]
 a64:	0003d204 	andeq	sp, r3, r4, lsl #4
 a68:	02fc0200 	rscseq	r0, ip, #0
 a6c:	00000025 	andeq	r0, r0, r5, lsr #32
 a70:	04102302 	ldreq	r2, [r0], #-770	; 0x302
 a74:	000002f3 	strdeq	r0, [r0], -r3
 a78:	2502fd02 	strcs	pc, [r2, #-3330]	; 0xd02
 a7c:	02000000 	andeq	r0, r0, #0
 a80:	52041423 	andpl	r1, r4, #587202560	; 0x23000000
 a84:	02000002 	andeq	r0, r0, #2
 a88:	002502fe 	strdeq	r0, [r5], -lr	; <UNPREDICTABLE>
 a8c:	23020000 	movwcs	r0, #8192	; 0x2000
 a90:	02dc0418 	sbcseq	r0, ip, #402653184	; 0x18000000
 a94:	ff020000 			; <UNDEFINED> instruction: 0xff020000
 a98:	00002502 	andeq	r2, r0, r2, lsl #10
 a9c:	1c230200 	sfmne	f0, 4, [r3]
 aa0:	00030104 	andeq	r0, r3, r4, lsl #2
 aa4:	03000200 	movweq	r0, #512	; 0x200
 aa8:	00000025 	andeq	r0, r0, r5, lsr #32
 aac:	04202302 	strteq	r2, [r0], #-770	; 0x302
 ab0:	0000030a 	andeq	r0, r0, sl, lsl #6
 ab4:	25030102 	strcs	r0, [r3, #-258]	; 0x102
 ab8:	02000000 	andeq	r0, r0, #0
 abc:	6f042423 	svcvs	0x00042423
 ac0:	02000002 	andeq	r0, r0, #2
 ac4:	00250302 	eoreq	r0, r5, r2, lsl #6
 ac8:	23020000 	movwcs	r0, #8192	; 0x2000
 acc:	02790428 	rsbseq	r0, r9, #671088640	; 0x28000000
 ad0:	03020000 	movweq	r0, #8192	; 0x2000
 ad4:	00002503 	andeq	r2, r0, r3, lsl #10
 ad8:	2c230200 	sfmcs	f0, 4, [r3]
 adc:	00028304 	andeq	r8, r2, r4, lsl #6
 ae0:	03040200 	movweq	r0, #16896	; 0x4200
 ae4:	00000025 	andeq	r0, r0, r5, lsr #32
 ae8:	04302302 	ldrteq	r2, [r0], #-770	; 0x302
 aec:	0000028d 	andeq	r0, r0, sp, lsl #5
 af0:	25030502 	strcs	r0, [r3, #-1282]	; 0x502
 af4:	02000000 	andeq	r0, r0, #0
 af8:	97043423 	strls	r3, [r4, -r3, lsr #8]
 afc:	02000002 	andeq	r0, r0, #2
 b00:	00250306 	eoreq	r0, r5, r6, lsl #6
 b04:	23020000 	movwcs	r0, #8192	; 0x2000
 b08:	02a10438 	adceq	r0, r1, #939524096	; 0x38000000
 b0c:	07020000 	streq	r0, [r2, -r0]
 b10:	00002503 	andeq	r2, r0, r3, lsl #10
 b14:	3c230200 	sfmcc	f0, 4, [r3]
 b18:	0002ab04 	andeq	sl, r2, r4, lsl #22
 b1c:	03080200 	movweq	r0, #33280	; 0x8200
 b20:	00000025 	andeq	r0, r0, r5, lsr #32
 b24:	04402302 	strbeq	r2, [r0], #-770	; 0x302
 b28:	000002b5 			; <UNDEFINED> instruction: 0x000002b5
 b2c:	25030902 	strcs	r0, [r3, #-2306]	; 0x902
 b30:	02000000 	andeq	r0, r0, #0
 b34:	bf044423 	svclt	0x00044423
 b38:	02000002 	andeq	r0, r0, #2
 b3c:	0025030a 	eoreq	r0, r5, sl, lsl #6
 b40:	23020000 	movwcs	r0, #8192	; 0x2000
 b44:	02c90448 	sbceq	r0, r9, #1207959552	; 0x48000000
 b48:	0b020000 	bleq	80b50 <_start-0x3ff874b0>
 b4c:	00002503 	andeq	r2, r0, r3, lsl #10
 b50:	4c230200 	sfmmi	f0, 4, [r3]
 b54:	00032404 	andeq	r2, r3, r4, lsl #8
 b58:	030c0200 	movweq	r0, #49664	; 0xc200
 b5c:	00000025 	andeq	r0, r0, r5, lsr #32
 b60:	04502302 	ldrbeq	r2, [r0], #-770	; 0x302
 b64:	0000032e 	andeq	r0, r0, lr, lsr #6
 b68:	25030d02 	strcs	r0, [r3, #-3330]	; 0xd02
 b6c:	02000000 	andeq	r0, r0, #0
 b70:	1a045423 	bne	115c04 <_start-0x3fef23fc>
 b74:	02000003 	andeq	r0, r0, #3
 b78:	0025030e 	eoreq	r0, r5, lr, lsl #6
 b7c:	23020000 	movwcs	r0, #8192	; 0x2000
 b80:	03400458 	movteq	r0, #1112	; 0x458
 b84:	0f020000 	svceq	0x00020000
 b88:	00002503 	andeq	r2, r0, r3, lsl #10
 b8c:	5c230200 	sfmpl	f0, 4, [r3]
 b90:	00034a04 	andeq	r4, r3, r4, lsl #20
 b94:	03100200 	tsteq	r0, #0
 b98:	00000025 	andeq	r0, r0, r5, lsr #32
 b9c:	04602302 	strbteq	r2, [r0], #-770	; 0x302
 ba0:	00000354 	andeq	r0, r0, r4, asr r3
 ba4:	25031102 	strcs	r1, [r3, #-258]	; 0x102
 ba8:	02000000 	andeq	r0, r0, #0
 bac:	5e046423 	cdppl	4, 0, cr6, cr4, cr3, {1}
 bb0:	02000003 	andeq	r0, r0, #3
 bb4:	00250312 	eoreq	r0, r5, r2, lsl r3
 bb8:	23020000 	movwcs	r0, #8192	; 0x2000
 bbc:	03680468 	cmneq	r8, #1744830464	; 0x68000000
 bc0:	13020000 	movwne	r0, #8192	; 0x2000
 bc4:	00002503 	andeq	r2, r0, r3, lsl #10
 bc8:	6c230200 	sfmvs	f0, 4, [r3]
 bcc:	00037204 	andeq	r7, r3, r4, lsl #4
 bd0:	03140200 	tsteq	r4, #0
 bd4:	00000025 	andeq	r0, r0, r5, lsr #32
 bd8:	04702302 	ldrbteq	r2, [r0], #-770	; 0x302
 bdc:	0000037c 	andeq	r0, r0, ip, ror r3
 be0:	25031502 	strcs	r1, [r3, #-1282]	; 0x502
 be4:	02000000 	andeq	r0, r0, #0
 be8:	f5047423 			; <UNDEFINED> instruction: 0xf5047423
 bec:	02000003 	andeq	r0, r0, #3
 bf0:	00250316 	eoreq	r0, r5, r6, lsl r3
 bf4:	23020000 	movwcs	r0, #8192	; 0x2000
 bf8:	04b20478 	ldrteq	r0, [r2], #1144	; 0x478
 bfc:	17020000 	strne	r0, [r2, -r0]
 c00:	00002503 	andeq	r2, r0, r3, lsl #10
 c04:	7c230200 	sfmvc	f0, 4, [r3]
 c08:	00040604 	andeq	r0, r4, r4, lsl #12
 c0c:	03180200 	tsteq	r8, #0
 c10:	00000025 	andeq	r0, r0, r5, lsr #32
 c14:	01802303 	orreq	r2, r0, r3, lsl #6
 c18:	00041004 	andeq	r1, r4, r4
 c1c:	03190200 	tsteq	r9, #0
 c20:	00000025 	andeq	r0, r0, r5, lsr #32
 c24:	01842303 	orreq	r2, r4, r3, lsl #6
 c28:	00041a04 	andeq	r1, r4, r4, lsl #20
 c2c:	031a0200 	tsteq	sl, #0
 c30:	00000025 	andeq	r0, r0, r5, lsr #32
 c34:	01882303 	orreq	r2, r8, r3, lsl #6
 c38:	00042404 	andeq	r2, r4, r4, lsl #8
 c3c:	031b0200 	tsteq	fp, #0
 c40:	00000025 	andeq	r0, r0, r5, lsr #32
 c44:	018c2303 	orreq	r2, ip, r3, lsl #6
 c48:	00042e04 	andeq	r2, r4, r4, lsl #28
 c4c:	031c0200 	tsteq	ip, #0
 c50:	00000025 	andeq	r0, r0, r5, lsr #32
 c54:	01902303 	orrseq	r2, r0, r3, lsl #6
 c58:	00043804 	andeq	r3, r4, r4, lsl #16
 c5c:	031d0200 	tsteq	sp, #0
 c60:	00000025 	andeq	r0, r0, r5, lsr #32
 c64:	01942303 	orrseq	r2, r4, r3, lsl #6
 c68:	00022704 	andeq	r2, r2, r4, lsl #14
 c6c:	031e0200 	tsteq	lr, #0
 c70:	00000025 	andeq	r0, r0, r5, lsr #32
 c74:	01982303 	orrseq	r2, r8, r3, lsl #6
 c78:	00045004 	andeq	r5, r4, r4
 c7c:	031f0200 	tsteq	pc, #0
 c80:	00000025 	andeq	r0, r0, r5, lsr #32
 c84:	019c2303 	orrseq	r2, ip, r3, lsl #6
 c88:	03ac0700 			; <UNDEFINED> instruction: 0x03ac0700
 c8c:	20020000 	andcs	r0, r2, r0
 c90:	0001dd03 	andeq	sp, r1, r3, lsl #26
 c94:	07040200 	streq	r0, [r4, -r0, lsl #4]
 c98:	000000ba 	strheq	r0, [r0], -sl
 c9c:	04990108 	ldreq	r0, [r9], #264	; 0x108
 ca0:	12010000 	andne	r0, r1, #0
 ca4:	00958401 	addseq	r8, r5, r1, lsl #8
 ca8:	0095f040 	addseq	pc, r5, r0, asr #32
 cac:	00022840 	andeq	r2, r2, r0, asr #16
 cb0:	00049100 	andeq	r9, r4, r0, lsl #2
 cb4:	02600900 	rsbeq	r0, r0, #0
 cb8:	15010000 	strne	r0, [r1]
 cbc:	00000491 	muleq	r0, r1, r4
 cc0:	0a749102 	beq	1d250d0 <_start-0x3e2e2f30>
 cc4:	00016601 	andeq	r6, r1, r1, lsl #12
 cc8:	91180100 	tstls	r8, r0, lsl #2
 ccc:	01000004 	tsteq	r0, r4
 cd0:	0c00000b 	stceq	0, cr0, [r0], {11}
 cd4:	6e690504 	cdpvs	5, 6, cr0, cr9, cr4, {0}
 cd8:	01080074 	tsteq	r8, r4, ror r0
 cdc:	000003ba 			; <UNDEFINED> instruction: 0x000003ba
 ce0:	f0012401 			; <UNDEFINED> instruction: 0xf0012401
 ce4:	88400095 	stmdahi	r0, {r0, r2, r4, r7}^
 ce8:	54400096 	strbpl	r0, [r0], #-150	; 0x96
 cec:	d8000002 	stmdale	r0, {r1}
 cf0:	0d000004 	stceq	0, cr0, [r0, #-16]
 cf4:	00000386 	andeq	r0, r0, r6, lsl #7
 cf8:	04912401 	ldreq	r2, [r1], #1025	; 0x401
 cfc:	91020000 	mrsls	r0, (UNDEF: 2)
 d00:	00690e70 	rsbeq	r0, r9, r0, ror lr
 d04:	04912601 	ldreq	r2, [r1], #1537	; 0x601
 d08:	91020000 	mrsls	r0, (UNDEF: 2)
 d0c:	006a0e78 	rsbeq	r0, sl, r8, ror lr
 d10:	04912601 	ldreq	r2, [r1], #1537	; 0x601
 d14:	91020000 	mrsls	r0, (UNDEF: 2)
 d18:	010f0074 	tsteq	pc, r4, ror r0	; <UNPREDICTABLE>
 d1c:	000002d3 	ldrdeq	r0, [r0], -r3
 d20:	96882e01 	strls	r2, [r8], r1, lsl #28
 d24:	96c04000 	strbls	r4, [r0], r0
 d28:	02804000 	addeq	r4, r0, #0
 d2c:	01100000 	tsteq	r0, r0
 d30:	00000245 	andeq	r0, r0, r5, asr #4
 d34:	91014101 	tstls	r1, r1, lsl #2
 d38:	c0000004 	andgt	r0, r0, r4
 d3c:	9c400096 	mcrrls	0, 9, r0, r0, cr6
 d40:	ac400097 	mcrrge	0, 9, r0, r0, cr7
 d44:	0a000002 	beq	d54 <_start-0x400072ac>
 d48:	00016601 	andeq	r6, r1, r1, lsl #12
 d4c:	91180100 	tstls	r8, r0, lsl #2
 d50:	01000004 	tsteq	r0, r4
 d54:	0000000b 	andeq	r0, r0, fp

Disassembly of section .debug_abbrev:

00000000 <.debug_abbrev>:
   0:	10001101 	andne	r1, r0, r1, lsl #2
   4:	12011106 	andne	r1, r1, #-2147483647	; 0x80000001
   8:	1b080301 	blne	200c14 <_start-0x3fe073ec>
   c:	13082508 	movwne	r2, #34056	; 0x8508
  10:	00000005 	andeq	r0, r0, r5
  14:	25011101 	strcs	r1, [r1, #-257]	; 0x101
  18:	030b130e 	movweq	r1, #45838	; 0xb30e
  1c:	110e1b0e 	tstne	lr, lr, lsl #22
  20:	10011201 	andne	r1, r1, r1, lsl #4
  24:	02000006 	andeq	r0, r0, #6
  28:	0e030016 	mcreq	0, 0, r0, cr3, cr6, {0}
  2c:	0b3b0b3a 	bleq	ec2d1c <_start-0x3f1452e4>
  30:	00001349 	andeq	r1, r0, r9, asr #6
  34:	0b000f03 	bleq	3c48 <_start-0x400043b8>
  38:	000e030b 	andeq	r0, lr, fp, lsl #6
  3c:	012e0400 	teqeq	lr, r0, lsl #8
  40:	0b3a0e03 	bleq	e83854 <_start-0x3f1847ac>
  44:	0c270b3b 	stceq	11, cr0, [r7], #-236	; 0xffffff14
  48:	01111349 	tsteq	r1, r9, asr #6
  4c:	06400112 			; <UNDEFINED> instruction: 0x06400112
  50:	00001301 	andeq	r1, r0, r1, lsl #6
  54:	03000505 	movweq	r0, #1285	; 0x505
  58:	3b0b3a08 	blcc	2ce880 <_start-0x3fd39780>
  5c:	0213490b 	andseq	r4, r3, #180224	; 0x2c000
  60:	0600000a 	streq	r0, [r0], -sl
  64:	0b0b0024 	bleq	2c00fc <_start-0x3fd47f04>
  68:	0e030b3e 	vmoveq.16	d3[0], r0
  6c:	2e070000 	cdpcs	0, 0, cr0, cr7, cr0, {0}
  70:	030c3f01 	movweq	r3, #52993	; 0xcf01
  74:	3b0b3a0e 	blcc	2ce8b4 <_start-0x3fd3974c>
  78:	490c270b 	stmdbmi	ip, {r0, r1, r3, r8, r9, sl, sp}
  7c:	12011113 	andne	r1, r1, #-1073741820	; 0xc0000004
  80:	01064001 	tsteq	r6, r1
  84:	08000013 	stmdaeq	r0, {r0, r1, r4}
  88:	0e030005 	cdpeq	0, 0, cr0, cr3, cr5, {0}
  8c:	0b3b0b3a 	bleq	ec2d7c <_start-0x3f145284>
  90:	0a021349 	beq	84dbc <_start-0x3ff83244>
  94:	34090000 	strcc	r0, [r9]
  98:	3a0e0300 	bcc	380ca0 <_start-0x3fc87360>
  9c:	490b3b0b 	stmdbmi	fp, {r0, r1, r3, r8, r9, fp, ip, sp}
  a0:	000a0213 	andeq	r0, sl, r3, lsl r2
  a4:	000f0a00 	andeq	r0, pc, r0, lsl #20
  a8:	13490b0b 	movtne	r0, #39691	; 0x9b0b
  ac:	260b0000 	strcs	r0, [fp], -r0
  b0:	00134900 	andseq	r4, r3, r0, lsl #18
  b4:	00340c00 	eorseq	r0, r4, r0, lsl #24
  b8:	0b3a0803 	bleq	e820cc <_start-0x3f185f34>
  bc:	13490b3b 	movtne	r0, #39739	; 0x9b3b
  c0:	00000a02 	andeq	r0, r0, r2, lsl #20
  c4:	0b00240d 	bleq	9100 <_start-0x3fffef00>
  c8:	030b3e0b 	movweq	r3, #48651	; 0xbe0b
  cc:	0e000008 	cdpeq	0, 0, cr0, cr0, cr8, {0}
  d0:	0111010b 	tsteq	r1, fp, lsl #2
  d4:	00000112 	andeq	r0, r0, r2, lsl r1
  d8:	4901010f 	stmdbmi	r1, {r0, r1, r2, r3, r8}
  dc:	00130113 	andseq	r0, r3, r3, lsl r1
  e0:	00211000 	eoreq	r1, r1, r0
  e4:	0b2f1349 	bleq	bc4e10 <_start-0x3f4431f0>
  e8:	0a110000 	beq	4400f0 <_start-0x3fbc7f10>
  ec:	3a0e0300 	bcc	380cf4 <_start-0x3fc8730c>
  f0:	110b3b0b 	tstne	fp, fp, lsl #22
  f4:	12000001 	andne	r0, r0, #1
  f8:	0111010b 	tsteq	r1, fp, lsl #2
  fc:	13010112 	movwne	r0, #4370	; 0x1112
 100:	34130000 	ldrcc	r0, [r3]
 104:	3a080300 	bcc	200d0c <_start-0x3fe072f4>
 108:	49053b0b 	stmdbmi	r5, {r0, r1, r3, r8, r9, fp, ip, sp}
 10c:	000a0213 	andeq	r0, sl, r3, lsl r2
 110:	012e1400 	teqeq	lr, r0, lsl #8
 114:	0e030c3f 	mcreq	12, 0, r0, cr3, cr15, {1}
 118:	053b0b3a 	ldreq	r0, [fp, #-2874]!	; 0xb3a
 11c:	13490c27 	movtne	r0, #39975	; 0x9c27
 120:	01120111 	tsteq	r2, r1, lsl r1
 124:	13010640 	movwne	r0, #5696	; 0x1640
 128:	05150000 	ldreq	r0, [r5]
 12c:	3a080300 	bcc	200d34 <_start-0x3fe072cc>
 130:	49053b0b 	stmdbmi	r5, {r0, r1, r3, r8, r9, fp, ip, sp}
 134:	000a0213 	andeq	r0, sl, r3, lsl r2
 138:	00181600 	andseq	r1, r8, r0, lsl #12
 13c:	34170000 	ldrcc	r0, [r7]
 140:	3a0e0300 	bcc	380d48 <_start-0x3fc872b8>
 144:	49053b0b 	stmdbmi	r5, {r0, r1, r3, r8, r9, fp, ip, sp}
 148:	000a0213 	andeq	r0, sl, r3, lsl r2
 14c:	012e1800 	teqeq	lr, r0, lsl #16
 150:	0e030c3f 	mcreq	12, 0, r0, cr3, cr15, {1}
 154:	053b0b3a 	ldreq	r0, [fp, #-2874]!	; 0xb3a
 158:	01110c27 	tsteq	r1, r7, lsr #24
 15c:	06400112 			; <UNDEFINED> instruction: 0x06400112
 160:	00001301 	andeq	r1, r0, r1, lsl #6
 164:	03003419 	movweq	r3, #1049	; 0x419
 168:	3b0b3a0e 	blcc	2ce9a8 <_start-0x3fd39658>
 16c:	3f13490b 	svccc	0x0013490b
 170:	000c3c0c 	andeq	r3, ip, ip, lsl #24
 174:	00341a00 	eorseq	r1, r4, r0, lsl #20
 178:	0b3a0e03 	bleq	e8398c <_start-0x3f184674>
 17c:	13490b3b 	movtne	r0, #39739	; 0x9b3b
 180:	0a020c3f 	beq	83284 <_start-0x3ff84d7c>
 184:	01000000 	mrseq	r0, (UNDEF: 0)
 188:	0e250111 	mcreq	1, 1, r0, cr5, cr1, {0}
 18c:	0e030b13 	vmoveq.32	d3[0], r0
 190:	01110e1b 	tsteq	r1, fp, lsl lr
 194:	06100112 			; <UNDEFINED> instruction: 0x06100112
 198:	24020000 	strcs	r0, [r2]
 19c:	3e0b0b00 	vmlacc.f64	d0, d11, d0
 1a0:	000e030b 	andeq	r0, lr, fp, lsl #6
 1a4:	01130300 	tsteq	r3, r0, lsl #6
 1a8:	0b3a0b0b 	bleq	e82ddc <_start-0x3f185224>
 1ac:	1301053b 	movwne	r0, #5435	; 0x153b
 1b0:	0d040000 	stceq	0, cr0, [r4]
 1b4:	3a080300 	bcc	200dbc <_start-0x3fe07244>
 1b8:	49053b0b 	stmdbmi	r5, {r0, r1, r3, r8, r9, fp, ip, sp}
 1bc:	000a3813 	andeq	r3, sl, r3, lsl r8
 1c0:	000d0500 	andeq	r0, sp, r0, lsl #10
 1c4:	0b3a0e03 	bleq	e839d8 <_start-0x3f184628>
 1c8:	1349053b 	movtne	r0, #38203	; 0x953b
 1cc:	00000a38 	andeq	r0, r0, r8, lsr sl
 1d0:	03001606 	movweq	r1, #1542	; 0x606
 1d4:	3b0b3a0e 	blcc	2cea14 <_start-0x3fd395ec>
 1d8:	00134905 	andseq	r4, r3, r5, lsl #18
 1dc:	002e0700 	eoreq	r0, lr, r0, lsl #14
 1e0:	0e030c3f 	mcreq	12, 0, r0, cr3, cr15, {1}
 1e4:	0b3b0b3a 	bleq	ec2ed4 <_start-0x3f14512c>
 1e8:	01120111 	tsteq	r2, r1, lsl r1
 1ec:	00000640 	andeq	r0, r0, r0, asr #12
 1f0:	3f012e08 	svccc	0x00012e08
 1f4:	3a0e030c 	bcc	380e2c <_start-0x3fc871d4>
 1f8:	270b3b0b 	strcs	r3, [fp, -fp, lsl #22]
 1fc:	1201110c 	andne	r1, r1, #3
 200:	01064001 	tsteq	r6, r1
 204:	09000013 	stmdbeq	r0, {r0, r1, r4}
 208:	0e030005 	cdpeq	0, 0, cr0, cr3, cr5, {0}
 20c:	0b3b0b3a 	bleq	ec2efc <_start-0x3f145104>
 210:	0a021349 	beq	84f3c <_start-0x3ff830c4>
 214:	260a0000 	strcs	r0, [sl], -r0
 218:	00134900 	andseq	r4, r3, r0, lsl #18
 21c:	000f0b00 	andeq	r0, pc, r0, lsl #22
 220:	13490b0b 	movtne	r0, #39691	; 0x9b0b
 224:	01000000 	mrseq	r0, (UNDEF: 0)
 228:	06100011 			; <UNDEFINED> instruction: 0x06100011
 22c:	01120111 	tsteq	r2, r1, lsl r1
 230:	081b0803 	ldmdaeq	fp, {r0, r1, fp}
 234:	05130825 	ldreq	r0, [r3, #-2085]	; 0x825
 238:	01000000 	mrseq	r0, (UNDEF: 0)
 23c:	06100011 			; <UNDEFINED> instruction: 0x06100011
 240:	01120111 	tsteq	r2, r1, lsl r1
 244:	081b0803 	ldmdaeq	fp, {r0, r1, fp}
 248:	05130825 	ldreq	r0, [r3, #-2085]	; 0x825
 24c:	01000000 	mrseq	r0, (UNDEF: 0)
 250:	0e250111 	mcreq	1, 1, r0, cr5, cr1, {0}
 254:	0e030b13 	vmoveq.32	d3[0], r0
 258:	01110e1b 	tsteq	r1, fp, lsl lr
 25c:	06100112 			; <UNDEFINED> instruction: 0x06100112
 260:	24020000 	strcs	r0, [r2]
 264:	3e0b0b00 	vmlacc.f64	d0, d11, d0
 268:	000e030b 	andeq	r0, lr, fp, lsl #6
 26c:	01130300 	tsteq	r3, r0, lsl #6
 270:	0b3a0b0b 	bleq	e82ea4 <_start-0x3f18515c>
 274:	1301053b 	movwne	r0, #5435	; 0x153b
 278:	0d040000 	stceq	0, cr0, [r4]
 27c:	3a0e0300 	bcc	380e84 <_start-0x3fc8717c>
 280:	49053b0b 	stmdbmi	r5, {r0, r1, r3, r8, r9, fp, ip, sp}
 284:	000a3813 	andeq	r3, sl, r3, lsl r8
 288:	00160500 	andseq	r0, r6, r0, lsl #10
 28c:	0b3a0803 	bleq	e822a0 <_start-0x3f185d60>
 290:	1349053b 	movtne	r0, #38203	; 0x953b
 294:	0d060000 	stceq	0, cr0, [r6]
 298:	3a080300 	bcc	200ea0 <_start-0x3fe07160>
 29c:	49053b0b 	stmdbmi	r5, {r0, r1, r3, r8, r9, fp, ip, sp}
 2a0:	000a3813 	andeq	r3, sl, r3, lsl r8
 2a4:	00160700 	andseq	r0, r6, r0, lsl #14
 2a8:	0b3a0e03 	bleq	e83abc <_start-0x3f184544>
 2ac:	1349053b 	movtne	r0, #38203	; 0x953b
 2b0:	2e080000 	cdpcs	0, 0, cr0, cr8, cr0, {0}
 2b4:	030c3f01 	movweq	r3, #52993	; 0xcf01
 2b8:	3b0b3a0e 	blcc	2ceaf8 <_start-0x3fd39508>
 2bc:	110c270b 	tstne	ip, fp, lsl #14
 2c0:	40011201 	andmi	r1, r1, r1, lsl #4
 2c4:	00130106 	andseq	r0, r3, r6, lsl #2
 2c8:	00340900 	eorseq	r0, r4, r0, lsl #18
 2cc:	0b3a0e03 	bleq	e83ae0 <_start-0x3f184520>
 2d0:	13490b3b 	movtne	r0, #39739	; 0x9b3b
 2d4:	00000a02 	andeq	r0, r0, r2, lsl #20
 2d8:	3f012e0a 	svccc	0x00012e0a
 2dc:	3a0e030c 	bcc	380f14 <_start-0x3fc870ec>
 2e0:	490b3b0b 	stmdbmi	fp, {r0, r1, r3, r8, r9, fp, ip, sp}
 2e4:	000c3c13 	andeq	r3, ip, r3, lsl ip
 2e8:	00180b00 	andseq	r0, r8, r0, lsl #22
 2ec:	240c0000 	strcs	r0, [ip]
 2f0:	3e0b0b00 	vmlacc.f64	d0, d11, d0
 2f4:	0008030b 	andeq	r0, r8, fp, lsl #6
 2f8:	00050d00 	andeq	r0, r5, r0, lsl #26
 2fc:	0b3a0e03 	bleq	e83b10 <_start-0x3f1844f0>
 300:	13490b3b 	movtne	r0, #39739	; 0x9b3b
 304:	00000a02 	andeq	r0, r0, r2, lsl #20
 308:	0300340e 	movweq	r3, #1038	; 0x40e
 30c:	3b0b3a08 	blcc	2ceb34 <_start-0x3fd394cc>
 310:	0213490b 	andseq	r4, r3, #180224	; 0x2c000
 314:	0f00000a 	svceq	0x0000000a
 318:	0c3f002e 	ldceq	0, cr0, [pc], #-184	; 268 <_start-0x40007d98>
 31c:	0b3a0e03 	bleq	e83b30 <_start-0x3f1844d0>
 320:	01110b3b 	tsteq	r1, fp, lsr fp
 324:	06400112 			; <UNDEFINED> instruction: 0x06400112
 328:	2e100000 	cdpcs	0, 1, cr0, cr0, cr0, {0}
 32c:	030c3f01 	movweq	r3, #52993	; 0xcf01
 330:	3b0b3a0e 	blcc	2ceb70 <_start-0x3fd39490>
 334:	490c270b 	stmdbmi	ip, {r0, r1, r3, r8, r9, sl, sp}
 338:	12011113 	andne	r1, r1, #-1073741820	; 0xc0000004
 33c:	00064001 	andeq	r4, r6, r1
	...

Disassembly of section .debug_aranges:

00000000 <.debug_aranges>:
   0:	0000001c 	andeq	r0, r0, ip, lsl r0
   4:	00000002 	andeq	r0, r0, r2
   8:	00040000 	andeq	r0, r4, r0
   c:	00000000 	andeq	r0, r0, r0
  10:	40008000 	andmi	r8, r0, r0
  14:	00000134 	andeq	r0, r0, r4, lsr r1
	...
  20:	0000001c 	andeq	r0, r0, ip, lsl r0
  24:	00750002 	rsbseq	r0, r5, r2
  28:	00040000 	andeq	r0, r4, r0
  2c:	00000000 	andeq	r0, r0, r0
  30:	40008140 	andmi	r8, r0, r0, asr #2
  34:	000011f4 	strdeq	r1, [r0], -r4
	...
  40:	0000001c 	andeq	r0, r0, ip, lsl r0
  44:	05370002 	ldreq	r0, [r7, #-2]!
  48:	00040000 	andeq	r0, r4, r0
  4c:	00000000 	andeq	r0, r0, r0
  50:	40009334 	andmi	r9, r0, r4, lsr r3
  54:	0000010c 	andeq	r0, r0, ip, lsl #2
	...
  60:	0000001c 	andeq	r0, r0, ip, lsl r0
  64:	07480002 	strbeq	r0, [r8, -r2]
  68:	00040000 	andeq	r0, r4, r0
  6c:	00000000 	andeq	r0, r0, r0
  70:	40009440 	andmi	r9, r0, r0, asr #8
  74:	00000094 	muleq	r0, r4, r0
	...
  80:	0000001c 	andeq	r0, r0, ip, lsl r0
  84:	07c50002 	strbeq	r0, [r5, r2]
  88:	00040000 	andeq	r0, r4, r0
  8c:	00000000 	andeq	r0, r0, r0
  90:	400094d4 	ldrdmi	r9, [r0], -r4
  94:	000000b0 	strheq	r0, [r0], -r0	; <UNPREDICTABLE>
	...
  a0:	0000001c 	andeq	r0, r0, ip, lsl r0
  a4:	08420002 	stmdaeq	r2, {r1}^
  a8:	00040000 	andeq	r0, r4, r0
  ac:	00000000 	andeq	r0, r0, r0
  b0:	40009584 	andmi	r9, r0, r4, lsl #11
  b4:	00000218 	andeq	r0, r0, r8, lsl r2
	...

Disassembly of section .debug_loc:

00000000 <.debug_loc>:
   0:	00000000 	andeq	r0, r0, r0
   4:	00000004 	andeq	r0, r0, r4
   8:	007d0002 	rsbseq	r0, sp, r2
   c:	00000004 	andeq	r0, r0, r4
  10:	00000008 	andeq	r0, r0, r8
  14:	047d0002 	ldrbteq	r0, [sp], #-2
  18:	00000008 	andeq	r0, r0, r8
  1c:	00000050 	andeq	r0, r0, r0, asr r0
  20:	047b0002 	ldrbteq	r0, [fp], #-2
	...
  2c:	00000050 	andeq	r0, r0, r0, asr r0
  30:	00000054 	andeq	r0, r0, r4, asr r0
  34:	007d0002 	rsbseq	r0, sp, r2
  38:	00000054 	andeq	r0, r0, r4, asr r0
  3c:	00000058 	andeq	r0, r0, r8, asr r0
  40:	087d0002 	ldmdaeq	sp!, {r1}^
  44:	00000058 	andeq	r0, r0, r8, asr r0
  48:	000001f8 	strdeq	r0, [r0], -r8
  4c:	047b0002 	ldrbteq	r0, [fp], #-2
	...
  58:	000001f8 	strdeq	r0, [r0], -r8
  5c:	000001fc 	strdeq	r0, [r0], -ip
  60:	007d0002 	rsbseq	r0, sp, r2
  64:	000001fc 	strdeq	r0, [r0], -ip
  68:	00000200 	andeq	r0, r0, r0, lsl #4
  6c:	087d0002 	ldmdaeq	sp!, {r1}^
  70:	00000200 	andeq	r0, r0, r0, lsl #4
  74:	00000268 	andeq	r0, r0, r8, ror #4
  78:	047b0002 	ldrbteq	r0, [fp], #-2
	...
  84:	00000268 	andeq	r0, r0, r8, ror #4
  88:	0000026c 	andeq	r0, r0, ip, ror #4
  8c:	007d0002 	rsbseq	r0, sp, r2
  90:	0000026c 	andeq	r0, r0, ip, ror #4
  94:	00000270 	andeq	r0, r0, r0, ror r2
  98:	047d0002 	ldrbteq	r0, [sp], #-2
  9c:	00000270 	andeq	r0, r0, r0, ror r2
  a0:	000002fc 	strdeq	r0, [r0], -ip
  a4:	047b0002 	ldrbteq	r0, [fp], #-2
	...
  b0:	000002fc 	strdeq	r0, [r0], -ip
  b4:	00000300 	andeq	r0, r0, r0, lsl #6
  b8:	007d0002 	rsbseq	r0, sp, r2
  bc:	00000300 	andeq	r0, r0, r0, lsl #6
  c0:	00000304 	andeq	r0, r0, r4, lsl #6
  c4:	087d0002 	ldmdaeq	sp!, {r1}^
  c8:	00000304 	andeq	r0, r0, r4, lsl #6
  cc:	00000794 	muleq	r0, r4, r7
  d0:	047b0002 	ldrbteq	r0, [fp], #-2
	...
  dc:	00000794 	muleq	r0, r4, r7
  e0:	00000798 	muleq	r0, r8, r7
  e4:	007d0002 	rsbseq	r0, sp, r2
  e8:	00000798 	muleq	r0, r8, r7
  ec:	0000079c 	muleq	r0, ip, r7
  f0:	047d0002 	ldrbteq	r0, [sp], #-2
  f4:	0000079c 	muleq	r0, ip, r7
  f8:	00000814 	andeq	r0, r0, r4, lsl r8
  fc:	047b0002 	ldrbteq	r0, [fp], #-2
	...
 108:	00000814 	andeq	r0, r0, r4, lsl r8
 10c:	00000818 	andeq	r0, r0, r8, lsl r8
 110:	007d0002 	rsbseq	r0, sp, r2
 114:	00000818 	andeq	r0, r0, r8, lsl r8
 118:	0000081c 	andeq	r0, r0, ip, lsl r8
 11c:	087d0002 	ldmdaeq	sp!, {r1}^
 120:	0000081c 	andeq	r0, r0, ip, lsl r8
 124:	0000114c 	andeq	r1, r0, ip, asr #2
 128:	047b0002 	ldrbteq	r0, [fp], #-2
	...
 134:	0000114c 	andeq	r1, r0, ip, asr #2
 138:	00001150 	andeq	r1, r0, r0, asr r1
 13c:	007d0002 	rsbseq	r0, sp, r2
 140:	00001150 	andeq	r1, r0, r0, asr r1
 144:	00001154 	andeq	r1, r0, r4, asr r1
 148:	0c7d0002 	ldcleq	0, cr0, [sp], #-8
 14c:	00001154 	andeq	r1, r0, r4, asr r1
 150:	00001158 	andeq	r1, r0, r8, asr r1
 154:	147d0002 	ldrbtne	r0, [sp], #-2
 158:	00001158 	andeq	r1, r0, r8, asr r1
 15c:	0000119c 	muleq	r0, ip, r1
 160:	107b0002 	rsbsne	r0, fp, r2
	...
 16c:	0000119c 	muleq	r0, ip, r1
 170:	000011a0 	andeq	r1, r0, r0, lsr #3
 174:	007d0002 	rsbseq	r0, sp, r2
 178:	000011a0 	andeq	r1, r0, r0, lsr #3
 17c:	000011a4 	andeq	r1, r0, r4, lsr #3
 180:	107d0002 	rsbsne	r0, sp, r2
 184:	000011a4 	andeq	r1, r0, r4, lsr #3
 188:	000011a8 	andeq	r1, r0, r8, lsr #3
 18c:	187d0002 	ldmdane	sp!, {r1}^
 190:	000011a8 	andeq	r1, r0, r8, lsr #3
 194:	000011f4 	strdeq	r1, [r0], -r4
 198:	147b0002 	ldrbtne	r0, [fp], #-2
	...
 1a8:	00000004 	andeq	r0, r0, r4
 1ac:	007d0002 	rsbseq	r0, sp, r2
 1b0:	00000004 	andeq	r0, r0, r4
 1b4:	00000008 	andeq	r0, r0, r8
 1b8:	047d0002 	ldrbteq	r0, [sp], #-2
 1bc:	00000008 	andeq	r0, r0, r8
 1c0:	00000064 	andeq	r0, r0, r4, rrx
 1c4:	047b0002 	ldrbteq	r0, [fp], #-2
	...
 1d0:	00000064 	andeq	r0, r0, r4, rrx
 1d4:	00000068 	andeq	r0, r0, r8, rrx
 1d8:	007d0002 	rsbseq	r0, sp, r2
 1dc:	00000068 	andeq	r0, r0, r8, rrx
 1e0:	0000006c 	andeq	r0, r0, ip, rrx
 1e4:	087d0002 	ldmdaeq	sp!, {r1}^
 1e8:	0000006c 	andeq	r0, r0, ip, rrx
 1ec:	000000c0 	andeq	r0, r0, r0, asr #1
 1f0:	047b0002 	ldrbteq	r0, [fp], #-2
	...
 1fc:	000000c0 	andeq	r0, r0, r0, asr #1
 200:	000000c4 	andeq	r0, r0, r4, asr #1
 204:	007d0002 	rsbseq	r0, sp, r2
 208:	000000c4 	andeq	r0, r0, r4, asr #1
 20c:	000000c8 	andeq	r0, r0, r8, asr #1
 210:	087d0002 	ldmdaeq	sp!, {r1}^
 214:	000000c8 	andeq	r0, r0, r8, asr #1
 218:	0000010c 	andeq	r0, r0, ip, lsl #2
 21c:	047b0002 	ldrbteq	r0, [fp], #-2
	...
 22c:	00000004 	andeq	r0, r0, r4
 230:	007d0002 	rsbseq	r0, sp, r2
 234:	00000004 	andeq	r0, r0, r4
 238:	00000008 	andeq	r0, r0, r8
 23c:	087d0002 	ldmdaeq	sp!, {r1}^
 240:	00000008 	andeq	r0, r0, r8
 244:	0000006c 	andeq	r0, r0, ip, rrx
 248:	047b0002 	ldrbteq	r0, [fp], #-2
	...
 254:	0000006c 	andeq	r0, r0, ip, rrx
 258:	00000070 	andeq	r0, r0, r0, ror r0
 25c:	007d0002 	rsbseq	r0, sp, r2
 260:	00000070 	andeq	r0, r0, r0, ror r0
 264:	00000074 	andeq	r0, r0, r4, ror r0
 268:	047d0002 	ldrbteq	r0, [sp], #-2
 26c:	00000074 	andeq	r0, r0, r4, ror r0
 270:	00000104 	andeq	r0, r0, r4, lsl #2
 274:	047b0002 	ldrbteq	r0, [fp], #-2
	...
 280:	00000104 	andeq	r0, r0, r4, lsl #2
 284:	00000108 	andeq	r0, r0, r8, lsl #2
 288:	007d0002 	rsbseq	r0, sp, r2
 28c:	00000108 	andeq	r0, r0, r8, lsl #2
 290:	0000010c 	andeq	r0, r0, ip, lsl #2
 294:	047d0002 	ldrbteq	r0, [sp], #-2
 298:	0000010c 	andeq	r0, r0, ip, lsl #2
 29c:	0000013c 	andeq	r0, r0, ip, lsr r1
 2a0:	047b0002 	ldrbteq	r0, [fp], #-2
	...
 2ac:	0000013c 	andeq	r0, r0, ip, lsr r1
 2b0:	00000140 	andeq	r0, r0, r0, asr #2
 2b4:	007d0002 	rsbseq	r0, sp, r2
 2b8:	00000140 	andeq	r0, r0, r0, asr #2
 2bc:	00000144 	andeq	r0, r0, r4, asr #2
 2c0:	087d0002 	ldmdaeq	sp!, {r1}^
 2c4:	00000144 	andeq	r0, r0, r4, asr #2
 2c8:	00000218 	andeq	r0, r0, r8, lsl r2
 2cc:	047b0002 	ldrbteq	r0, [fp], #-2
	...

Disassembly of section .debug_str:

00000000 <.debug_str>:
   0:	415c3a47 	cmpmi	ip, r7, asr #20
   4:	415c4d52 	cmpmi	ip, r2, asr sp
   8:	342d4d52 	strtcc	r4, [sp], #-3410	; 0xd52
   c:	2d323134 	ldfcss	f3, [r2, #-208]!	; 0xffffff30
  10:	cebf3941 	cdpgt	9, 11, cr3, cr15, cr1, {2}
  14:	cad7ccb3 	bgt	ff5f32e8 <_ctype+0xbf5e9284>
  18:	415ccfc1 	cmpmi	ip, r1, asr #31
  1c:	e3c24d52 	bic	r4, r2, #5248	; 0x1480
  20:	cad7fabb 	bgt	ff5feb14 <_ctype+0xbf5f4ab0>
  24:	462dcfc1 	strtmi	ip, [sp], -r1, asr #31
  28:	31343453 	teqcc	r4, r3, asr r4
  2c:	b5ca5c32 	strblt	r5, [sl, #3122]	; 0xc32
  30:	fab4e9d1 	blx	fed3a77c <_ctype+0xbed30718>
  34:	395cebc2 	ldmdbcc	ip, {r1, r6, r7, r8, r9, fp, sp, lr, pc}^
  38:	5444572e 	strbpl	r5, [r4], #-1838	; 0x72e
  3c:	544e495f 	strbpl	r4, [lr], #-2399	; 0x95f
  40:	625f5f00 	subsvs	r5, pc, #0
  44:	746c6975 	strbtvc	r6, [ip], #-2421	; 0x975
  48:	765f6e69 	ldrbvc	r6, [pc], -r9, ror #28
  4c:	696c5f61 	stmdbvs	ip!, {r0, r5, r6, r8, r9, sl, fp, ip, lr}^
  50:	73007473 	movwvc	r7, #1139	; 0x473
  54:	6c706d69 	ldclvs	13, cr6, [r0], #-420	; 0xfffffe5c
  58:	74735f65 	ldrbtvc	r5, [r3], #-3941	; 0xf65
  5c:	756f7472 	strbvc	r7, [pc, #-1138]!	; fffffbf2 <_ctype+0xbfff5b8e>
  60:	6176006c 	cmnvs	r6, ip, rrx
  64:	0065756c 	rsbeq	r7, r5, ip, ror #10
  68:	6e756f63 	cdpvs	15, 7, cr6, cr5, cr3, {3}
  6c:	6b730074 	blvs	1cc0244 <_start-0x3e347dbc>
  70:	615f7069 	cmpvs	pc, r9, rrx
  74:	00696f74 	rsbeq	r6, r9, r4, ror pc
  78:	6f745f5f 	svcvs	0x00745f5f
  7c:	65707075 	ldrbvs	r7, [r0, #-117]!	; 0x75
  80:	5f5f0072 	svcpl	0x005f0072
  84:	63756e67 	cmnvs	r5, #1648	; 0x670
  88:	5f61765f 	svcpl	0x0061765f
  8c:	7473696c 	ldrbtvc	r6, [r3], #-2412	; 0x96c
  90:	65727000 	ldrbvs	r7, [r2]!
  94:	69736963 	ldmdbvs	r3!, {r0, r1, r5, r6, r8, fp, sp, lr}^
  98:	75006e6f 	strvc	r6, [r0, #-3695]	; 0xe6f
  9c:	6769736e 	strbvs	r7, [r9, -lr, ror #6]!
  a0:	2064656e 	rsbcs	r6, r4, lr, ror #10
  a4:	72616863 	rsbvc	r6, r1, #6488064	; 0x630000
  a8:	73616200 	cmnvc	r1, #0
  ac:	4e470065 	cdpmi	0, 4, cr0, cr7, cr5, {3}
  b0:	20432055 	subcs	r2, r3, r5, asr r0
  b4:	2e362e34 	mrccs	14, 1, r2, cr6, cr4, {1}
  b8:	6f6c0032 	svcvs	0x006c0032
  bc:	7520676e 	strvc	r6, [r0, #-1902]!	; 0x76e
  c0:	6769736e 	strbvs	r7, [r9, -lr, ror #6]!
  c4:	2064656e 	rsbcs	r6, r4, lr, ror #10
  c8:	00746e69 	rsbseq	r6, r4, r9, ror #28
  cc:	706d6973 	rsbvc	r6, sp, r3, ror r9
  d0:	735f656c 	cmpvc	pc, #452984832	; 0x1b000000
  d4:	6f747274 	svcvs	0x00747274
  d8:	6f63006c 	svcvs	0x0063006c
  dc:	6e6f6d6d 	cdpvs	13, 6, cr6, cr15, cr13, {3}
  e0:	6372732f 	cmnvs	r2, #-1140850688	; 0xbc000000
  e4:	6972702f 	ldmdbvs	r2!, {r0, r1, r2, r3, r5, ip, sp, lr}^
  e8:	2e66746e 	cdpcs	4, 6, cr7, cr6, cr14, {3}
  ec:	6c660063 	stclvs	0, cr0, [r6], #-396	; 0xfffffe74
  f0:	00736761 	rsbseq	r6, r3, r1, ror #14
  f4:	6c617571 	cfstr64vs	mvdx7, [r1], #-452	; 0xfffffe3c
  f8:	65696669 	strbvs	r6, [r9, #-1641]!	; 0x669
  fc:	65720072 	ldrbvs	r0, [r2, #-114]!	; 0x72
 100:	746c7573 	strbtvc	r7, [ip], #-1395	; 0x573
 104:	70657200 	rsbvc	r7, r5, r0, lsl #4
 108:	00746165 	rsbseq	r6, r4, r5, ror #2
 10c:	6e727473 	mrcvs	4, 3, r7, cr2, cr3, {3}
 110:	006e656c 	rsbeq	r6, lr, ip, ror #10
 114:	70646e65 	rsbvc	r6, r4, r5, ror #28
 118:	74635f00 	strbtvc	r5, [r3], #-3840	; 0xf00
 11c:	00657079 	rsbeq	r7, r5, r9, ror r0
 120:	69676964 	stmdbvs	r7!, {r2, r5, r6, r8, fp, sp, lr}^
 124:	70007374 	andvc	r7, r0, r4, ror r3
 128:	746e6972 	strbtvc	r6, [lr], #-2418	; 0x972
 12c:	66667562 	strbtvs	r7, [r6], -r2, ror #10
 130:	66007265 	strvs	r7, [r0], -r5, ror #4
 134:	646c6569 	strbtvs	r6, [ip], #-1385	; 0x569
 138:	6469775f 	strbtvs	r7, [r9], #-1887	; 0x75f
 13c:	61006874 	tstvs	r0, r4, ror r8
 140:	00736772 	rsbseq	r6, r3, r2, ror r7
 144:	626d756e 	rsbvs	r7, sp, #461373440	; 0x1b800000
 148:	6c007265 	sfmvs	f7, 4, [r0], {101}	; 0x65
 14c:	20676e6f 	rsbcs	r6, r7, pc, ror #28
 150:	00746e69 	rsbseq	r6, r4, r9, ror #28
 154:	6e676973 	mcrvs	9, 3, r6, cr7, cr3, {3}
 158:	725f5f00 	subsvc	r5, pc, #0
 15c:	73007365 	movwvc	r7, #869	; 0x365
 160:	00657a69 	rsbeq	r7, r5, r9, ror #20
 164:	72707376 	rsbsvc	r7, r0, #-671088639	; 0xd8000001
 168:	66746e69 	ldrbtvs	r6, [r4], -r9, ror #28
 16c:	72617500 	rsbvc	r7, r1, #0
 170:	55003274 	strpl	r3, [r0, #-628]	; 0x274
 174:	50544e49 	subspl	r4, r4, r9, asr #28
 178:	49550032 	ldmdbmi	r5, {r1, r4, r5}^
 17c:	5053544e 	subspl	r5, r3, lr, asr #8
 180:	42550032 	subsmi	r0, r5, #50	; 0x32
 184:	56494452 			; <UNDEFINED> instruction: 0x56494452
 188:	73700032 	cmnvc	r0, #50	; 0x32
 18c:	55007274 	strpl	r7, [r0, #-628]	; 0x274
 190:	41545346 	cmpmi	r4, r6, asr #6
 194:	55003254 	strpl	r3, [r0, #-596]	; 0x254
 198:	54535254 	ldrbpl	r5, [r3], #-596	; 0x254
 19c:	00325441 	eorseq	r5, r2, r1, asr #8
 1a0:	74726175 	ldrbtvc	r6, [r2], #-373	; 0x175
 1a4:	696e695f 	stmdbvs	lr!, {r0, r1, r2, r3, r4, r6, r8, fp, sp, lr}^
 1a8:	61640074 	smcvs	16388	; 0x4004
 1ac:	55006174 	strpl	r6, [r0, #-372]	; 0x174
 1b0:	4e4f4346 	cdpmi	3, 4, cr4, cr15, cr6, {2}
 1b4:	54550032 	ldrbpl	r0, [r5], #-50	; 0x32
 1b8:	00324858 	eorseq	r4, r2, r8, asr r8
 1bc:	504e4f43 	subpl	r4, lr, r3, asr #30
 1c0:	55004e44 	strpl	r4, [r0, #-3652]	; 0xe44
 1c4:	324e4f43 	subcc	r4, lr, #268	; 0x10c
 1c8:	534d5500 	movtpl	r5, #54528	; 0xd500
 1cc:	32544154 	subscc	r4, r4, #21
 1d0:	4e495500 	cdpmi	5, 4, cr5, cr9, cr0, {0}
 1d4:	00324d54 	eorseq	r4, r2, r4, asr sp
 1d8:	4f434c55 	svcmi	0x00434c55
 1dc:	6700324e 	strvs	r3, [r0, -lr, asr #4]
 1e0:	00316170 	eorseq	r6, r1, r0, ror r1
 1e4:	63747570 	cmnvs	r4, #469762048	; 0x1c000000
 1e8:	52455500 	subpl	r5, r5, #0
 1ec:	54415453 	strbpl	r5, [r1], #-1107	; 0x453
 1f0:	55500032 	ldrbpl	r0, [r0, #-50]	; 0x32
 1f4:	4e445044 	cdpmi	0, 4, cr5, cr4, cr4, {2}
 1f8:	6d6f6300 	stclvs	3, cr6, [pc]	; 200 <_start-0x40007e00>
 1fc:	2f6e6f6d 	svccs	0x006e6f6d
 200:	2f637273 	svccs	0x00637273
 204:	74726175 	ldrbtvc	r6, [r2], #-373	; 0x175
 208:	7000632e 	andvc	r6, r0, lr, lsr #6
 20c:	00737475 	rsbseq	r7, r3, r5, ror r4
 210:	4f434d55 	svcmi	0x00434d55
 214:	5500324e 	strpl	r3, [r0, #-590]	; 0x24e
 218:	32485852 	subcc	r5, r8, #5373952	; 0x520000
 21c:	52465500 	subpl	r5, r6, #0
 220:	41564341 	cmpmi	r6, r1, asr #6
 224:	4900324c 	stmdbmi	r0, {r2, r3, r6, r9, ip, sp}
 228:	50494443 	subpl	r4, r9, r3, asr #8
 22c:	38335254 	ldmdacc	r3!, {r2, r4, r6, r9, ip, lr}
 230:	544e4900 	strbpl	r4, [lr], #-2304	; 0x900
 234:	55525245 	ldrbpl	r5, [r2, #-581]	; 0x245
 238:	4f5f5450 	svcmi	0x005f5450
 23c:	57005455 	smlsdpl	r0, r5, r4, r5
 240:	54414454 	strbpl	r4, [r1], #-1108	; 0x454
 244:	69616d00 	stmdbvs	r1!, {r8, sl, fp, sp, lr}^
 248:	4349006e 	movtmi	r0, #36974	; 0x906e
 24c:	494f4543 	stmdbmi	pc, {r0, r1, r6, r8, sl, lr}^	; <UNPREDICTABLE>
 250:	43490052 	movtmi	r0, #36946	; 0x9052
 254:	54504944 	ldrbpl	r4, [r0], #-2372	; 0x944
 258:	435f3652 	cmpmi	pc, #85983232	; 0x5200000
 25c:	00305550 	eorseq	r5, r0, r0, asr r5
 260:	5f717269 	svcpl	0x00717269
 264:	006d756e 	rsbeq	r7, sp, lr, ror #10
 268:	42434349 	submi	r4, r3, #603979777	; 0x24000001
 26c:	49005250 	stmdbmi	r0, {r4, r6, r9, ip, lr}
 270:	50494443 	subpl	r4, r9, r3, asr #8
 274:	30315254 	eorscc	r5, r1, r4, asr r2
 278:	44434900 	strbmi	r4, [r3], #-2304	; 0x900
 27c:	52545049 	subspl	r5, r4, #73	; 0x49
 280:	49003131 	stmdbmi	r0, {r0, r4, r5, r8, ip, sp}
 284:	50494443 	subpl	r4, r9, r3, asr #8
 288:	32315254 	eorscc	r5, r1, #1073741829	; 0x40000005
 28c:	44434900 	strbmi	r4, [r3], #-2304	; 0x900
 290:	52545049 	subspl	r5, r4, #73	; 0x49
 294:	49003331 	stmdbmi	r0, {r0, r4, r5, r8, r9, ip, sp}
 298:	50494443 	subpl	r4, r9, r3, asr #8
 29c:	34315254 	ldrtcc	r5, [r1], #-596	; 0x254
 2a0:	44434900 	strbmi	r4, [r3], #-2304	; 0x900
 2a4:	52545049 	subspl	r5, r4, #73	; 0x49
 2a8:	49003531 	stmdbmi	r0, {r0, r4, r5, r8, sl, ip, sp}
 2ac:	50494443 	subpl	r4, r9, r3, asr #8
 2b0:	36315254 			; <UNDEFINED> instruction: 0x36315254
 2b4:	44434900 	strbmi	r4, [r3], #-2304	; 0x900
 2b8:	52545049 	subspl	r5, r4, #73	; 0x49
 2bc:	49003731 	stmdbmi	r0, {r0, r4, r5, r8, r9, sl, ip, sp}
 2c0:	50494443 	subpl	r4, r9, r3, asr #8
 2c4:	38315254 	ldmdacc	r1!, {r2, r4, r6, r9, ip, lr}
 2c8:	44434900 	strbmi	r4, [r3], #-2304	; 0x900
 2cc:	52545049 	subspl	r5, r4, #73	; 0x49
 2d0:	77003931 	smladxvc	r0, r1, r9, r3
 2d4:	695f7464 	ldmdbvs	pc, {r2, r5, r6, sl, ip, sp, lr}^	; <UNPREDICTABLE>
 2d8:	0074696e 	rsbseq	r6, r4, lr, ror #18
 2dc:	49444349 	stmdbmi	r4, {r0, r3, r6, r8, r9, lr}^
 2e0:	37525450 			; <UNDEFINED> instruction: 0x37525450
 2e4:	5550435f 	ldrbpl	r4, [r0, #-863]	; 0x35f
 2e8:	4e490030 	mcrmi	0, 2, r0, cr9, cr0, {1}
 2ec:	5f474554 	svcpl	0x00474554
 2f0:	49004e45 	stmdbmi	r0, {r0, r2, r6, r9, sl, fp, lr}
 2f4:	50494443 	subpl	r4, r9, r3, asr #8
 2f8:	5f355254 	svcpl	0x00355254
 2fc:	30555043 	subscc	r5, r5, r3, asr #32
 300:	44434900 	strbmi	r4, [r3], #-2304	; 0x900
 304:	52545049 	subspl	r5, r4, #73	; 0x49
 308:	43490038 	movtmi	r0, #36920	; 0x9038
 30c:	54504944 	ldrbpl	r4, [r0], #-2372	; 0x944
 310:	49003952 	stmdbmi	r0, {r1, r4, r6, r8, fp, ip, sp}
 314:	41494343 	cmpmi	r9, r3, asr #6
 318:	43490052 	movtmi	r0, #36946	; 0x9052
 31c:	54504944 	ldrbpl	r4, [r0], #-2372	; 0x944
 320:	00323252 	eorseq	r3, r2, r2, asr r2
 324:	49444349 	stmdbmi	r4, {r0, r3, r6, r8, r9, lr}^
 328:	32525450 	subscc	r5, r2, #1342177280	; 0x50000000
 32c:	43490030 	movtmi	r0, #36912	; 0x9030
 330:	54504944 	ldrbpl	r4, [r0], #-2372	; 0x944
 334:	00313252 	eorseq	r3, r1, r2, asr r2
 338:	41434349 	cmpmi	r3, r9, asr #6
 33c:	00525042 	subseq	r5, r2, r2, asr #32
 340:	49444349 	stmdbmi	r4, {r0, r3, r6, r8, r9, lr}^
 344:	32525450 	subscc	r5, r2, #1342177280	; 0x50000000
 348:	43490033 	movtmi	r0, #36915	; 0x9033
 34c:	54504944 	ldrbpl	r4, [r0], #-2372	; 0x944
 350:	00343252 	eorseq	r3, r4, r2, asr r2
 354:	49444349 	stmdbmi	r4, {r0, r3, r6, r8, r9, lr}^
 358:	32525450 	subscc	r5, r2, #1342177280	; 0x50000000
 35c:	43490035 	movtmi	r0, #36917	; 0x9035
 360:	54504944 	ldrbpl	r4, [r0], #-2372	; 0x944
 364:	00363252 	eorseq	r3, r6, r2, asr r2
 368:	49444349 	stmdbmi	r4, {r0, r3, r6, r8, r9, lr}^
 36c:	32525450 	subscc	r5, r2, #1342177280	; 0x50000000
 370:	43490037 	movtmi	r0, #36919	; 0x9037
 374:	54504944 	ldrbpl	r4, [r0], #-2372	; 0x944
 378:	00383252 	eorseq	r3, r8, r2, asr r2
 37c:	49444349 	stmdbmi	r4, {r0, r3, r6, r8, r9, lr}^
 380:	32525450 	subscc	r5, r2, #1342177280	; 0x50000000
 384:	69740039 	ldmdbvs	r4!, {r0, r3, r4, r5}^
 388:	4900656d 	stmdbmi	r0, {r0, r2, r3, r5, r6, r8, sl, sp, lr}
 38c:	50494443 	subpl	r4, r9, r3, asr #8
 390:	5f325254 	svcpl	0x00325254
 394:	30555043 	subscc	r5, r5, r3, asr #32
 398:	78706700 	ldmdavc	r0!, {r8, r9, sl, sp, lr}^
 39c:	43490032 	movtmi	r0, #36914	; 0x9032
 3a0:	54504944 	ldrbpl	r4, [r0], #-2372	; 0x944
 3a4:	435f3352 	cmpmi	pc, #1207959553	; 0x48000001
 3a8:	00305550 	eorseq	r5, r0, r0, asr r5
 3ac:	72747069 	rsbsvc	r7, r4, #105	; 0x69
 3b0:	44434900 	strbmi	r4, [r3], #-2304	; 0x900
 3b4:	52455349 	subpl	r5, r5, #603979777	; 0x24000001
 3b8:	796d0034 	stmdbvc	sp!, {r2, r4, r5}^
 3bc:	616c6564 	cmnvs	ip, r4, ror #10
 3c0:	736d5f79 	cmnvc	sp, #484	; 0x1e4
 3c4:	43545700 	cmpmi	r4, #0
 3c8:	6d00544e 	cfstrsvs	mvf5, [r0, #-312]	; 0xfffffec8
 3cc:	2e6e6961 	cdpcs	9, 6, cr6, cr14, cr1, {3}
 3d0:	43490063 	movtmi	r0, #36963	; 0x9063
 3d4:	54504944 	ldrbpl	r4, [r0], #-2372	; 0x944
 3d8:	435f3452 	cmpmi	pc, #1375731712	; 0x52000000
 3dc:	00305550 	eorseq	r5, r0, r0, asr r5
 3e0:	52434349 	subpl	r4, r3, #603979777	; 0x24000001
 3e4:	63005250 	movwvs	r5, #592	; 0x250
 3e8:	00307570 	eorseq	r7, r0, r0, ror r5
 3ec:	4c435457 	cfstrdmi	mvd5, [r3], {87}	; 0x57
 3f0:	544e4952 	strbpl	r4, [lr], #-2386	; 0x952
 3f4:	44434900 	strbmi	r4, [r3], #-2304	; 0x900
 3f8:	52545049 	subspl	r5, r4, #73	; 0x49
 3fc:	49003033 	stmdbmi	r0, {r0, r1, r4, r5, ip, sp}
 400:	4d504343 	ldclmi	3, cr4, [r0, #-268]	; 0xfffffef4
 404:	43490052 	movtmi	r0, #36946	; 0x9052
 408:	54504944 	ldrbpl	r4, [r0], #-2372	; 0x944
 40c:	00323352 	eorseq	r3, r2, r2, asr r3
 410:	49444349 	stmdbmi	r4, {r0, r3, r6, r8, r9, lr}^
 414:	33525450 	cmpcc	r2, #1342177280	; 0x50000000
 418:	43490033 	movtmi	r0, #36915	; 0x9033
 41c:	54504944 	ldrbpl	r4, [r0], #-2372	; 0x944
 420:	00343352 	eorseq	r3, r4, r2, asr r3
 424:	49444349 	stmdbmi	r4, {r0, r3, r6, r8, r9, lr}^
 428:	33525450 	cmpcc	r2, #1342177280	; 0x50000000
 42c:	43490035 	movtmi	r0, #36917	; 0x9035
 430:	54504944 	ldrbpl	r4, [r0], #-2372	; 0x944
 434:	00363352 	eorseq	r3, r6, r2, asr r3
 438:	49444349 	stmdbmi	r4, {r0, r3, r6, r8, r9, lr}^
 43c:	33525450 	cmpcc	r2, #1342177280	; 0x50000000
 440:	43490037 	movtmi	r0, #36919	; 0x9037
 444:	45534944 	ldrbmi	r4, [r3, #-2372]	; 0x944
 448:	435f3052 	cmpmi	pc, #82	; 0x52
 44c:	00305550 	eorseq	r5, r0, r0, asr r5
 450:	49444349 	stmdbmi	r4, {r0, r3, r6, r8, r9, lr}^
 454:	33525450 	cmpcc	r2, #1342177280	; 0x50000000
 458:	43490039 	movtmi	r0, #36921	; 0x9039
 45c:	45534944 	ldrbmi	r4, [r3, #-2372]	; 0x944
 460:	49003152 	stmdbmi	r0, {r1, r4, r6, r8, ip, sp}
 464:	53494443 	movtpl	r4, #37955	; 0x9443
 468:	00325245 	eorseq	r5, r2, r5, asr #4
 46c:	49444349 	stmdbmi	r4, {r0, r3, r6, r8, r9, lr}^
 470:	33524553 	cmpcc	r2, #348127232	; 0x14c00000
 474:	43434900 	movtmi	r4, #14592	; 0x3900
 478:	52495048 	subpl	r5, r9, #72	; 0x48
 47c:	44434900 	strbmi	r4, [r3], #-2304	; 0x900
 480:	52545049 	subspl	r5, r4, #73	; 0x49
 484:	50435f30 	subpl	r5, r3, r0, lsr pc
 488:	49003055 	stmdbmi	r0, {r0, r2, r4, r6, ip, sp}
 48c:	50494443 	subpl	r4, r9, r3, asr #8
 490:	5f315254 	svcpl	0x00315254
 494:	30555043 	subscc	r5, r5, r3, asr #32
 498:	5f6f6400 	svcpl	0x006f6400
 49c:	00717269 	rsbseq	r7, r1, r9, ror #4
 4a0:	49434349 	stmdbmi	r3, {r0, r3, r6, r8, r9, lr}^
 4a4:	57005243 	strpl	r5, [r0, -r3, asr #4]
 4a8:	4e4f4354 	mcrmi	3, 2, r4, cr15, cr4, {2}
 4ac:	65736900 	ldrbvs	r6, [r3, #-2304]!	; 0x900
 4b0:	43490072 	movtmi	r0, #36978	; 0x9072
 4b4:	54504944 	ldrbpl	r4, [r0], #-2372	; 0x944
 4b8:	00313352 	eorseq	r3, r1, r2, asr r3

Disassembly of section .debug_frame:

00000000 <.debug_frame>:
   0:	0000000c 	andeq	r0, r0, ip
   4:	ffffffff 			; <UNDEFINED> instruction: 0xffffffff
   8:	7c020001 	stcvc	0, cr0, [r2], {1}
   c:	000d0c0e 	andeq	r0, sp, lr, lsl #24
  10:	00000014 	andeq	r0, r0, r4, lsl r0
  14:	00000000 	andeq	r0, r0, r0
  18:	40008140 	andmi	r8, r0, r0, asr #2
  1c:	00000050 	andeq	r0, r0, r0, asr r0
  20:	8b040e42 	blhi	103930 <_start-0x3ff046d0>
  24:	0b0d4201 	bleq	350830 <_start-0x3fcb77d0>
  28:	00000018 	andeq	r0, r0, r8, lsl r0
  2c:	00000000 	andeq	r0, r0, r0
  30:	40008190 	mulmi	r0, r0, r1
  34:	000001a8 	andeq	r0, r0, r8, lsr #3
  38:	8e080e42 	cdphi	14, 0, cr0, cr8, cr2, {2}
  3c:	42028b01 	andmi	r8, r2, #1024	; 0x400
  40:	00040b0c 	andeq	r0, r4, ip, lsl #22
  44:	00000018 	andeq	r0, r0, r8, lsl r0
  48:	00000000 	andeq	r0, r0, r0
  4c:	40008338 	andmi	r8, r0, r8, lsr r3
  50:	00000070 	andeq	r0, r0, r0, ror r0
  54:	8e080e42 	cdphi	14, 0, cr0, cr8, cr2, {2}
  58:	42028b01 	andmi	r8, r2, #1024	; 0x400
  5c:	00040b0c 	andeq	r0, r4, ip, lsl #22
  60:	00000014 	andeq	r0, r0, r4, lsl r0
  64:	00000000 	andeq	r0, r0, r0
  68:	400083a8 	andmi	r8, r0, r8, lsr #7
  6c:	00000094 	muleq	r0, r4, r0
  70:	8b040e42 	blhi	103980 <_start-0x3ff04680>
  74:	0b0d4201 	bleq	350880 <_start-0x3fcb7780>
  78:	00000018 	andeq	r0, r0, r8, lsl r0
  7c:	00000000 	andeq	r0, r0, r0
  80:	4000843c 	andmi	r8, r0, ip, lsr r4
  84:	00000498 	muleq	r0, r8, r4
  88:	8e080e42 	cdphi	14, 0, cr0, cr8, cr2, {2}
  8c:	42028b01 	andmi	r8, r2, #1024	; 0x400
  90:	00040b0c 	andeq	r0, r4, ip, lsl #22
  94:	00000014 	andeq	r0, r0, r4, lsl r0
  98:	00000000 	andeq	r0, r0, r0
  9c:	400088d4 	ldrdmi	r8, [r0], -r4
  a0:	00000080 	andeq	r0, r0, r0, lsl #1
  a4:	8b040e42 	blhi	1039b4 <_start-0x3ff0464c>
  a8:	0b0d4201 	bleq	3508b4 <_start-0x3fcb774c>
  ac:	00000018 	andeq	r0, r0, r8, lsl r0
  b0:	00000000 	andeq	r0, r0, r0
  b4:	40008954 	andmi	r8, r0, r4, asr r9
  b8:	00000938 	andeq	r0, r0, r8, lsr r9
  bc:	8e080e42 	cdphi	14, 0, cr0, cr8, cr2, {2}
  c0:	42028b01 	andmi	r8, r2, #1024	; 0x400
  c4:	00040b0c 	andeq	r0, r4, ip, lsl #22
  c8:	00000020 	andeq	r0, r0, r0, lsr #32
  cc:	00000000 	andeq	r0, r0, r0
  d0:	4000928c 	andmi	r9, r0, ip, lsl #5
  d4:	00000050 	andeq	r0, r0, r0, asr r0
  d8:	830c0e42 	movwhi	r0, #52802	; 0xce42
  dc:	81028201 	tsthi	r2, r1, lsl #4
  e0:	140e4203 	strne	r4, [lr], #-515	; 0x203
  e4:	058b048e 	streq	r0, [fp, #1166]	; 0x48e
  e8:	100b0c42 	andne	r0, fp, r2, asr #24
  ec:	00000024 	andeq	r0, r0, r4, lsr #32
  f0:	00000000 	andeq	r0, r0, r0
  f4:	400092dc 	ldrdmi	r9, [r0], -ip
  f8:	00000058 	andeq	r0, r0, r8, asr r0
  fc:	83100e42 	tsthi	r0, #1056	; 0x420
 100:	81028201 	tsthi	r2, r1, lsl #4
 104:	42048003 	andmi	r8, r4, #3
 108:	058e180e 	streq	r1, [lr, #2062]	; 0x80e
 10c:	0c42068b 	mcrreq	6, 8, r0, r2, cr11
 110:	0000140b 	andeq	r1, r0, fp, lsl #8
 114:	0000000c 	andeq	r0, r0, ip
 118:	ffffffff 			; <UNDEFINED> instruction: 0xffffffff
 11c:	7c020001 	stcvc	0, cr0, [r2], {1}
 120:	000d0c0e 	andeq	r0, sp, lr, lsl #24
 124:	00000014 	andeq	r0, r0, r4, lsl r0
 128:	00000114 	andeq	r0, r0, r4, lsl r1
 12c:	40009334 	andmi	r9, r0, r4, lsr r3
 130:	00000064 	andeq	r0, r0, r4, rrx
 134:	8b040e42 	blhi	103a44 <_start-0x3ff045bc>
 138:	0b0d4201 	bleq	350944 <_start-0x3fcb76bc>
 13c:	00000018 	andeq	r0, r0, r8, lsl r0
 140:	00000114 	andeq	r0, r0, r4, lsl r1
 144:	40009398 	mulmi	r0, r8, r3
 148:	0000005c 	andeq	r0, r0, ip, asr r0
 14c:	8e080e42 	cdphi	14, 0, cr0, cr8, cr2, {2}
 150:	42028b01 	andmi	r8, r2, #1024	; 0x400
 154:	00040b0c 	andeq	r0, r4, ip, lsl #22
 158:	00000018 	andeq	r0, r0, r8, lsl r0
 15c:	00000114 	andeq	r0, r0, r4, lsl r1
 160:	400093f4 	strdmi	r9, [r0], -r4
 164:	0000004c 	andeq	r0, r0, ip, asr #32
 168:	8e080e42 	cdphi	14, 0, cr0, cr8, cr2, {2}
 16c:	42028b01 	andmi	r8, r2, #1024	; 0x400
 170:	00040b0c 	andeq	r0, r4, ip, lsl #22
 174:	0000000c 	andeq	r0, r0, ip
 178:	ffffffff 			; <UNDEFINED> instruction: 0xffffffff
 17c:	7c020001 	stcvc	0, cr0, [r2], {1}
 180:	000d0c0e 	andeq	r0, sp, lr, lsl #24
 184:	00000018 	andeq	r0, r0, r8, lsl r0
 188:	00000174 	andeq	r0, r0, r4, ror r1
 18c:	40009584 	andmi	r9, r0, r4, lsl #11
 190:	0000006c 	andeq	r0, r0, ip, rrx
 194:	8e080e42 	cdphi	14, 0, cr0, cr8, cr2, {2}
 198:	42028b01 	andmi	r8, r2, #1024	; 0x400
 19c:	00040b0c 	andeq	r0, r4, ip, lsl #22
 1a0:	00000014 	andeq	r0, r0, r4, lsl r0
 1a4:	00000174 	andeq	r0, r0, r4, ror r1
 1a8:	400095f0 	strdmi	r9, [r0], -r0
 1ac:	00000098 	muleq	r0, r8, r0
 1b0:	8b040e42 	blhi	103ac0 <_start-0x3ff04540>
 1b4:	0b0d4201 	bleq	3509c0 <_start-0x3fcb7640>
 1b8:	00000014 	andeq	r0, r0, r4, lsl r0
 1bc:	00000174 	andeq	r0, r0, r4, ror r1
 1c0:	40009688 	andmi	r9, r0, r8, lsl #13
 1c4:	00000038 	andeq	r0, r0, r8, lsr r0
 1c8:	8b040e42 	blhi	103ad8 <_start-0x3ff04528>
 1cc:	0b0d4201 	bleq	3509d8 <_start-0x3fcb7628>
 1d0:	00000018 	andeq	r0, r0, r8, lsl r0
 1d4:	00000174 	andeq	r0, r0, r4, ror r1
 1d8:	400096c0 	andmi	r9, r0, r0, asr #13
 1dc:	000000dc 	ldrdeq	r0, [r0], -ip
 1e0:	8e080e42 	cdphi	14, 0, cr0, cr8, cr2, {2}
 1e4:	42028b01 	andmi	r8, r2, #1024	; 0x400
 1e8:	00040b0c 	andeq	r0, r4, ip, lsl #22
