
A9_spi.elf:     file format elf32-littlearm


Disassembly of section .text:

40008000 <_start>:
40008000:	ea00000d 	b	4000803c <reset>
40008004:	e59ff014 	ldr	pc, [pc, #20]	; 40008020 <_undefined_instruction>
40008008:	e59ff014 	ldr	pc, [pc, #20]	; 40008024 <_software_interrupt>
4000800c:	e59ff014 	ldr	pc, [pc, #20]	; 40008028 <_prefetch_abort>
40008010:	e59ff014 	ldr	pc, [pc, #20]	; 4000802c <_data_abort>
40008014:	e59ff014 	ldr	pc, [pc, #20]	; 40008030 <_not_used>
40008018:	e59ff014 	ldr	pc, [pc, #20]	; 40008034 <_irq>
4000801c:	e59ff014 	ldr	pc, [pc, #20]	; 40008038 <_fiq>

40008020 <_undefined_instruction>:
40008020:	40008020 	andmi	r8, r0, r0, lsr #32

40008024 <_software_interrupt>:
40008024:	40008024 	andmi	r8, r0, r4, lsr #32

40008028 <_prefetch_abort>:
40008028:	40008028 	andmi	r8, r0, r8, lsr #32

4000802c <_data_abort>:
4000802c:	4000802c 	andmi	r8, r0, ip, lsr #32

40008030 <_not_used>:
40008030:	40008030 	andmi	r8, r0, r0, lsr r0

40008034 <_irq>:
40008034:	40008110 	andmi	r8, r0, r0, lsl r1

40008038 <_fiq>:
40008038:	40008038 	andmi	r8, r0, r8, lsr r0

4000803c <reset>:
4000803c:	e59f00e0 	ldr	r0, [pc, #224]	; 40008124 <stacktop+0x4>
40008040:	ee0c0f10 	mcr	15, 0, r0, cr12, cr0, {0}
40008044:	e10f0000 	mrs	r0, CPSR
40008048:	e3c0001f 	bic	r0, r0, #31
4000804c:	e38000d3 	orr	r0, r0, #211	; 0xd3
40008050:	e129f000 	msr	CPSR_fc, r0
40008054:	e3e0020f 	mvn	r0, #-268435456	; 0xf0000000
40008058:	ee010f50 	mcr	15, 0, r0, cr1, cr0, {2}
4000805c:	e3a00000 	mov	r0, #0
40008060:	ee080f17 	mcr	15, 0, r0, cr8, cr7, {0}
40008064:	ee070f15 	mcr	15, 0, r0, cr7, cr5, {0}
40008068:	e3a03101 	mov	r3, #1073741824	; 0x40000000
4000806c:	eee83a10 	vmsr	fpexc, r3
40008070:	ee110f10 	mrc	15, 0, r0, cr1, cr0, {0}
40008074:	e3c00a02 	bic	r0, r0, #8192	; 0x2000
40008078:	e3c00007 	bic	r0, r0, #7
4000807c:	e3800a01 	orr	r0, r0, #4096	; 0x1000
40008080:	e3800002 	orr	r0, r0, #2
40008084:	e3800b02 	orr	r0, r0, #2048	; 0x800
40008088:	ee010f10 	mcr	15, 0, r0, cr1, cr0, {0}
4000808c:	e59f0094 	ldr	r0, [pc, #148]	; 40008128 <stacktop+0x8>
40008090:	e5901000 	ldr	r1, [r0]
40008094:	e3c1180f 	bic	r1, r1, #983040	; 0xf0000
40008098:	e3811801 	orr	r1, r1, #65536	; 0x10000
4000809c:	e5801000 	str	r1, [r0]
400080a0:	e59f0084 	ldr	r0, [pc, #132]	; 4000812c <stacktop+0xc>
400080a4:	e5901000 	ldr	r1, [r0]
400080a8:	e3c11c03 	bic	r1, r1, #768	; 0x300
400080ac:	e5801000 	str	r1, [r0]
400080b0:	e59f0078 	ldr	r0, [pc, #120]	; 40008130 <stacktop+0x10>
400080b4:	e5901000 	ldr	r1, [r0]
400080b8:	e3811010 	orr	r1, r1, #16
400080bc:	e5801000 	str	r1, [r0]

400080c0 <init_stack>:
400080c0:	e59f0058 	ldr	r0, [pc, #88]	; 40008120 <stacktop>
400080c4:	e1a0d000 	mov	sp, r0
400080c8:	e2400c02 	sub	r0, r0, #512	; 0x200
400080cc:	e329f0d2 	msr	CPSR_fc, #210	; 0xd2
400080d0:	e1a0d000 	mov	sp, r0
400080d4:	e2400c02 	sub	r0, r0, #512	; 0x200
400080d8:	e329f0d1 	msr	CPSR_fc, #209	; 0xd1
400080dc:	e1a0d000 	mov	sp, r0
400080e0:	e2400000 	sub	r0, r0, #0
400080e4:	e329f0d7 	msr	CPSR_fc, #215	; 0xd7
400080e8:	e1a0d000 	mov	sp, r0
400080ec:	e2400000 	sub	r0, r0, #0
400080f0:	e329f0db 	msr	CPSR_fc, #219	; 0xdb
400080f4:	e1a0d000 	mov	sp, r0
400080f8:	e2400000 	sub	r0, r0, #0
400080fc:	e329f010 	msr	CPSR_fc, #16
40008100:	e1a0d000 	mov	sp, r0
40008104:	ea0005db 	b	40009878 <main>
40008108:	e1a00000 	nop			; (mov r0, r0)
4000810c:	e1a00000 	nop			; (mov r0, r0)

40008110 <irq_handler>:
40008110:	e24ee004 	sub	lr, lr, #4
40008114:	e92d5fff 	push	{r0, r1, r2, r3, r4, r5, r6, r7, r8, r9, sl, fp, ip, lr}
40008118:	eb0005ab 	bl	400097cc <do_irq>
4000811c:	e8fd9fff 	ldm	sp!, {r0, r1, r2, r3, r4, r5, r6, r7, r8, r9, sl, fp, ip, pc}^

40008120 <stacktop>:
40008120:	4000a8fc 	strdmi	sl, [r0], -ip
40008124:	40008000 	andmi	r8, r0, r0
40008128:	114001e0 	smlalttne	r0, r0, r0, r1	; <UNPREDICTABLE>
4000812c:	114001e8 	smlalttne	r0, r0, r8, r1	; <UNPREDICTABLE>
40008130:	114001e4 	smlalttne	r0, r0, r4, r1	; <UNPREDICTABLE>
40008134:	e1a00000 	nop			; (mov r0, r0)
40008138:	e1a00000 	nop			; (mov r0, r0)
4000813c:	e1a00000 	nop			; (mov r0, r0)

40008140 <wait_mux_state>:
40008140:	e7901002 	ldr	r1, [r0, r2]
40008144:	e1510003 	cmp	r1, r3
40008148:	1afffffc 	bne	40008140 <wait_mux_state>
4000814c:	e1a0f00e 	mov	pc, lr

40008150 <wait_pll_lock>:
40008150:	e7901002 	ldr	r1, [r0, r2]
40008154:	e3110202 	tst	r1, #536870912	; 0x20000000
40008158:	0afffffc 	beq	40008150 <wait_pll_lock>
4000815c:	e1a0f00e 	mov	pc, lr

40008160 <system_clock_init>:
40008160:	e92d4000 	push	{lr}
40008164:	e59f0148 	ldr	r0, [pc, #328]	; 400082b4 <system_clock_init+0x154>
40008168:	e59f1148 	ldr	r1, [pc, #328]	; 400082b8 <system_clock_init+0x158>
4000816c:	e59f2148 	ldr	r2, [pc, #328]	; 400082bc <system_clock_init+0x15c>
40008170:	e7801002 	str	r1, [r0, r2]
40008174:	e3a02b51 	mov	r2, #82944	; 0x14400
40008178:	e59f3140 	ldr	r3, [pc, #320]	; 400082c0 <system_clock_init+0x160>
4000817c:	ebffffef 	bl	40008140 <wait_mux_state>
40008180:	e59f113c 	ldr	r1, [pc, #316]	; 400082c4 <system_clock_init+0x164>
40008184:	e59f213c 	ldr	r2, [pc, #316]	; 400082c8 <system_clock_init+0x168>
40008188:	e7801002 	str	r1, [r0, r2]
4000818c:	e59f1138 	ldr	r1, [pc, #312]	; 400082cc <system_clock_init+0x16c>
40008190:	e59f2138 	ldr	r2, [pc, #312]	; 400082d0 <system_clock_init+0x170>
40008194:	e7801002 	str	r1, [r0, r2]
40008198:	e3a01000 	mov	r1, #0
4000819c:	e59f2130 	ldr	r2, [pc, #304]	; 400082d4 <system_clock_init+0x174>
400081a0:	e7801002 	str	r1, [r0, r2]
400081a4:	e59f212c 	ldr	r2, [pc, #300]	; 400082d8 <system_clock_init+0x178>
400081a8:	e59f312c 	ldr	r3, [pc, #300]	; 400082dc <system_clock_init+0x17c>
400081ac:	ebffffe3 	bl	40008140 <wait_mux_state>
400081b0:	e3a01a01 	mov	r1, #4096	; 0x1000
400081b4:	e59f2124 	ldr	r2, [pc, #292]	; 400082e0 <system_clock_init+0x180>
400081b8:	e7801002 	str	r1, [r0, r2]
400081bc:	e59f2120 	ldr	r2, [pc, #288]	; 400082e4 <system_clock_init+0x184>
400081c0:	e59f3120 	ldr	r3, [pc, #288]	; 400082e8 <system_clock_init+0x188>
400081c4:	ebffffdd 	bl	40008140 <wait_mux_state>
400081c8:	e59f111c 	ldr	r1, [pc, #284]	; 400082ec <system_clock_init+0x18c>
400081cc:	e59f211c 	ldr	r2, [pc, #284]	; 400082f0 <system_clock_init+0x190>
400081d0:	e7801002 	str	r1, [r0, r2]
400081d4:	e3a01010 	mov	r1, #16
400081d8:	e3a02c42 	mov	r2, #16896	; 0x4200
400081dc:	e7801002 	str	r1, [r0, r2]
400081e0:	e3a02b11 	mov	r2, #17408	; 0x4400
400081e4:	e3a03021 	mov	r3, #33	; 0x21
400081e8:	ebffffd4 	bl	40008140 <wait_mux_state>
400081ec:	e3a01013 	mov	r1, #19
400081f0:	e3a02c45 	mov	r2, #17664	; 0x4500
400081f4:	e7801002 	str	r1, [r0, r2]
400081f8:	e3a01010 	mov	r1, #16
400081fc:	e3a02c82 	mov	r2, #33280	; 0x8200
40008200:	e7801002 	str	r1, [r0, r2]
40008204:	e3a02b21 	mov	r2, #33792	; 0x8400
40008208:	e3a03021 	mov	r3, #33	; 0x21
4000820c:	ebffffcb 	bl	40008140 <wait_mux_state>
40008210:	e3a01013 	mov	r1, #19
40008214:	e3a02c85 	mov	r2, #34048	; 0x8500
40008218:	e7801002 	str	r1, [r0, r2]
4000821c:	e59f10d0 	ldr	r1, [pc, #208]	; 400082f4 <system_clock_init+0x194>
40008220:	e3a02905 	mov	r2, #81920	; 0x14000
40008224:	e7801002 	str	r1, [r0, r2]
40008228:	e59f10c4 	ldr	r1, [pc, #196]	; 400082f4 <system_clock_init+0x194>
4000822c:	e59f20c4 	ldr	r2, [pc, #196]	; 400082f8 <system_clock_init+0x198>
40008230:	e7801002 	str	r1, [r0, r2]
40008234:	e59f10c0 	ldr	r1, [pc, #192]	; 400082fc <system_clock_init+0x19c>
40008238:	e59f20c0 	ldr	r2, [pc, #192]	; 40008300 <system_clock_init+0x1a0>
4000823c:	e7801002 	str	r1, [r0, r2]
40008240:	e59f10b4 	ldr	r1, [pc, #180]	; 400082fc <system_clock_init+0x19c>
40008244:	e59f20b8 	ldr	r2, [pc, #184]	; 40008304 <system_clock_init+0x1a4>
40008248:	e7801002 	str	r1, [r0, r2]
4000824c:	e59f10b4 	ldr	r1, [pc, #180]	; 40008308 <system_clock_init+0x1a8>
40008250:	e59f20b4 	ldr	r2, [pc, #180]	; 4000830c <system_clock_init+0x1ac>
40008254:	e7801002 	str	r1, [r0, r2]
40008258:	e3a01004 	mov	r1, #4
4000825c:	e59f20ac 	ldr	r2, [pc, #172]	; 40008310 <system_clock_init+0x1b0>
40008260:	e7801002 	str	r1, [r0, r2]
40008264:	e59f10a8 	ldr	r1, [pc, #168]	; 40008314 <system_clock_init+0x1b4>
40008268:	e59f20a8 	ldr	r2, [pc, #168]	; 40008318 <system_clock_init+0x1b8>
4000826c:	e7801002 	str	r1, [r0, r2]
40008270:	e59f10a4 	ldr	r1, [pc, #164]	; 4000831c <system_clock_init+0x1bc>
40008274:	e59f20a4 	ldr	r2, [pc, #164]	; 40008320 <system_clock_init+0x1c0>
40008278:	e7801002 	str	r1, [r0, r2]
4000827c:	e59f1090 	ldr	r1, [pc, #144]	; 40008314 <system_clock_init+0x1b4>
40008280:	e59f209c 	ldr	r2, [pc, #156]	; 40008324 <system_clock_init+0x1c4>
40008284:	e7801002 	str	r1, [r0, r2]
40008288:	e59f1098 	ldr	r1, [pc, #152]	; 40008328 <system_clock_init+0x1c8>
4000828c:	e59f2098 	ldr	r2, [pc, #152]	; 4000832c <system_clock_init+0x1cc>
40008290:	e7801002 	str	r1, [r0, r2]
40008294:	e59f0018 	ldr	r0, [pc, #24]	; 400082b4 <system_clock_init+0x154>
40008298:	e59f1090 	ldr	r1, [pc, #144]	; 40008330 <system_clock_init+0x1d0>
4000829c:	e59f2090 	ldr	r2, [pc, #144]	; 40008334 <system_clock_init+0x1d4>
400082a0:	e7801002 	str	r1, [r0, r2]
400082a4:	e59f108c 	ldr	r1, [pc, #140]	; 40008338 <system_clock_init+0x1d8>
400082a8:	e59f208c 	ldr	r2, [pc, #140]	; 4000833c <system_clock_init+0x1dc>
400082ac:	e7801002 	str	r1, [r0, r2]
400082b0:	e8bd8000 	pop	{pc}
400082b4:	10030000 	andne	r0, r3, r0
400082b8:	01000001 	tsteq	r0, r1
400082bc:	00014200 	andeq	r4, r1, r0, lsl #4
400082c0:	02110002 	andseq	r0, r1, #2
400082c4:	00111113 	andseq	r1, r1, r3, lsl r1
400082c8:	00010500 	andeq	r0, r1, r0, lsl #10
400082cc:	01010100 	mrseq	r0, (UNDEF: 17)
400082d0:	00010504 	andeq	r0, r1, r4, lsl #10
400082d4:	0000c210 	andeq	ip, r0, r0, lsl r2
400082d8:	0000c410 	andeq	ip, r0, r0, lsl r4
400082dc:	11111111 	tstne	r1, r1, lsl r1
400082e0:	0000c214 	andeq	ip, r0, r4, lsl r2
400082e4:	0000c414 	andeq	ip, r0, r4, lsl r4
400082e8:	01112110 	tsteq	r1, r0, lsl r1
400082ec:	00005473 	andeq	r5, r0, r3, ror r4
400082f0:	0000c510 	andeq	ip, r0, r0, lsl r5
400082f4:	000002f1 	strdeq	r0, [r0], -r1
400082f8:	00010008 	andeq	r0, r1, r8
400082fc:	00002321 	andeq	r2, r0, r1, lsr #6
40008300:	0000c010 	andeq	ip, r0, r0, lsl r0
40008304:	0000c020 	andeq	ip, r0, r0, lsr #32
40008308:	01143730 	tsteq	r4, r0, lsr r7
4000830c:	00014500 	andeq	r4, r1, r0, lsl #10
40008310:	00014504 	andeq	r4, r1, r4, lsl #10
40008314:	00803800 	addeq	r3, r0, r0, lsl #16
40008318:	00014104 	andeq	r4, r1, r4, lsl #2
4000831c:	807d0300 	rsbshi	r0, sp, r0, lsl #6
40008320:	00014100 	andeq	r4, r1, r0, lsl #2
40008324:	0001010c 	andeq	r0, r1, ip, lsl #2
40008328:	80640300 	rsbhi	r0, r4, r0, lsl #6
4000832c:	00010108 	andeq	r0, r1, r8, lsl #2
40008330:	00666666 	rsbeq	r6, r6, r6, ror #12
40008334:	0000c250 	andeq	ip, r0, r0, asr r2
40008338:	00777777 	rsbseq	r7, r7, r7, ror r7
4000833c:	0000c550 	andeq	ip, r0, r0, asr r5

40008340 <__toupper>:
40008340:	e52db004 	push	{fp}		; (str fp, [sp, #-4]!)
40008344:	e28db000 	add	fp, sp, #0
40008348:	e24dd004 	sub	sp, sp, #4
4000834c:	e1a03000 	mov	r3, r0
40008350:	e54b3004 	strb	r3, [fp, #-4]
40008354:	e55b3004 	ldrb	r3, [fp, #-4]
40008358:	e59f202c 	ldr	r2, [pc, #44]	; 4000838c <__toupper+0x4c>
4000835c:	e7d23003 	ldrb	r3, [r2, r3]
40008360:	e2033002 	and	r3, r3, #2
40008364:	e3530000 	cmp	r3, #0
40008368:	0a000002 	beq	40008378 <__toupper+0x38>
4000836c:	e55b3004 	ldrb	r3, [fp, #-4]
40008370:	e2433020 	sub	r3, r3, #32
40008374:	e54b3004 	strb	r3, [fp, #-4]
40008378:	e55b3004 	ldrb	r3, [fp, #-4]
4000837c:	e1a00003 	mov	r0, r3
40008380:	e28bd000 	add	sp, fp, #0
40008384:	e8bd0800 	pop	{fp}
40008388:	e12fff1e 	bx	lr
4000838c:	4000a8fc 	strdmi	sl, [r0], -ip

40008390 <simple_strtoul>:
40008390:	e92d4800 	push	{fp, lr}
40008394:	e28db004 	add	fp, sp, #4
40008398:	e24dd014 	sub	sp, sp, #20
4000839c:	e50b0010 	str	r0, [fp, #-16]
400083a0:	e50b1014 	str	r1, [fp, #-20]
400083a4:	e50b2018 	str	r2, [fp, #-24]
400083a8:	e3a03000 	mov	r3, #0
400083ac:	e50b3008 	str	r3, [fp, #-8]
400083b0:	e51b3010 	ldr	r3, [fp, #-16]
400083b4:	e5d33000 	ldrb	r3, [r3]
400083b8:	e3530030 	cmp	r3, #48	; 0x30
400083bc:	1a000018 	bne	40008424 <simple_strtoul+0x94>
400083c0:	e51b3010 	ldr	r3, [fp, #-16]
400083c4:	e2833001 	add	r3, r3, #1
400083c8:	e50b3010 	str	r3, [fp, #-16]
400083cc:	e51b3010 	ldr	r3, [fp, #-16]
400083d0:	e5d33000 	ldrb	r3, [r3]
400083d4:	e3530078 	cmp	r3, #120	; 0x78
400083d8:	1a00000c 	bne	40008410 <simple_strtoul+0x80>
400083dc:	e51b3010 	ldr	r3, [fp, #-16]
400083e0:	e2833001 	add	r3, r3, #1
400083e4:	e5d33000 	ldrb	r3, [r3]
400083e8:	e59f2144 	ldr	r2, [pc, #324]	; 40008534 <simple_strtoul+0x1a4>
400083ec:	e7d23003 	ldrb	r3, [r2, r3]
400083f0:	e2033044 	and	r3, r3, #68	; 0x44
400083f4:	e3530000 	cmp	r3, #0
400083f8:	0a000004 	beq	40008410 <simple_strtoul+0x80>
400083fc:	e3a03010 	mov	r3, #16
40008400:	e50b3018 	str	r3, [fp, #-24]
40008404:	e51b3010 	ldr	r3, [fp, #-16]
40008408:	e2833001 	add	r3, r3, #1
4000840c:	e50b3010 	str	r3, [fp, #-16]
40008410:	e51b3018 	ldr	r3, [fp, #-24]
40008414:	e3530000 	cmp	r3, #0
40008418:	1a000001 	bne	40008424 <simple_strtoul+0x94>
4000841c:	e3a03008 	mov	r3, #8
40008420:	e50b3018 	str	r3, [fp, #-24]
40008424:	e51b3018 	ldr	r3, [fp, #-24]
40008428:	e3530000 	cmp	r3, #0
4000842c:	1a00000c 	bne	40008464 <simple_strtoul+0xd4>
40008430:	e3a0300a 	mov	r3, #10
40008434:	e50b3018 	str	r3, [fp, #-24]
40008438:	ea000009 	b	40008464 <simple_strtoul+0xd4>
4000843c:	e51b3008 	ldr	r3, [fp, #-8]
40008440:	e51b2018 	ldr	r2, [fp, #-24]
40008444:	e0020293 	mul	r2, r3, r2
40008448:	e51b300c 	ldr	r3, [fp, #-12]
4000844c:	e0823003 	add	r3, r2, r3
40008450:	e50b3008 	str	r3, [fp, #-8]
40008454:	e51b3010 	ldr	r3, [fp, #-16]
40008458:	e2833001 	add	r3, r3, #1
4000845c:	e50b3010 	str	r3, [fp, #-16]
40008460:	ea000000 	b	40008468 <simple_strtoul+0xd8>
40008464:	e1a00000 	nop			; (mov r0, r0)
40008468:	e51b3010 	ldr	r3, [fp, #-16]
4000846c:	e5d33000 	ldrb	r3, [r3]
40008470:	e59f20bc 	ldr	r2, [pc, #188]	; 40008534 <simple_strtoul+0x1a4>
40008474:	e7d23003 	ldrb	r3, [r2, r3]
40008478:	e2033044 	and	r3, r3, #68	; 0x44
4000847c:	e3530000 	cmp	r3, #0
40008480:	0a000020 	beq	40008508 <simple_strtoul+0x178>
40008484:	e51b3010 	ldr	r3, [fp, #-16]
40008488:	e5d33000 	ldrb	r3, [r3]
4000848c:	e59f20a0 	ldr	r2, [pc, #160]	; 40008534 <simple_strtoul+0x1a4>
40008490:	e7d23003 	ldrb	r3, [r2, r3]
40008494:	e2033004 	and	r3, r3, #4
40008498:	e3530000 	cmp	r3, #0
4000849c:	0a000003 	beq	400084b0 <simple_strtoul+0x120>
400084a0:	e51b3010 	ldr	r3, [fp, #-16]
400084a4:	e5d33000 	ldrb	r3, [r3]
400084a8:	e2433030 	sub	r3, r3, #48	; 0x30
400084ac:	ea000010 	b	400084f4 <simple_strtoul+0x164>
400084b0:	e51b3010 	ldr	r3, [fp, #-16]
400084b4:	e5d33000 	ldrb	r3, [r3]
400084b8:	e59f2074 	ldr	r2, [pc, #116]	; 40008534 <simple_strtoul+0x1a4>
400084bc:	e7d23003 	ldrb	r3, [r2, r3]
400084c0:	e2033002 	and	r3, r3, #2
400084c4:	e3530000 	cmp	r3, #0
400084c8:	0a000006 	beq	400084e8 <simple_strtoul+0x158>
400084cc:	e51b3010 	ldr	r3, [fp, #-16]
400084d0:	e5d33000 	ldrb	r3, [r3]
400084d4:	e1a00003 	mov	r0, r3
400084d8:	ebffff98 	bl	40008340 <__toupper>
400084dc:	e1a03000 	mov	r3, r0
400084e0:	e2433037 	sub	r3, r3, #55	; 0x37
400084e4:	ea000002 	b	400084f4 <simple_strtoul+0x164>
400084e8:	e51b3010 	ldr	r3, [fp, #-16]
400084ec:	e5d33000 	ldrb	r3, [r3]
400084f0:	e2433037 	sub	r3, r3, #55	; 0x37
400084f4:	e50b300c 	str	r3, [fp, #-12]
400084f8:	e51b200c 	ldr	r2, [fp, #-12]
400084fc:	e51b3018 	ldr	r3, [fp, #-24]
40008500:	e1520003 	cmp	r2, r3
40008504:	3affffcc 	bcc	4000843c <simple_strtoul+0xac>
40008508:	e51b3014 	ldr	r3, [fp, #-20]
4000850c:	e3530000 	cmp	r3, #0
40008510:	0a000002 	beq	40008520 <simple_strtoul+0x190>
40008514:	e51b3014 	ldr	r3, [fp, #-20]
40008518:	e51b2010 	ldr	r2, [fp, #-16]
4000851c:	e5832000 	str	r2, [r3]
40008520:	e51b3008 	ldr	r3, [fp, #-8]
40008524:	e1a00003 	mov	r0, r3
40008528:	e24bd004 	sub	sp, fp, #4
4000852c:	e8bd4800 	pop	{fp, lr}
40008530:	e12fff1e 	bx	lr
40008534:	4000a8fc 	strdmi	sl, [r0], -ip

40008538 <simple_strtol>:
40008538:	e92d4800 	push	{fp, lr}
4000853c:	e28db004 	add	fp, sp, #4
40008540:	e24dd00c 	sub	sp, sp, #12
40008544:	e50b0008 	str	r0, [fp, #-8]
40008548:	e50b100c 	str	r1, [fp, #-12]
4000854c:	e50b2010 	str	r2, [fp, #-16]
40008550:	e51b3008 	ldr	r3, [fp, #-8]
40008554:	e5d33000 	ldrb	r3, [r3]
40008558:	e353002d 	cmp	r3, #45	; 0x2d
4000855c:	1a000008 	bne	40008584 <simple_strtol+0x4c>
40008560:	e51b3008 	ldr	r3, [fp, #-8]
40008564:	e2833001 	add	r3, r3, #1
40008568:	e1a00003 	mov	r0, r3
4000856c:	e51b100c 	ldr	r1, [fp, #-12]
40008570:	e51b2010 	ldr	r2, [fp, #-16]
40008574:	ebffff85 	bl	40008390 <simple_strtoul>
40008578:	e1a03000 	mov	r3, r0
4000857c:	e2633000 	rsb	r3, r3, #0
40008580:	ea000004 	b	40008598 <simple_strtol+0x60>
40008584:	e51b0008 	ldr	r0, [fp, #-8]
40008588:	e51b100c 	ldr	r1, [fp, #-12]
4000858c:	e51b2010 	ldr	r2, [fp, #-16]
40008590:	ebffff7e 	bl	40008390 <simple_strtoul>
40008594:	e1a03000 	mov	r3, r0
40008598:	e1a00003 	mov	r0, r3
4000859c:	e24bd004 	sub	sp, fp, #4
400085a0:	e8bd4800 	pop	{fp, lr}
400085a4:	e12fff1e 	bx	lr

400085a8 <skip_atoi>:
400085a8:	e52db004 	push	{fp}		; (str fp, [sp, #-4]!)
400085ac:	e28db000 	add	fp, sp, #0
400085b0:	e24dd008 	sub	sp, sp, #8
400085b4:	e50b0008 	str	r0, [fp, #-8]
400085b8:	e3a03000 	mov	r3, #0
400085bc:	e50b3004 	str	r3, [fp, #-4]
400085c0:	ea00000e 	b	40008600 <skip_atoi+0x58>
400085c4:	e51b2004 	ldr	r2, [fp, #-4]
400085c8:	e1a03002 	mov	r3, r2
400085cc:	e1a03103 	lsl	r3, r3, #2
400085d0:	e0833002 	add	r3, r3, r2
400085d4:	e1a03083 	lsl	r3, r3, #1
400085d8:	e1a01003 	mov	r1, r3
400085dc:	e51b3008 	ldr	r3, [fp, #-8]
400085e0:	e5933000 	ldr	r3, [r3]
400085e4:	e5d32000 	ldrb	r2, [r3]
400085e8:	e0812002 	add	r2, r1, r2
400085ec:	e2422030 	sub	r2, r2, #48	; 0x30
400085f0:	e50b2004 	str	r2, [fp, #-4]
400085f4:	e2832001 	add	r2, r3, #1
400085f8:	e51b3008 	ldr	r3, [fp, #-8]
400085fc:	e5832000 	str	r2, [r3]
40008600:	e51b3008 	ldr	r3, [fp, #-8]
40008604:	e5933000 	ldr	r3, [r3]
40008608:	e5d33000 	ldrb	r3, [r3]
4000860c:	e353002f 	cmp	r3, #47	; 0x2f
40008610:	9a000004 	bls	40008628 <skip_atoi+0x80>
40008614:	e51b3008 	ldr	r3, [fp, #-8]
40008618:	e5933000 	ldr	r3, [r3]
4000861c:	e5d33000 	ldrb	r3, [r3]
40008620:	e3530039 	cmp	r3, #57	; 0x39
40008624:	9affffe6 	bls	400085c4 <skip_atoi+0x1c>
40008628:	e51b3004 	ldr	r3, [fp, #-4]
4000862c:	e1a00003 	mov	r0, r3
40008630:	e28bd000 	add	sp, fp, #0
40008634:	e8bd0800 	pop	{fp}
40008638:	e12fff1e 	bx	lr

4000863c <number>:
4000863c:	e92d4800 	push	{fp, lr}
40008640:	e28db004 	add	fp, sp, #4
40008644:	e24dd068 	sub	sp, sp, #104	; 0x68
40008648:	e50b0060 	str	r0, [fp, #-96]	; 0x60
4000864c:	e50b1064 	str	r1, [fp, #-100]	; 0x64
40008650:	e50b2068 	str	r2, [fp, #-104]	; 0x68
40008654:	e50b306c 	str	r3, [fp, #-108]	; 0x6c
40008658:	e59f346c 	ldr	r3, [pc, #1132]	; 40008acc <number+0x490>
4000865c:	e50b300c 	str	r3, [fp, #-12]
40008660:	e59b3008 	ldr	r3, [fp, #8]
40008664:	e2033040 	and	r3, r3, #64	; 0x40
40008668:	e3530000 	cmp	r3, #0
4000866c:	0a000001 	beq	40008678 <number+0x3c>
40008670:	e59f3458 	ldr	r3, [pc, #1112]	; 40008ad0 <number+0x494>
40008674:	e50b300c 	str	r3, [fp, #-12]
40008678:	e59b3008 	ldr	r3, [fp, #8]
4000867c:	e2033010 	and	r3, r3, #16
40008680:	e3530000 	cmp	r3, #0
40008684:	0a000002 	beq	40008694 <number+0x58>
40008688:	e59b3008 	ldr	r3, [fp, #8]
4000868c:	e3c33001 	bic	r3, r3, #1
40008690:	e58b3008 	str	r3, [fp, #8]
40008694:	e51b3068 	ldr	r3, [fp, #-104]	; 0x68
40008698:	e3530001 	cmp	r3, #1
4000869c:	9a000002 	bls	400086ac <number+0x70>
400086a0:	e51b3068 	ldr	r3, [fp, #-104]	; 0x68
400086a4:	e3530024 	cmp	r3, #36	; 0x24
400086a8:	9a000001 	bls	400086b4 <number+0x78>
400086ac:	e3a03000 	mov	r3, #0
400086b0:	ea000101 	b	40008abc <number+0x480>
400086b4:	e59b3008 	ldr	r3, [fp, #8]
400086b8:	e2033001 	and	r3, r3, #1
400086bc:	e20330ff 	and	r3, r3, #255	; 0xff
400086c0:	e3530000 	cmp	r3, #0
400086c4:	0a000001 	beq	400086d0 <number+0x94>
400086c8:	e3a03030 	mov	r3, #48	; 0x30
400086cc:	ea000000 	b	400086d4 <number+0x98>
400086d0:	e3a03020 	mov	r3, #32
400086d4:	e54b3011 	strb	r3, [fp, #-17]
400086d8:	e3a03000 	mov	r3, #0
400086dc:	e54b3005 	strb	r3, [fp, #-5]
400086e0:	e59b3008 	ldr	r3, [fp, #8]
400086e4:	e2033002 	and	r3, r3, #2
400086e8:	e3530000 	cmp	r3, #0
400086ec:	0a00001e 	beq	4000876c <number+0x130>
400086f0:	e51b3064 	ldr	r3, [fp, #-100]	; 0x64
400086f4:	e3530000 	cmp	r3, #0
400086f8:	aa000008 	bge	40008720 <number+0xe4>
400086fc:	e3a0302d 	mov	r3, #45	; 0x2d
40008700:	e54b3005 	strb	r3, [fp, #-5]
40008704:	e51b3064 	ldr	r3, [fp, #-100]	; 0x64
40008708:	e2633000 	rsb	r3, r3, #0
4000870c:	e50b3064 	str	r3, [fp, #-100]	; 0x64
40008710:	e51b306c 	ldr	r3, [fp, #-108]	; 0x6c
40008714:	e2433001 	sub	r3, r3, #1
40008718:	e50b306c 	str	r3, [fp, #-108]	; 0x6c
4000871c:	ea000012 	b	4000876c <number+0x130>
40008720:	e59b3008 	ldr	r3, [fp, #8]
40008724:	e2033004 	and	r3, r3, #4
40008728:	e3530000 	cmp	r3, #0
4000872c:	0a000005 	beq	40008748 <number+0x10c>
40008730:	e3a0302b 	mov	r3, #43	; 0x2b
40008734:	e54b3005 	strb	r3, [fp, #-5]
40008738:	e51b306c 	ldr	r3, [fp, #-108]	; 0x6c
4000873c:	e2433001 	sub	r3, r3, #1
40008740:	e50b306c 	str	r3, [fp, #-108]	; 0x6c
40008744:	ea000008 	b	4000876c <number+0x130>
40008748:	e59b3008 	ldr	r3, [fp, #8]
4000874c:	e2033008 	and	r3, r3, #8
40008750:	e3530000 	cmp	r3, #0
40008754:	0a000004 	beq	4000876c <number+0x130>
40008758:	e3a03020 	mov	r3, #32
4000875c:	e54b3005 	strb	r3, [fp, #-5]
40008760:	e51b306c 	ldr	r3, [fp, #-108]	; 0x6c
40008764:	e2433001 	sub	r3, r3, #1
40008768:	e50b306c 	str	r3, [fp, #-108]	; 0x6c
4000876c:	e59b3008 	ldr	r3, [fp, #8]
40008770:	e2033020 	and	r3, r3, #32
40008774:	e3530000 	cmp	r3, #0
40008778:	0a00000c 	beq	400087b0 <number+0x174>
4000877c:	e51b3068 	ldr	r3, [fp, #-104]	; 0x68
40008780:	e3530010 	cmp	r3, #16
40008784:	1a000003 	bne	40008798 <number+0x15c>
40008788:	e51b306c 	ldr	r3, [fp, #-108]	; 0x6c
4000878c:	e2433002 	sub	r3, r3, #2
40008790:	e50b306c 	str	r3, [fp, #-108]	; 0x6c
40008794:	ea000005 	b	400087b0 <number+0x174>
40008798:	e51b3068 	ldr	r3, [fp, #-104]	; 0x68
4000879c:	e3530008 	cmp	r3, #8
400087a0:	1a000002 	bne	400087b0 <number+0x174>
400087a4:	e51b306c 	ldr	r3, [fp, #-108]	; 0x6c
400087a8:	e2433001 	sub	r3, r3, #1
400087ac:	e50b306c 	str	r3, [fp, #-108]	; 0x6c
400087b0:	e3a03000 	mov	r3, #0
400087b4:	e50b3010 	str	r3, [fp, #-16]
400087b8:	e51b3064 	ldr	r3, [fp, #-100]	; 0x64
400087bc:	e3530000 	cmp	r3, #0
400087c0:	1a000027 	bne	40008864 <number+0x228>
400087c4:	e3e03057 	mvn	r3, #87	; 0x57
400087c8:	e51b2010 	ldr	r2, [fp, #-16]
400087cc:	e24b0004 	sub	r0, fp, #4
400087d0:	e0802002 	add	r2, r0, r2
400087d4:	e0823003 	add	r3, r2, r3
400087d8:	e3a02030 	mov	r2, #48	; 0x30
400087dc:	e5c32000 	strb	r2, [r3]
400087e0:	e51b3010 	ldr	r3, [fp, #-16]
400087e4:	e2833001 	add	r3, r3, #1
400087e8:	e50b3010 	str	r3, [fp, #-16]
400087ec:	ea00001f 	b	40008870 <number+0x234>
400087f0:	e51b2010 	ldr	r2, [fp, #-16]
400087f4:	e59b3004 	ldr	r3, [fp, #4]
400087f8:	e1520003 	cmp	r2, r3
400087fc:	da000018 	ble	40008864 <number+0x228>
40008800:	e51b3064 	ldr	r3, [fp, #-100]	; 0x64
40008804:	e1a00003 	mov	r0, r3
40008808:	e51b1068 	ldr	r1, [fp, #-104]	; 0x68
4000880c:	eb0003c2 	bl	4000971c <__umodsi3>
40008810:	e1a03000 	mov	r3, r0
40008814:	e50b3018 	str	r3, [fp, #-24]
40008818:	e51b3064 	ldr	r3, [fp, #-100]	; 0x64
4000881c:	e1a00003 	mov	r0, r3
40008820:	e51b1068 	ldr	r1, [fp, #-104]	; 0x68
40008824:	eb000397 	bl	40009688 <__udivsi3>
40008828:	e1a03000 	mov	r3, r0
4000882c:	e50b3064 	str	r3, [fp, #-100]	; 0x64
40008830:	e51b3018 	ldr	r3, [fp, #-24]
40008834:	e51b200c 	ldr	r2, [fp, #-12]
40008838:	e0823003 	add	r3, r2, r3
4000883c:	e5d32000 	ldrb	r2, [r3]
40008840:	e3e03057 	mvn	r3, #87	; 0x57
40008844:	e51b1010 	ldr	r1, [fp, #-16]
40008848:	e24b0004 	sub	r0, fp, #4
4000884c:	e0801001 	add	r1, r0, r1
40008850:	e0813003 	add	r3, r1, r3
40008854:	e5c32000 	strb	r2, [r3]
40008858:	e51b3010 	ldr	r3, [fp, #-16]
4000885c:	e2833001 	add	r3, r3, #1
40008860:	e50b3010 	str	r3, [fp, #-16]
40008864:	e51b3064 	ldr	r3, [fp, #-100]	; 0x64
40008868:	e3530000 	cmp	r3, #0
4000886c:	1affffdf 	bne	400087f0 <number+0x1b4>
40008870:	e51b3010 	ldr	r3, [fp, #-16]
40008874:	e58b3004 	str	r3, [fp, #4]
40008878:	e51b206c 	ldr	r2, [fp, #-108]	; 0x6c
4000887c:	e59b3004 	ldr	r3, [fp, #4]
40008880:	e0633002 	rsb	r3, r3, r2
40008884:	e50b306c 	str	r3, [fp, #-108]	; 0x6c
40008888:	e59b3008 	ldr	r3, [fp, #8]
4000888c:	e2033011 	and	r3, r3, #17
40008890:	e3530000 	cmp	r3, #0
40008894:	1a000010 	bne	400088dc <number+0x2a0>
40008898:	ea000005 	b	400088b4 <number+0x278>
4000889c:	e51b3060 	ldr	r3, [fp, #-96]	; 0x60
400088a0:	e3a02020 	mov	r2, #32
400088a4:	e5c32000 	strb	r2, [r3]
400088a8:	e51b3060 	ldr	r3, [fp, #-96]	; 0x60
400088ac:	e2833001 	add	r3, r3, #1
400088b0:	e50b3060 	str	r3, [fp, #-96]	; 0x60
400088b4:	e51b306c 	ldr	r3, [fp, #-108]	; 0x6c
400088b8:	e3530000 	cmp	r3, #0
400088bc:	d3a03000 	movle	r3, #0
400088c0:	c3a03001 	movgt	r3, #1
400088c4:	e20330ff 	and	r3, r3, #255	; 0xff
400088c8:	e51b206c 	ldr	r2, [fp, #-108]	; 0x6c
400088cc:	e2422001 	sub	r2, r2, #1
400088d0:	e50b206c 	str	r2, [fp, #-108]	; 0x6c
400088d4:	e3530000 	cmp	r3, #0
400088d8:	1affffef 	bne	4000889c <number+0x260>
400088dc:	e55b3005 	ldrb	r3, [fp, #-5]
400088e0:	e3530000 	cmp	r3, #0
400088e4:	0a000005 	beq	40008900 <number+0x2c4>
400088e8:	e51b3060 	ldr	r3, [fp, #-96]	; 0x60
400088ec:	e55b2005 	ldrb	r2, [fp, #-5]
400088f0:	e5c32000 	strb	r2, [r3]
400088f4:	e51b3060 	ldr	r3, [fp, #-96]	; 0x60
400088f8:	e2833001 	add	r3, r3, #1
400088fc:	e50b3060 	str	r3, [fp, #-96]	; 0x60
40008900:	e59b3008 	ldr	r3, [fp, #8]
40008904:	e2033020 	and	r3, r3, #32
40008908:	e3530000 	cmp	r3, #0
4000890c:	0a000019 	beq	40008978 <number+0x33c>
40008910:	e51b3068 	ldr	r3, [fp, #-104]	; 0x68
40008914:	e3530008 	cmp	r3, #8
40008918:	1a000006 	bne	40008938 <number+0x2fc>
4000891c:	e51b3060 	ldr	r3, [fp, #-96]	; 0x60
40008920:	e3a02030 	mov	r2, #48	; 0x30
40008924:	e5c32000 	strb	r2, [r3]
40008928:	e51b3060 	ldr	r3, [fp, #-96]	; 0x60
4000892c:	e2833001 	add	r3, r3, #1
40008930:	e50b3060 	str	r3, [fp, #-96]	; 0x60
40008934:	ea00000f 	b	40008978 <number+0x33c>
40008938:	e51b3068 	ldr	r3, [fp, #-104]	; 0x68
4000893c:	e3530010 	cmp	r3, #16
40008940:	1a00000c 	bne	40008978 <number+0x33c>
40008944:	e51b3060 	ldr	r3, [fp, #-96]	; 0x60
40008948:	e3a02030 	mov	r2, #48	; 0x30
4000894c:	e5c32000 	strb	r2, [r3]
40008950:	e51b3060 	ldr	r3, [fp, #-96]	; 0x60
40008954:	e2833001 	add	r3, r3, #1
40008958:	e50b3060 	str	r3, [fp, #-96]	; 0x60
4000895c:	e51b300c 	ldr	r3, [fp, #-12]
40008960:	e5d32021 	ldrb	r2, [r3, #33]	; 0x21
40008964:	e51b3060 	ldr	r3, [fp, #-96]	; 0x60
40008968:	e5c32000 	strb	r2, [r3]
4000896c:	e51b3060 	ldr	r3, [fp, #-96]	; 0x60
40008970:	e2833001 	add	r3, r3, #1
40008974:	e50b3060 	str	r3, [fp, #-96]	; 0x60
40008978:	e59b3008 	ldr	r3, [fp, #8]
4000897c:	e2033010 	and	r3, r3, #16
40008980:	e3530000 	cmp	r3, #0
40008984:	1a000018 	bne	400089ec <number+0x3b0>
40008988:	ea000005 	b	400089a4 <number+0x368>
4000898c:	e51b3060 	ldr	r3, [fp, #-96]	; 0x60
40008990:	e55b2011 	ldrb	r2, [fp, #-17]
40008994:	e5c32000 	strb	r2, [r3]
40008998:	e51b3060 	ldr	r3, [fp, #-96]	; 0x60
4000899c:	e2833001 	add	r3, r3, #1
400089a0:	e50b3060 	str	r3, [fp, #-96]	; 0x60
400089a4:	e51b306c 	ldr	r3, [fp, #-108]	; 0x6c
400089a8:	e3530000 	cmp	r3, #0
400089ac:	d3a03000 	movle	r3, #0
400089b0:	c3a03001 	movgt	r3, #1
400089b4:	e20330ff 	and	r3, r3, #255	; 0xff
400089b8:	e51b206c 	ldr	r2, [fp, #-108]	; 0x6c
400089bc:	e2422001 	sub	r2, r2, #1
400089c0:	e50b206c 	str	r2, [fp, #-108]	; 0x6c
400089c4:	e3530000 	cmp	r3, #0
400089c8:	1affffef 	bne	4000898c <number+0x350>
400089cc:	ea000006 	b	400089ec <number+0x3b0>
400089d0:	e51b3060 	ldr	r3, [fp, #-96]	; 0x60
400089d4:	e3a02030 	mov	r2, #48	; 0x30
400089d8:	e5c32000 	strb	r2, [r3]
400089dc:	e51b3060 	ldr	r3, [fp, #-96]	; 0x60
400089e0:	e2833001 	add	r3, r3, #1
400089e4:	e50b3060 	str	r3, [fp, #-96]	; 0x60
400089e8:	ea000000 	b	400089f0 <number+0x3b4>
400089ec:	e1a00000 	nop			; (mov r0, r0)
400089f0:	e59b2004 	ldr	r2, [fp, #4]
400089f4:	e51b3010 	ldr	r3, [fp, #-16]
400089f8:	e1520003 	cmp	r2, r3
400089fc:	d3a03000 	movle	r3, #0
40008a00:	c3a03001 	movgt	r3, #1
40008a04:	e20330ff 	and	r3, r3, #255	; 0xff
40008a08:	e59b2004 	ldr	r2, [fp, #4]
40008a0c:	e2422001 	sub	r2, r2, #1
40008a10:	e58b2004 	str	r2, [fp, #4]
40008a14:	e3530000 	cmp	r3, #0
40008a18:	1affffec 	bne	400089d0 <number+0x394>
40008a1c:	ea00000a 	b	40008a4c <number+0x410>
40008a20:	e3e03057 	mvn	r3, #87	; 0x57
40008a24:	e51b2010 	ldr	r2, [fp, #-16]
40008a28:	e24b1004 	sub	r1, fp, #4
40008a2c:	e0812002 	add	r2, r1, r2
40008a30:	e0823003 	add	r3, r2, r3
40008a34:	e5d32000 	ldrb	r2, [r3]
40008a38:	e51b3060 	ldr	r3, [fp, #-96]	; 0x60
40008a3c:	e5c32000 	strb	r2, [r3]
40008a40:	e51b3060 	ldr	r3, [fp, #-96]	; 0x60
40008a44:	e2833001 	add	r3, r3, #1
40008a48:	e50b3060 	str	r3, [fp, #-96]	; 0x60
40008a4c:	e51b3010 	ldr	r3, [fp, #-16]
40008a50:	e3530000 	cmp	r3, #0
40008a54:	d3a03000 	movle	r3, #0
40008a58:	c3a03001 	movgt	r3, #1
40008a5c:	e20330ff 	and	r3, r3, #255	; 0xff
40008a60:	e51b2010 	ldr	r2, [fp, #-16]
40008a64:	e2422001 	sub	r2, r2, #1
40008a68:	e50b2010 	str	r2, [fp, #-16]
40008a6c:	e3530000 	cmp	r3, #0
40008a70:	1affffea 	bne	40008a20 <number+0x3e4>
40008a74:	ea000005 	b	40008a90 <number+0x454>
40008a78:	e51b3060 	ldr	r3, [fp, #-96]	; 0x60
40008a7c:	e3a02020 	mov	r2, #32
40008a80:	e5c32000 	strb	r2, [r3]
40008a84:	e51b3060 	ldr	r3, [fp, #-96]	; 0x60
40008a88:	e2833001 	add	r3, r3, #1
40008a8c:	e50b3060 	str	r3, [fp, #-96]	; 0x60
40008a90:	e51b306c 	ldr	r3, [fp, #-108]	; 0x6c
40008a94:	e3530000 	cmp	r3, #0
40008a98:	d3a03000 	movle	r3, #0
40008a9c:	c3a03001 	movgt	r3, #1
40008aa0:	e20330ff 	and	r3, r3, #255	; 0xff
40008aa4:	e51b206c 	ldr	r2, [fp, #-108]	; 0x6c
40008aa8:	e2422001 	sub	r2, r2, #1
40008aac:	e50b206c 	str	r2, [fp, #-108]	; 0x6c
40008ab0:	e3530000 	cmp	r3, #0
40008ab4:	1affffef 	bne	40008a78 <number+0x43c>
40008ab8:	e51b3060 	ldr	r3, [fp, #-96]	; 0x60
40008abc:	e1a00003 	mov	r0, r3
40008ac0:	e24bd004 	sub	sp, fp, #4
40008ac4:	e8bd4800 	pop	{fp, lr}
40008ac8:	e12fff1e 	bx	lr
40008acc:	4000a034 	andmi	sl, r0, r4, lsr r0
40008ad0:	4000a05c 	andmi	sl, r0, ip, asr r0

40008ad4 <strnlen>:
40008ad4:	e52db004 	push	{fp}		; (str fp, [sp, #-4]!)
40008ad8:	e28db000 	add	fp, sp, #0
40008adc:	e24dd00c 	sub	sp, sp, #12
40008ae0:	e50b0008 	str	r0, [fp, #-8]
40008ae4:	e50b100c 	str	r1, [fp, #-12]
40008ae8:	e51b3008 	ldr	r3, [fp, #-8]
40008aec:	e50b3004 	str	r3, [fp, #-4]
40008af0:	ea000002 	b	40008b00 <strnlen+0x2c>
40008af4:	e51b3004 	ldr	r3, [fp, #-4]
40008af8:	e2833001 	add	r3, r3, #1
40008afc:	e50b3004 	str	r3, [fp, #-4]
40008b00:	e51b300c 	ldr	r3, [fp, #-12]
40008b04:	e3530000 	cmp	r3, #0
40008b08:	03a03000 	moveq	r3, #0
40008b0c:	13a03001 	movne	r3, #1
40008b10:	e20330ff 	and	r3, r3, #255	; 0xff
40008b14:	e51b200c 	ldr	r2, [fp, #-12]
40008b18:	e2422001 	sub	r2, r2, #1
40008b1c:	e50b200c 	str	r2, [fp, #-12]
40008b20:	e3530000 	cmp	r3, #0
40008b24:	0a000003 	beq	40008b38 <strnlen+0x64>
40008b28:	e51b3004 	ldr	r3, [fp, #-4]
40008b2c:	e5d33000 	ldrb	r3, [r3]
40008b30:	e3530000 	cmp	r3, #0
40008b34:	1affffee 	bne	40008af4 <strnlen+0x20>
40008b38:	e51b2004 	ldr	r2, [fp, #-4]
40008b3c:	e51b3008 	ldr	r3, [fp, #-8]
40008b40:	e0633002 	rsb	r3, r3, r2
40008b44:	e1a00003 	mov	r0, r3
40008b48:	e28bd000 	add	sp, fp, #0
40008b4c:	e8bd0800 	pop	{fp}
40008b50:	e12fff1e 	bx	lr

40008b54 <vsprintf>:
40008b54:	e92d4800 	push	{fp, lr}
40008b58:	e28db004 	add	fp, sp, #4
40008b5c:	e24dd044 	sub	sp, sp, #68	; 0x44
40008b60:	e50b0038 	str	r0, [fp, #-56]	; 0x38
40008b64:	e50b103c 	str	r1, [fp, #-60]	; 0x3c
40008b68:	e50b2040 	str	r2, [fp, #-64]	; 0x40
40008b6c:	e51b3038 	ldr	r3, [fp, #-56]	; 0x38
40008b70:	e50b3014 	str	r3, [fp, #-20]
40008b74:	ea000235 	b	40009450 <vsprintf+0x8fc>
40008b78:	e51b303c 	ldr	r3, [fp, #-60]	; 0x3c
40008b7c:	e5d33000 	ldrb	r3, [r3]
40008b80:	e3530025 	cmp	r3, #37	; 0x25
40008b84:	0a000007 	beq	40008ba8 <vsprintf+0x54>
40008b88:	e51b303c 	ldr	r3, [fp, #-60]	; 0x3c
40008b8c:	e5d32000 	ldrb	r2, [r3]
40008b90:	e51b3014 	ldr	r3, [fp, #-20]
40008b94:	e5c32000 	strb	r2, [r3]
40008b98:	e51b3014 	ldr	r3, [fp, #-20]
40008b9c:	e2833001 	add	r3, r3, #1
40008ba0:	e50b3014 	str	r3, [fp, #-20]
40008ba4:	ea000226 	b	40009444 <vsprintf+0x8f0>
40008ba8:	e3a03000 	mov	r3, #0
40008bac:	e50b301c 	str	r3, [fp, #-28]
40008bb0:	e51b303c 	ldr	r3, [fp, #-60]	; 0x3c
40008bb4:	e2833001 	add	r3, r3, #1
40008bb8:	e50b303c 	str	r3, [fp, #-60]	; 0x3c
40008bbc:	e51b303c 	ldr	r3, [fp, #-60]	; 0x3c
40008bc0:	e5d33000 	ldrb	r3, [r3]
40008bc4:	e2433020 	sub	r3, r3, #32
40008bc8:	e3530010 	cmp	r3, #16
40008bcc:	979ff103 	ldrls	pc, [pc, r3, lsl #2]
40008bd0:	ea000024 	b	40008c68 <vsprintf+0x114>
40008bd4:	40008c38 	andmi	r8, r0, r8, lsr ip
40008bd8:	40008c68 	andmi	r8, r0, r8, ror #24
40008bdc:	40008c68 	andmi	r8, r0, r8, ror #24
40008be0:	40008c48 	andmi	r8, r0, r8, asr #24
40008be4:	40008c68 	andmi	r8, r0, r8, ror #24
40008be8:	40008c68 	andmi	r8, r0, r8, ror #24
40008bec:	40008c68 	andmi	r8, r0, r8, ror #24
40008bf0:	40008c68 	andmi	r8, r0, r8, ror #24
40008bf4:	40008c68 	andmi	r8, r0, r8, ror #24
40008bf8:	40008c68 	andmi	r8, r0, r8, ror #24
40008bfc:	40008c68 	andmi	r8, r0, r8, ror #24
40008c00:	40008c28 	andmi	r8, r0, r8, lsr #24
40008c04:	40008c68 	andmi	r8, r0, r8, ror #24
40008c08:	40008c18 	andmi	r8, r0, r8, lsl ip
40008c0c:	40008c68 	andmi	r8, r0, r8, ror #24
40008c10:	40008c68 	andmi	r8, r0, r8, ror #24
40008c14:	40008c58 	andmi	r8, r0, r8, asr ip
40008c18:	e51b301c 	ldr	r3, [fp, #-28]
40008c1c:	e3833010 	orr	r3, r3, #16
40008c20:	e50b301c 	str	r3, [fp, #-28]
40008c24:	eaffffe1 	b	40008bb0 <vsprintf+0x5c>
40008c28:	e51b301c 	ldr	r3, [fp, #-28]
40008c2c:	e3833004 	orr	r3, r3, #4
40008c30:	e50b301c 	str	r3, [fp, #-28]
40008c34:	eaffffdd 	b	40008bb0 <vsprintf+0x5c>
40008c38:	e51b301c 	ldr	r3, [fp, #-28]
40008c3c:	e3833008 	orr	r3, r3, #8
40008c40:	e50b301c 	str	r3, [fp, #-28]
40008c44:	eaffffd9 	b	40008bb0 <vsprintf+0x5c>
40008c48:	e51b301c 	ldr	r3, [fp, #-28]
40008c4c:	e3833020 	orr	r3, r3, #32
40008c50:	e50b301c 	str	r3, [fp, #-28]
40008c54:	eaffffd5 	b	40008bb0 <vsprintf+0x5c>
40008c58:	e51b301c 	ldr	r3, [fp, #-28]
40008c5c:	e3833001 	orr	r3, r3, #1
40008c60:	e50b301c 	str	r3, [fp, #-28]
40008c64:	eaffffd1 	b	40008bb0 <vsprintf+0x5c>
40008c68:	e3e03000 	mvn	r3, #0
40008c6c:	e50b3020 	str	r3, [fp, #-32]
40008c70:	e51b303c 	ldr	r3, [fp, #-60]	; 0x3c
40008c74:	e5d33000 	ldrb	r3, [r3]
40008c78:	e353002f 	cmp	r3, #47	; 0x2f
40008c7c:	9a000008 	bls	40008ca4 <vsprintf+0x150>
40008c80:	e51b303c 	ldr	r3, [fp, #-60]	; 0x3c
40008c84:	e5d33000 	ldrb	r3, [r3]
40008c88:	e3530039 	cmp	r3, #57	; 0x39
40008c8c:	8a000004 	bhi	40008ca4 <vsprintf+0x150>
40008c90:	e24b303c 	sub	r3, fp, #60	; 0x3c
40008c94:	e1a00003 	mov	r0, r3
40008c98:	ebfffe42 	bl	400085a8 <skip_atoi>
40008c9c:	e50b0020 	str	r0, [fp, #-32]
40008ca0:	ea000014 	b	40008cf8 <vsprintf+0x1a4>
40008ca4:	e51b303c 	ldr	r3, [fp, #-60]	; 0x3c
40008ca8:	e5d33000 	ldrb	r3, [r3]
40008cac:	e353002a 	cmp	r3, #42	; 0x2a
40008cb0:	1a000010 	bne	40008cf8 <vsprintf+0x1a4>
40008cb4:	e51b303c 	ldr	r3, [fp, #-60]	; 0x3c
40008cb8:	e2833001 	add	r3, r3, #1
40008cbc:	e50b303c 	str	r3, [fp, #-60]	; 0x3c
40008cc0:	e51b3040 	ldr	r3, [fp, #-64]	; 0x40
40008cc4:	e2832004 	add	r2, r3, #4
40008cc8:	e50b2040 	str	r2, [fp, #-64]	; 0x40
40008ccc:	e5933000 	ldr	r3, [r3]
40008cd0:	e50b3020 	str	r3, [fp, #-32]
40008cd4:	e51b3020 	ldr	r3, [fp, #-32]
40008cd8:	e3530000 	cmp	r3, #0
40008cdc:	aa000005 	bge	40008cf8 <vsprintf+0x1a4>
40008ce0:	e51b3020 	ldr	r3, [fp, #-32]
40008ce4:	e2633000 	rsb	r3, r3, #0
40008ce8:	e50b3020 	str	r3, [fp, #-32]
40008cec:	e51b301c 	ldr	r3, [fp, #-28]
40008cf0:	e3833010 	orr	r3, r3, #16
40008cf4:	e50b301c 	str	r3, [fp, #-28]
40008cf8:	e3e03000 	mvn	r3, #0
40008cfc:	e50b3024 	str	r3, [fp, #-36]	; 0x24
40008d00:	e51b303c 	ldr	r3, [fp, #-60]	; 0x3c
40008d04:	e5d33000 	ldrb	r3, [r3]
40008d08:	e353002e 	cmp	r3, #46	; 0x2e
40008d0c:	1a000020 	bne	40008d94 <vsprintf+0x240>
40008d10:	e51b303c 	ldr	r3, [fp, #-60]	; 0x3c
40008d14:	e2833001 	add	r3, r3, #1
40008d18:	e50b303c 	str	r3, [fp, #-60]	; 0x3c
40008d1c:	e51b303c 	ldr	r3, [fp, #-60]	; 0x3c
40008d20:	e5d33000 	ldrb	r3, [r3]
40008d24:	e353002f 	cmp	r3, #47	; 0x2f
40008d28:	9a000008 	bls	40008d50 <vsprintf+0x1fc>
40008d2c:	e51b303c 	ldr	r3, [fp, #-60]	; 0x3c
40008d30:	e5d33000 	ldrb	r3, [r3]
40008d34:	e3530039 	cmp	r3, #57	; 0x39
40008d38:	8a000004 	bhi	40008d50 <vsprintf+0x1fc>
40008d3c:	e24b303c 	sub	r3, fp, #60	; 0x3c
40008d40:	e1a00003 	mov	r0, r3
40008d44:	ebfffe17 	bl	400085a8 <skip_atoi>
40008d48:	e50b0024 	str	r0, [fp, #-36]	; 0x24
40008d4c:	ea00000b 	b	40008d80 <vsprintf+0x22c>
40008d50:	e51b303c 	ldr	r3, [fp, #-60]	; 0x3c
40008d54:	e5d33000 	ldrb	r3, [r3]
40008d58:	e353002a 	cmp	r3, #42	; 0x2a
40008d5c:	1a000007 	bne	40008d80 <vsprintf+0x22c>
40008d60:	e51b303c 	ldr	r3, [fp, #-60]	; 0x3c
40008d64:	e2833001 	add	r3, r3, #1
40008d68:	e50b303c 	str	r3, [fp, #-60]	; 0x3c
40008d6c:	e51b3040 	ldr	r3, [fp, #-64]	; 0x40
40008d70:	e2832004 	add	r2, r3, #4
40008d74:	e50b2040 	str	r2, [fp, #-64]	; 0x40
40008d78:	e5933000 	ldr	r3, [r3]
40008d7c:	e50b3024 	str	r3, [fp, #-36]	; 0x24
40008d80:	e51b3024 	ldr	r3, [fp, #-36]	; 0x24
40008d84:	e3530000 	cmp	r3, #0
40008d88:	aa000001 	bge	40008d94 <vsprintf+0x240>
40008d8c:	e3a03000 	mov	r3, #0
40008d90:	e50b3024 	str	r3, [fp, #-36]	; 0x24
40008d94:	e3e03000 	mvn	r3, #0
40008d98:	e50b3028 	str	r3, [fp, #-40]	; 0x28
40008d9c:	e51b303c 	ldr	r3, [fp, #-60]	; 0x3c
40008da0:	e5d33000 	ldrb	r3, [r3]
40008da4:	e3530068 	cmp	r3, #104	; 0x68
40008da8:	0a000017 	beq	40008e0c <vsprintf+0x2b8>
40008dac:	e51b303c 	ldr	r3, [fp, #-60]	; 0x3c
40008db0:	e5d33000 	ldrb	r3, [r3]
40008db4:	e353006c 	cmp	r3, #108	; 0x6c
40008db8:	0a000013 	beq	40008e0c <vsprintf+0x2b8>
40008dbc:	e51b303c 	ldr	r3, [fp, #-60]	; 0x3c
40008dc0:	e5d33000 	ldrb	r3, [r3]
40008dc4:	e353004c 	cmp	r3, #76	; 0x4c
40008dc8:	0a00000f 	beq	40008e0c <vsprintf+0x2b8>
40008dcc:	e51b303c 	ldr	r3, [fp, #-60]	; 0x3c
40008dd0:	e5d33000 	ldrb	r3, [r3]
40008dd4:	e353005a 	cmp	r3, #90	; 0x5a
40008dd8:	0a00000b 	beq	40008e0c <vsprintf+0x2b8>
40008ddc:	e51b303c 	ldr	r3, [fp, #-60]	; 0x3c
40008de0:	e5d33000 	ldrb	r3, [r3]
40008de4:	e353007a 	cmp	r3, #122	; 0x7a
40008de8:	0a000007 	beq	40008e0c <vsprintf+0x2b8>
40008dec:	e51b303c 	ldr	r3, [fp, #-60]	; 0x3c
40008df0:	e5d33000 	ldrb	r3, [r3]
40008df4:	e3530074 	cmp	r3, #116	; 0x74
40008df8:	0a000003 	beq	40008e0c <vsprintf+0x2b8>
40008dfc:	e51b303c 	ldr	r3, [fp, #-60]	; 0x3c
40008e00:	e5d33000 	ldrb	r3, [r3]
40008e04:	e3530071 	cmp	r3, #113	; 0x71
40008e08:	1a000012 	bne	40008e58 <vsprintf+0x304>
40008e0c:	e51b303c 	ldr	r3, [fp, #-60]	; 0x3c
40008e10:	e5d33000 	ldrb	r3, [r3]
40008e14:	e50b3028 	str	r3, [fp, #-40]	; 0x28
40008e18:	e51b3028 	ldr	r3, [fp, #-40]	; 0x28
40008e1c:	e353006c 	cmp	r3, #108	; 0x6c
40008e20:	1a000009 	bne	40008e4c <vsprintf+0x2f8>
40008e24:	e51b303c 	ldr	r3, [fp, #-60]	; 0x3c
40008e28:	e2833001 	add	r3, r3, #1
40008e2c:	e5d33000 	ldrb	r3, [r3]
40008e30:	e353006c 	cmp	r3, #108	; 0x6c
40008e34:	1a000004 	bne	40008e4c <vsprintf+0x2f8>
40008e38:	e3a03071 	mov	r3, #113	; 0x71
40008e3c:	e50b3028 	str	r3, [fp, #-40]	; 0x28
40008e40:	e51b303c 	ldr	r3, [fp, #-60]	; 0x3c
40008e44:	e2833001 	add	r3, r3, #1
40008e48:	e50b303c 	str	r3, [fp, #-60]	; 0x3c
40008e4c:	e51b303c 	ldr	r3, [fp, #-60]	; 0x3c
40008e50:	e2833001 	add	r3, r3, #1
40008e54:	e50b303c 	str	r3, [fp, #-60]	; 0x3c
40008e58:	e3a0300a 	mov	r3, #10
40008e5c:	e50b3010 	str	r3, [fp, #-16]
40008e60:	e51b303c 	ldr	r3, [fp, #-60]	; 0x3c
40008e64:	e5d33000 	ldrb	r3, [r3]
40008e68:	e2433025 	sub	r3, r3, #37	; 0x25
40008e6c:	e3530053 	cmp	r3, #83	; 0x53
40008e70:	979ff103 	ldrls	pc, [pc, r3, lsl #2]
40008e74:	ea00010d 	b	400092b0 <vsprintf+0x75c>
40008e78:	40009260 	andmi	r9, r0, r0, ror #4
40008e7c:	400092b0 			; <UNDEFINED> instruction: 0x400092b0
40008e80:	400092b0 			; <UNDEFINED> instruction: 0x400092b0
40008e84:	400092b0 			; <UNDEFINED> instruction: 0x400092b0
40008e88:	400092b0 			; <UNDEFINED> instruction: 0x400092b0
40008e8c:	400092b0 			; <UNDEFINED> instruction: 0x400092b0
40008e90:	400092b0 			; <UNDEFINED> instruction: 0x400092b0
40008e94:	400092b0 			; <UNDEFINED> instruction: 0x400092b0
40008e98:	400092b0 			; <UNDEFINED> instruction: 0x400092b0
40008e9c:	400092b0 			; <UNDEFINED> instruction: 0x400092b0
40008ea0:	400092b0 			; <UNDEFINED> instruction: 0x400092b0
40008ea4:	400092b0 			; <UNDEFINED> instruction: 0x400092b0
40008ea8:	400092b0 			; <UNDEFINED> instruction: 0x400092b0
40008eac:	400092b0 			; <UNDEFINED> instruction: 0x400092b0
40008eb0:	400092b0 			; <UNDEFINED> instruction: 0x400092b0
40008eb4:	400092b0 			; <UNDEFINED> instruction: 0x400092b0
40008eb8:	400092b0 			; <UNDEFINED> instruction: 0x400092b0
40008ebc:	400092b0 			; <UNDEFINED> instruction: 0x400092b0
40008ec0:	400092b0 			; <UNDEFINED> instruction: 0x400092b0
40008ec4:	400092b0 			; <UNDEFINED> instruction: 0x400092b0
40008ec8:	400092b0 			; <UNDEFINED> instruction: 0x400092b0
40008ecc:	400092b0 			; <UNDEFINED> instruction: 0x400092b0
40008ed0:	400092b0 			; <UNDEFINED> instruction: 0x400092b0
40008ed4:	400092b0 			; <UNDEFINED> instruction: 0x400092b0
40008ed8:	400092b0 			; <UNDEFINED> instruction: 0x400092b0
40008edc:	400092b0 			; <UNDEFINED> instruction: 0x400092b0
40008ee0:	400092b0 			; <UNDEFINED> instruction: 0x400092b0
40008ee4:	400092b0 			; <UNDEFINED> instruction: 0x400092b0
40008ee8:	400092b0 			; <UNDEFINED> instruction: 0x400092b0
40008eec:	400092b0 			; <UNDEFINED> instruction: 0x400092b0
40008ef0:	400092b0 			; <UNDEFINED> instruction: 0x400092b0
40008ef4:	400092b0 			; <UNDEFINED> instruction: 0x400092b0
40008ef8:	400092b0 			; <UNDEFINED> instruction: 0x400092b0
40008efc:	400092b0 			; <UNDEFINED> instruction: 0x400092b0
40008f00:	400092b0 			; <UNDEFINED> instruction: 0x400092b0
40008f04:	400092b0 			; <UNDEFINED> instruction: 0x400092b0
40008f08:	400092b0 			; <UNDEFINED> instruction: 0x400092b0
40008f0c:	400092b0 			; <UNDEFINED> instruction: 0x400092b0
40008f10:	400092b0 			; <UNDEFINED> instruction: 0x400092b0
40008f14:	400092b0 			; <UNDEFINED> instruction: 0x400092b0
40008f18:	400092b0 			; <UNDEFINED> instruction: 0x400092b0
40008f1c:	400092b0 			; <UNDEFINED> instruction: 0x400092b0
40008f20:	400092b0 			; <UNDEFINED> instruction: 0x400092b0
40008f24:	400092b0 			; <UNDEFINED> instruction: 0x400092b0
40008f28:	400092b0 			; <UNDEFINED> instruction: 0x400092b0
40008f2c:	400092b0 			; <UNDEFINED> instruction: 0x400092b0
40008f30:	400092b0 			; <UNDEFINED> instruction: 0x400092b0
40008f34:	400092b0 			; <UNDEFINED> instruction: 0x400092b0
40008f38:	400092b0 			; <UNDEFINED> instruction: 0x400092b0
40008f3c:	400092b0 			; <UNDEFINED> instruction: 0x400092b0
40008f40:	400092b0 			; <UNDEFINED> instruction: 0x400092b0
40008f44:	40009288 	andmi	r9, r0, r8, lsl #5
40008f48:	400092b0 			; <UNDEFINED> instruction: 0x400092b0
40008f4c:	400092b0 			; <UNDEFINED> instruction: 0x400092b0
40008f50:	400092b0 			; <UNDEFINED> instruction: 0x400092b0
40008f54:	400092b0 			; <UNDEFINED> instruction: 0x400092b0
40008f58:	400092b0 			; <UNDEFINED> instruction: 0x400092b0
40008f5c:	400092b0 			; <UNDEFINED> instruction: 0x400092b0
40008f60:	400092b0 			; <UNDEFINED> instruction: 0x400092b0
40008f64:	400092b0 			; <UNDEFINED> instruction: 0x400092b0
40008f68:	400092b0 			; <UNDEFINED> instruction: 0x400092b0
40008f6c:	400092b0 			; <UNDEFINED> instruction: 0x400092b0
40008f70:	40008fc8 	andmi	r8, r0, r8, asr #31
40008f74:	400092a0 	andmi	r9, r0, r0, lsr #5
40008f78:	400092b0 			; <UNDEFINED> instruction: 0x400092b0
40008f7c:	400092b0 			; <UNDEFINED> instruction: 0x400092b0
40008f80:	400092b0 			; <UNDEFINED> instruction: 0x400092b0
40008f84:	400092b0 			; <UNDEFINED> instruction: 0x400092b0
40008f88:	400092a0 	andmi	r9, r0, r0, lsr #5
40008f8c:	400092b0 			; <UNDEFINED> instruction: 0x400092b0
40008f90:	400092b0 			; <UNDEFINED> instruction: 0x400092b0
40008f94:	400092b0 			; <UNDEFINED> instruction: 0x400092b0
40008f98:	400092b0 			; <UNDEFINED> instruction: 0x400092b0
40008f9c:	400091fc 	strdmi	r9, [r0], -ip
40008fa0:	4000927c 	andmi	r9, r0, ip, ror r2
40008fa4:	400091a0 	andmi	r9, r0, r0, lsr #3
40008fa8:	400092b0 			; <UNDEFINED> instruction: 0x400092b0
40008fac:	400092b0 			; <UNDEFINED> instruction: 0x400092b0
40008fb0:	4000906c 	andmi	r9, r0, ip, rrx
40008fb4:	400092b0 			; <UNDEFINED> instruction: 0x400092b0
40008fb8:	40009308 	andmi	r9, r0, r8, lsl #6
40008fbc:	400092b0 			; <UNDEFINED> instruction: 0x400092b0
40008fc0:	400092b0 			; <UNDEFINED> instruction: 0x400092b0
40008fc4:	40009294 	mulmi	r0, r4, r2
40008fc8:	e51b301c 	ldr	r3, [fp, #-28]
40008fcc:	e2033010 	and	r3, r3, #16
40008fd0:	e3530000 	cmp	r3, #0
40008fd4:	1a00000c 	bne	4000900c <vsprintf+0x4b8>
40008fd8:	ea000005 	b	40008ff4 <vsprintf+0x4a0>
40008fdc:	e51b3014 	ldr	r3, [fp, #-20]
40008fe0:	e3a02020 	mov	r2, #32
40008fe4:	e5c32000 	strb	r2, [r3]
40008fe8:	e51b3014 	ldr	r3, [fp, #-20]
40008fec:	e2833001 	add	r3, r3, #1
40008ff0:	e50b3014 	str	r3, [fp, #-20]
40008ff4:	e51b3020 	ldr	r3, [fp, #-32]
40008ff8:	e2433001 	sub	r3, r3, #1
40008ffc:	e50b3020 	str	r3, [fp, #-32]
40009000:	e51b3020 	ldr	r3, [fp, #-32]
40009004:	e3530000 	cmp	r3, #0
40009008:	cafffff3 	bgt	40008fdc <vsprintf+0x488>
4000900c:	e51b3040 	ldr	r3, [fp, #-64]	; 0x40
40009010:	e2832004 	add	r2, r3, #4
40009014:	e50b2040 	str	r2, [fp, #-64]	; 0x40
40009018:	e5933000 	ldr	r3, [r3]
4000901c:	e20320ff 	and	r2, r3, #255	; 0xff
40009020:	e51b3014 	ldr	r3, [fp, #-20]
40009024:	e5c32000 	strb	r2, [r3]
40009028:	e51b3014 	ldr	r3, [fp, #-20]
4000902c:	e2833001 	add	r3, r3, #1
40009030:	e50b3014 	str	r3, [fp, #-20]
40009034:	ea000005 	b	40009050 <vsprintf+0x4fc>
40009038:	e51b3014 	ldr	r3, [fp, #-20]
4000903c:	e3a02020 	mov	r2, #32
40009040:	e5c32000 	strb	r2, [r3]
40009044:	e51b3014 	ldr	r3, [fp, #-20]
40009048:	e2833001 	add	r3, r3, #1
4000904c:	e50b3014 	str	r3, [fp, #-20]
40009050:	e51b3020 	ldr	r3, [fp, #-32]
40009054:	e2433001 	sub	r3, r3, #1
40009058:	e50b3020 	str	r3, [fp, #-32]
4000905c:	e51b3020 	ldr	r3, [fp, #-32]
40009060:	e3530000 	cmp	r3, #0
40009064:	cafffff3 	bgt	40009038 <vsprintf+0x4e4>
40009068:	ea0000f5 	b	40009444 <vsprintf+0x8f0>
4000906c:	e51b3040 	ldr	r3, [fp, #-64]	; 0x40
40009070:	e2832004 	add	r2, r3, #4
40009074:	e50b2040 	str	r2, [fp, #-64]	; 0x40
40009078:	e5933000 	ldr	r3, [r3]
4000907c:	e50b3018 	str	r3, [fp, #-24]
40009080:	e51b3018 	ldr	r3, [fp, #-24]
40009084:	e3530000 	cmp	r3, #0
40009088:	1a000001 	bne	40009094 <vsprintf+0x540>
4000908c:	e59f33f4 	ldr	r3, [pc, #1012]	; 40009488 <vsprintf+0x934>
40009090:	e50b3018 	str	r3, [fp, #-24]
40009094:	e51b3024 	ldr	r3, [fp, #-36]	; 0x24
40009098:	e51b0018 	ldr	r0, [fp, #-24]
4000909c:	e1a01003 	mov	r1, r3
400090a0:	ebfffe8b 	bl	40008ad4 <strnlen>
400090a4:	e1a03000 	mov	r3, r0
400090a8:	e50b302c 	str	r3, [fp, #-44]	; 0x2c
400090ac:	e51b301c 	ldr	r3, [fp, #-28]
400090b0:	e2033010 	and	r3, r3, #16
400090b4:	e3530000 	cmp	r3, #0
400090b8:	1a000011 	bne	40009104 <vsprintf+0x5b0>
400090bc:	ea000005 	b	400090d8 <vsprintf+0x584>
400090c0:	e51b3014 	ldr	r3, [fp, #-20]
400090c4:	e3a02020 	mov	r2, #32
400090c8:	e5c32000 	strb	r2, [r3]
400090cc:	e51b3014 	ldr	r3, [fp, #-20]
400090d0:	e2833001 	add	r3, r3, #1
400090d4:	e50b3014 	str	r3, [fp, #-20]
400090d8:	e51b2020 	ldr	r2, [fp, #-32]
400090dc:	e51b302c 	ldr	r3, [fp, #-44]	; 0x2c
400090e0:	e1520003 	cmp	r2, r3
400090e4:	d3a03000 	movle	r3, #0
400090e8:	c3a03001 	movgt	r3, #1
400090ec:	e20330ff 	and	r3, r3, #255	; 0xff
400090f0:	e51b2020 	ldr	r2, [fp, #-32]
400090f4:	e2422001 	sub	r2, r2, #1
400090f8:	e50b2020 	str	r2, [fp, #-32]
400090fc:	e3530000 	cmp	r3, #0
40009100:	1affffee 	bne	400090c0 <vsprintf+0x56c>
40009104:	e3a03000 	mov	r3, #0
40009108:	e50b300c 	str	r3, [fp, #-12]
4000910c:	ea00000c 	b	40009144 <vsprintf+0x5f0>
40009110:	e51b3018 	ldr	r3, [fp, #-24]
40009114:	e5d32000 	ldrb	r2, [r3]
40009118:	e51b3014 	ldr	r3, [fp, #-20]
4000911c:	e5c32000 	strb	r2, [r3]
40009120:	e51b3014 	ldr	r3, [fp, #-20]
40009124:	e2833001 	add	r3, r3, #1
40009128:	e50b3014 	str	r3, [fp, #-20]
4000912c:	e51b3018 	ldr	r3, [fp, #-24]
40009130:	e2833001 	add	r3, r3, #1
40009134:	e50b3018 	str	r3, [fp, #-24]
40009138:	e51b300c 	ldr	r3, [fp, #-12]
4000913c:	e2833001 	add	r3, r3, #1
40009140:	e50b300c 	str	r3, [fp, #-12]
40009144:	e51b200c 	ldr	r2, [fp, #-12]
40009148:	e51b302c 	ldr	r3, [fp, #-44]	; 0x2c
4000914c:	e1520003 	cmp	r2, r3
40009150:	baffffee 	blt	40009110 <vsprintf+0x5bc>
40009154:	ea000005 	b	40009170 <vsprintf+0x61c>
40009158:	e51b3014 	ldr	r3, [fp, #-20]
4000915c:	e3a02020 	mov	r2, #32
40009160:	e5c32000 	strb	r2, [r3]
40009164:	e51b3014 	ldr	r3, [fp, #-20]
40009168:	e2833001 	add	r3, r3, #1
4000916c:	e50b3014 	str	r3, [fp, #-20]
40009170:	e51b2020 	ldr	r2, [fp, #-32]
40009174:	e51b302c 	ldr	r3, [fp, #-44]	; 0x2c
40009178:	e1520003 	cmp	r2, r3
4000917c:	d3a03000 	movle	r3, #0
40009180:	c3a03001 	movgt	r3, #1
40009184:	e20330ff 	and	r3, r3, #255	; 0xff
40009188:	e51b2020 	ldr	r2, [fp, #-32]
4000918c:	e2422001 	sub	r2, r2, #1
40009190:	e50b2020 	str	r2, [fp, #-32]
40009194:	e3530000 	cmp	r3, #0
40009198:	1affffee 	bne	40009158 <vsprintf+0x604>
4000919c:	ea0000a8 	b	40009444 <vsprintf+0x8f0>
400091a0:	e51b3020 	ldr	r3, [fp, #-32]
400091a4:	e3730001 	cmn	r3, #1
400091a8:	1a000004 	bne	400091c0 <vsprintf+0x66c>
400091ac:	e3a03008 	mov	r3, #8
400091b0:	e50b3020 	str	r3, [fp, #-32]
400091b4:	e51b301c 	ldr	r3, [fp, #-28]
400091b8:	e3833001 	orr	r3, r3, #1
400091bc:	e50b301c 	str	r3, [fp, #-28]
400091c0:	e51b3040 	ldr	r3, [fp, #-64]	; 0x40
400091c4:	e2832004 	add	r2, r3, #4
400091c8:	e50b2040 	str	r2, [fp, #-64]	; 0x40
400091cc:	e5933000 	ldr	r3, [r3]
400091d0:	e51b2024 	ldr	r2, [fp, #-36]	; 0x24
400091d4:	e58d2000 	str	r2, [sp]
400091d8:	e51b201c 	ldr	r2, [fp, #-28]
400091dc:	e58d2004 	str	r2, [sp, #4]
400091e0:	e51b0014 	ldr	r0, [fp, #-20]
400091e4:	e1a01003 	mov	r1, r3
400091e8:	e3a02010 	mov	r2, #16
400091ec:	e51b3020 	ldr	r3, [fp, #-32]
400091f0:	ebfffd11 	bl	4000863c <number>
400091f4:	e50b0014 	str	r0, [fp, #-20]
400091f8:	ea000091 	b	40009444 <vsprintf+0x8f0>
400091fc:	e51b3028 	ldr	r3, [fp, #-40]	; 0x28
40009200:	e353006c 	cmp	r3, #108	; 0x6c
40009204:	1a00000a 	bne	40009234 <vsprintf+0x6e0>
40009208:	e51b3040 	ldr	r3, [fp, #-64]	; 0x40
4000920c:	e2832004 	add	r2, r3, #4
40009210:	e50b2040 	str	r2, [fp, #-64]	; 0x40
40009214:	e5933000 	ldr	r3, [r3]
40009218:	e50b3030 	str	r3, [fp, #-48]	; 0x30
4000921c:	e51b2014 	ldr	r2, [fp, #-20]
40009220:	e51b3038 	ldr	r3, [fp, #-56]	; 0x38
40009224:	e0632002 	rsb	r2, r3, r2
40009228:	e51b3030 	ldr	r3, [fp, #-48]	; 0x30
4000922c:	e5832000 	str	r2, [r3]
40009230:	ea000083 	b	40009444 <vsprintf+0x8f0>
40009234:	e51b3040 	ldr	r3, [fp, #-64]	; 0x40
40009238:	e2832004 	add	r2, r3, #4
4000923c:	e50b2040 	str	r2, [fp, #-64]	; 0x40
40009240:	e5933000 	ldr	r3, [r3]
40009244:	e50b3034 	str	r3, [fp, #-52]	; 0x34
40009248:	e51b2014 	ldr	r2, [fp, #-20]
4000924c:	e51b3038 	ldr	r3, [fp, #-56]	; 0x38
40009250:	e0632002 	rsb	r2, r3, r2
40009254:	e51b3034 	ldr	r3, [fp, #-52]	; 0x34
40009258:	e5832000 	str	r2, [r3]
4000925c:	ea000078 	b	40009444 <vsprintf+0x8f0>
40009260:	e51b3014 	ldr	r3, [fp, #-20]
40009264:	e3a02025 	mov	r2, #37	; 0x25
40009268:	e5c32000 	strb	r2, [r3]
4000926c:	e51b3014 	ldr	r3, [fp, #-20]
40009270:	e2833001 	add	r3, r3, #1
40009274:	e50b3014 	str	r3, [fp, #-20]
40009278:	ea000071 	b	40009444 <vsprintf+0x8f0>
4000927c:	e3a03008 	mov	r3, #8
40009280:	e50b3010 	str	r3, [fp, #-16]
40009284:	ea000020 	b	4000930c <vsprintf+0x7b8>
40009288:	e51b301c 	ldr	r3, [fp, #-28]
4000928c:	e3833040 	orr	r3, r3, #64	; 0x40
40009290:	e50b301c 	str	r3, [fp, #-28]
40009294:	e3a03010 	mov	r3, #16
40009298:	e50b3010 	str	r3, [fp, #-16]
4000929c:	ea00001a 	b	4000930c <vsprintf+0x7b8>
400092a0:	e51b301c 	ldr	r3, [fp, #-28]
400092a4:	e3833002 	orr	r3, r3, #2
400092a8:	e50b301c 	str	r3, [fp, #-28]
400092ac:	ea000015 	b	40009308 <vsprintf+0x7b4>
400092b0:	e51b3014 	ldr	r3, [fp, #-20]
400092b4:	e3a02025 	mov	r2, #37	; 0x25
400092b8:	e5c32000 	strb	r2, [r3]
400092bc:	e51b3014 	ldr	r3, [fp, #-20]
400092c0:	e2833001 	add	r3, r3, #1
400092c4:	e50b3014 	str	r3, [fp, #-20]
400092c8:	e51b303c 	ldr	r3, [fp, #-60]	; 0x3c
400092cc:	e5d33000 	ldrb	r3, [r3]
400092d0:	e3530000 	cmp	r3, #0
400092d4:	0a000007 	beq	400092f8 <vsprintf+0x7a4>
400092d8:	e51b303c 	ldr	r3, [fp, #-60]	; 0x3c
400092dc:	e5d32000 	ldrb	r2, [r3]
400092e0:	e51b3014 	ldr	r3, [fp, #-20]
400092e4:	e5c32000 	strb	r2, [r3]
400092e8:	e51b3014 	ldr	r3, [fp, #-20]
400092ec:	e2833001 	add	r3, r3, #1
400092f0:	e50b3014 	str	r3, [fp, #-20]
400092f4:	ea000052 	b	40009444 <vsprintf+0x8f0>
400092f8:	e51b303c 	ldr	r3, [fp, #-60]	; 0x3c
400092fc:	e2433001 	sub	r3, r3, #1
40009300:	e50b303c 	str	r3, [fp, #-60]	; 0x3c
40009304:	ea00004e 	b	40009444 <vsprintf+0x8f0>
40009308:	e1a00000 	nop			; (mov r0, r0)
4000930c:	e51b3028 	ldr	r3, [fp, #-40]	; 0x28
40009310:	e353006c 	cmp	r3, #108	; 0x6c
40009314:	1a000005 	bne	40009330 <vsprintf+0x7dc>
40009318:	e51b3040 	ldr	r3, [fp, #-64]	; 0x40
4000931c:	e2832004 	add	r2, r3, #4
40009320:	e50b2040 	str	r2, [fp, #-64]	; 0x40
40009324:	e5933000 	ldr	r3, [r3]
40009328:	e50b3008 	str	r3, [fp, #-8]
4000932c:	ea000038 	b	40009414 <vsprintf+0x8c0>
40009330:	e51b3028 	ldr	r3, [fp, #-40]	; 0x28
40009334:	e353005a 	cmp	r3, #90	; 0x5a
40009338:	0a000002 	beq	40009348 <vsprintf+0x7f4>
4000933c:	e51b3028 	ldr	r3, [fp, #-40]	; 0x28
40009340:	e353007a 	cmp	r3, #122	; 0x7a
40009344:	1a000005 	bne	40009360 <vsprintf+0x80c>
40009348:	e51b3040 	ldr	r3, [fp, #-64]	; 0x40
4000934c:	e2832004 	add	r2, r3, #4
40009350:	e50b2040 	str	r2, [fp, #-64]	; 0x40
40009354:	e5933000 	ldr	r3, [r3]
40009358:	e50b3008 	str	r3, [fp, #-8]
4000935c:	ea00002c 	b	40009414 <vsprintf+0x8c0>
40009360:	e51b3028 	ldr	r3, [fp, #-40]	; 0x28
40009364:	e3530074 	cmp	r3, #116	; 0x74
40009368:	1a000005 	bne	40009384 <vsprintf+0x830>
4000936c:	e51b3040 	ldr	r3, [fp, #-64]	; 0x40
40009370:	e2832004 	add	r2, r3, #4
40009374:	e50b2040 	str	r2, [fp, #-64]	; 0x40
40009378:	e5933000 	ldr	r3, [r3]
4000937c:	e50b3008 	str	r3, [fp, #-8]
40009380:	ea000023 	b	40009414 <vsprintf+0x8c0>
40009384:	e51b3028 	ldr	r3, [fp, #-40]	; 0x28
40009388:	e3530068 	cmp	r3, #104	; 0x68
4000938c:	1a000011 	bne	400093d8 <vsprintf+0x884>
40009390:	e51b3040 	ldr	r3, [fp, #-64]	; 0x40
40009394:	e2832004 	add	r2, r3, #4
40009398:	e50b2040 	str	r2, [fp, #-64]	; 0x40
4000939c:	e5933000 	ldr	r3, [r3]
400093a0:	e1a03803 	lsl	r3, r3, #16
400093a4:	e1a03823 	lsr	r3, r3, #16
400093a8:	e50b3008 	str	r3, [fp, #-8]
400093ac:	e51b301c 	ldr	r3, [fp, #-28]
400093b0:	e2033002 	and	r3, r3, #2
400093b4:	e3530000 	cmp	r3, #0
400093b8:	0a000015 	beq	40009414 <vsprintf+0x8c0>
400093bc:	e51b3008 	ldr	r3, [fp, #-8]
400093c0:	e1a03803 	lsl	r3, r3, #16
400093c4:	e1a03823 	lsr	r3, r3, #16
400093c8:	e1a03803 	lsl	r3, r3, #16
400093cc:	e1a03843 	asr	r3, r3, #16
400093d0:	e50b3008 	str	r3, [fp, #-8]
400093d4:	ea00000e 	b	40009414 <vsprintf+0x8c0>
400093d8:	e51b301c 	ldr	r3, [fp, #-28]
400093dc:	e2033002 	and	r3, r3, #2
400093e0:	e3530000 	cmp	r3, #0
400093e4:	0a000005 	beq	40009400 <vsprintf+0x8ac>
400093e8:	e51b3040 	ldr	r3, [fp, #-64]	; 0x40
400093ec:	e2832004 	add	r2, r3, #4
400093f0:	e50b2040 	str	r2, [fp, #-64]	; 0x40
400093f4:	e5933000 	ldr	r3, [r3]
400093f8:	e50b3008 	str	r3, [fp, #-8]
400093fc:	ea000004 	b	40009414 <vsprintf+0x8c0>
40009400:	e51b3040 	ldr	r3, [fp, #-64]	; 0x40
40009404:	e2832004 	add	r2, r3, #4
40009408:	e50b2040 	str	r2, [fp, #-64]	; 0x40
4000940c:	e5933000 	ldr	r3, [r3]
40009410:	e50b3008 	str	r3, [fp, #-8]
40009414:	e51b2008 	ldr	r2, [fp, #-8]
40009418:	e51b3010 	ldr	r3, [fp, #-16]
4000941c:	e51b1024 	ldr	r1, [fp, #-36]	; 0x24
40009420:	e58d1000 	str	r1, [sp]
40009424:	e51b101c 	ldr	r1, [fp, #-28]
40009428:	e58d1004 	str	r1, [sp, #4]
4000942c:	e51b0014 	ldr	r0, [fp, #-20]
40009430:	e1a01002 	mov	r1, r2
40009434:	e1a02003 	mov	r2, r3
40009438:	e51b3020 	ldr	r3, [fp, #-32]
4000943c:	ebfffc7e 	bl	4000863c <number>
40009440:	e50b0014 	str	r0, [fp, #-20]
40009444:	e51b303c 	ldr	r3, [fp, #-60]	; 0x3c
40009448:	e2833001 	add	r3, r3, #1
4000944c:	e50b303c 	str	r3, [fp, #-60]	; 0x3c
40009450:	e51b303c 	ldr	r3, [fp, #-60]	; 0x3c
40009454:	e5d33000 	ldrb	r3, [r3]
40009458:	e3530000 	cmp	r3, #0
4000945c:	1afffdc5 	bne	40008b78 <vsprintf+0x24>
40009460:	e51b3014 	ldr	r3, [fp, #-20]
40009464:	e3a02000 	mov	r2, #0
40009468:	e5c32000 	strb	r2, [r3]
4000946c:	e51b2014 	ldr	r2, [fp, #-20]
40009470:	e51b3038 	ldr	r3, [fp, #-56]	; 0x38
40009474:	e0633002 	rsb	r3, r3, r2
40009478:	e1a00003 	mov	r0, r3
4000947c:	e24bd004 	sub	sp, fp, #4
40009480:	e8bd4800 	pop	{fp, lr}
40009484:	e12fff1e 	bx	lr
40009488:	4000a084 	andmi	sl, r0, r4, lsl #1

4000948c <sprintf>:
4000948c:	e92d000e 	push	{r1, r2, r3}
40009490:	e92d4800 	push	{fp, lr}
40009494:	e28db004 	add	fp, sp, #4
40009498:	e24dd00c 	sub	sp, sp, #12
4000949c:	e50b0010 	str	r0, [fp, #-16]
400094a0:	e28b2008 	add	r2, fp, #8
400094a4:	e24b300c 	sub	r3, fp, #12
400094a8:	e5832000 	str	r2, [r3]
400094ac:	e51b300c 	ldr	r3, [fp, #-12]
400094b0:	e51b0010 	ldr	r0, [fp, #-16]
400094b4:	e59b1004 	ldr	r1, [fp, #4]
400094b8:	e1a02003 	mov	r2, r3
400094bc:	ebfffda4 	bl	40008b54 <vsprintf>
400094c0:	e50b0008 	str	r0, [fp, #-8]
400094c4:	e51b3008 	ldr	r3, [fp, #-8]
400094c8:	e1a00003 	mov	r0, r3
400094cc:	e24bd004 	sub	sp, fp, #4
400094d0:	e8bd4800 	pop	{fp, lr}
400094d4:	e28dd00c 	add	sp, sp, #12
400094d8:	e12fff1e 	bx	lr

400094dc <printf>:
400094dc:	e92d000f 	push	{r0, r1, r2, r3}
400094e0:	e92d4800 	push	{fp, lr}
400094e4:	e28db004 	add	fp, sp, #4
400094e8:	e24dd06c 	sub	sp, sp, #108	; 0x6c
400094ec:	e28b2008 	add	r2, fp, #8
400094f0:	e24b300c 	sub	r3, fp, #12
400094f4:	e5832000 	str	r2, [r3]
400094f8:	e51b300c 	ldr	r3, [fp, #-12]
400094fc:	e24b2070 	sub	r2, fp, #112	; 0x70
40009500:	e1a00002 	mov	r0, r2
40009504:	e59b1004 	ldr	r1, [fp, #4]
40009508:	e1a02003 	mov	r2, r3
4000950c:	ebfffd90 	bl	40008b54 <vsprintf>
40009510:	e1a03000 	mov	r3, r0
40009514:	e50b3008 	str	r3, [fp, #-8]
40009518:	e24b3070 	sub	r3, fp, #112	; 0x70
4000951c:	e1a00003 	mov	r0, r3
40009520:	eb000033 	bl	400095f4 <puts>
40009524:	e24bd004 	sub	sp, fp, #4
40009528:	e8bd4800 	pop	{fp, lr}
4000952c:	e28dd010 	add	sp, sp, #16
40009530:	e12fff1e 	bx	lr

40009534 <uart_init>:
40009534:	e52db004 	push	{fp}		; (str fp, [sp, #-4]!)
40009538:	e28db000 	add	fp, sp, #0
4000953c:	e59f304c 	ldr	r3, [pc, #76]	; 40009590 <uart_init+0x5c>
40009540:	e59f2048 	ldr	r2, [pc, #72]	; 40009590 <uart_init+0x5c>
40009544:	e5922000 	ldr	r2, [r2]
40009548:	e3c220ff 	bic	r2, r2, #255	; 0xff
4000954c:	e3822022 	orr	r2, r2, #34	; 0x22
40009550:	e5832000 	str	r2, [r3]
40009554:	e59f3038 	ldr	r3, [pc, #56]	; 40009594 <uart_init+0x60>
40009558:	e3a02003 	mov	r2, #3
4000955c:	e5832000 	str	r2, [r3]
40009560:	e59f302c 	ldr	r3, [pc, #44]	; 40009594 <uart_init+0x60>
40009564:	e3a02005 	mov	r2, #5
40009568:	e5832004 	str	r2, [r3, #4]
4000956c:	e59f3020 	ldr	r3, [pc, #32]	; 40009594 <uart_init+0x60>
40009570:	e3a02035 	mov	r2, #53	; 0x35
40009574:	e5832028 	str	r2, [r3, #40]	; 0x28
40009578:	e59f3014 	ldr	r3, [pc, #20]	; 40009594 <uart_init+0x60>
4000957c:	e3a02005 	mov	r2, #5
40009580:	e583202c 	str	r2, [r3, #44]	; 0x2c
40009584:	e28bd000 	add	sp, fp, #0
40009588:	e8bd0800 	pop	{fp}
4000958c:	e12fff1e 	bx	lr
40009590:	11400020 	cmpne	r0, r0, lsr #32
40009594:	13820000 	orrne	r0, r2, #0

40009598 <putc>:
40009598:	e92d4800 	push	{fp, lr}
4000959c:	e28db004 	add	fp, sp, #4
400095a0:	e24dd004 	sub	sp, sp, #4
400095a4:	e1a03000 	mov	r3, r0
400095a8:	e54b3008 	strb	r3, [fp, #-8]
400095ac:	e1a00000 	nop			; (mov r0, r0)
400095b0:	e59f3038 	ldr	r3, [pc, #56]	; 400095f0 <putc+0x58>
400095b4:	e5933010 	ldr	r3, [r3, #16]
400095b8:	e2033002 	and	r3, r3, #2
400095bc:	e3530000 	cmp	r3, #0
400095c0:	0afffffa 	beq	400095b0 <putc+0x18>
400095c4:	e59f3024 	ldr	r3, [pc, #36]	; 400095f0 <putc+0x58>
400095c8:	e55b2008 	ldrb	r2, [fp, #-8]
400095cc:	e5832020 	str	r2, [r3, #32]
400095d0:	e55b3008 	ldrb	r3, [fp, #-8]
400095d4:	e353000a 	cmp	r3, #10
400095d8:	1a000001 	bne	400095e4 <putc+0x4c>
400095dc:	e3a0000d 	mov	r0, #13
400095e0:	ebffffec 	bl	40009598 <putc>
400095e4:	e24bd004 	sub	sp, fp, #4
400095e8:	e8bd4800 	pop	{fp, lr}
400095ec:	e12fff1e 	bx	lr
400095f0:	13820000 	orrne	r0, r2, #0

400095f4 <puts>:
400095f4:	e92d4800 	push	{fp, lr}
400095f8:	e28db004 	add	fp, sp, #4
400095fc:	e24dd004 	sub	sp, sp, #4
40009600:	e50b0008 	str	r0, [fp, #-8]
40009604:	ea000006 	b	40009624 <puts+0x30>
40009608:	e51b3008 	ldr	r3, [fp, #-8]
4000960c:	e5d33000 	ldrb	r3, [r3]
40009610:	e51b2008 	ldr	r2, [fp, #-8]
40009614:	e2822001 	add	r2, r2, #1
40009618:	e50b2008 	str	r2, [fp, #-8]
4000961c:	e1a00003 	mov	r0, r3
40009620:	ebffffdc 	bl	40009598 <putc>
40009624:	e51b3008 	ldr	r3, [fp, #-8]
40009628:	e5d33000 	ldrb	r3, [r3]
4000962c:	e3530000 	cmp	r3, #0
40009630:	1afffff4 	bne	40009608 <puts+0x14>
40009634:	e24bd004 	sub	sp, fp, #4
40009638:	e8bd4800 	pop	{fp, lr}
4000963c:	e12fff1e 	bx	lr

40009640 <getchar>:
40009640:	e52db004 	push	{fp}		; (str fp, [sp, #-4]!)
40009644:	e28db000 	add	fp, sp, #0
40009648:	e24dd004 	sub	sp, sp, #4
4000964c:	e1a00000 	nop			; (mov r0, r0)
40009650:	e59f302c 	ldr	r3, [pc, #44]	; 40009684 <getchar+0x44>
40009654:	e5933010 	ldr	r3, [r3, #16]
40009658:	e2033001 	and	r3, r3, #1
4000965c:	e3530000 	cmp	r3, #0
40009660:	0afffffa 	beq	40009650 <getchar+0x10>
40009664:	e59f3018 	ldr	r3, [pc, #24]	; 40009684 <getchar+0x44>
40009668:	e5933024 	ldr	r3, [r3, #36]	; 0x24
4000966c:	e54b3001 	strb	r3, [fp, #-1]
40009670:	e55b3001 	ldrb	r3, [fp, #-1]
40009674:	e1a00003 	mov	r0, r3
40009678:	e28bd000 	add	sp, fp, #0
4000967c:	e8bd0800 	pop	{fp}
40009680:	e12fff1e 	bx	lr
40009684:	13820000 	orrne	r0, r2, #0

40009688 <__udivsi3>:
40009688:	e3510000 	cmp	r1, #0
4000968c:	0a00001f 	beq	40009710 <Ldiv0>
40009690:	e3a03001 	mov	r3, #1
40009694:	e3a02000 	mov	r2, #0
40009698:	e1500001 	cmp	r0, r1
4000969c:	3a000019 	bcc	40009708 <Lgot_result>

400096a0 <Loop1>:
400096a0:	e3510201 	cmp	r1, #268435456	; 0x10000000
400096a4:	31510000 	cmpcc	r1, r0
400096a8:	31a01201 	lslcc	r1, r1, #4
400096ac:	31a03203 	lslcc	r3, r3, #4
400096b0:	3afffffa 	bcc	400096a0 <Loop1>

400096b4 <Lbignum>:
400096b4:	e3510102 	cmp	r1, #-2147483648	; 0x80000000
400096b8:	31510000 	cmpcc	r1, r0
400096bc:	31a01081 	lslcc	r1, r1, #1
400096c0:	31a03083 	lslcc	r3, r3, #1
400096c4:	3afffffa 	bcc	400096b4 <Lbignum>

400096c8 <Loop3>:
400096c8:	e1500001 	cmp	r0, r1
400096cc:	20400001 	subcs	r0, r0, r1
400096d0:	21822003 	orrcs	r2, r2, r3
400096d4:	e15000a1 	cmp	r0, r1, lsr #1
400096d8:	204000a1 	subcs	r0, r0, r1, lsr #1
400096dc:	218220a3 	orrcs	r2, r2, r3, lsr #1
400096e0:	e1500121 	cmp	r0, r1, lsr #2
400096e4:	20400121 	subcs	r0, r0, r1, lsr #2
400096e8:	21822123 	orrcs	r2, r2, r3, lsr #2
400096ec:	e15001a1 	cmp	r0, r1, lsr #3
400096f0:	204001a1 	subcs	r0, r0, r1, lsr #3
400096f4:	218221a3 	orrcs	r2, r2, r3, lsr #3
400096f8:	e3500000 	cmp	r0, #0
400096fc:	11b03223 	lsrsne	r3, r3, #4
40009700:	11a01221 	lsrne	r1, r1, #4
40009704:	1affffef 	bne	400096c8 <Loop3>

40009708 <Lgot_result>:
40009708:	e1a00002 	mov	r0, r2
4000970c:	e1a0f00e 	mov	pc, lr

40009710 <Ldiv0>:
40009710:	e52de004 	push	{lr}		; (str lr, [sp, #-4]!)
40009714:	e3a00000 	mov	r0, #0
40009718:	e8bd8000 	pop	{pc}

4000971c <__umodsi3>:
4000971c:	e3510000 	cmp	r1, #0
40009720:	0a000026 	beq	400097c0 <Ldiv0>
40009724:	e3a03001 	mov	r3, #1
40009728:	e1500001 	cmp	r0, r1
4000972c:	31a0f00e 	movcc	pc, lr

40009730 <Loop1>:
40009730:	e3510201 	cmp	r1, #268435456	; 0x10000000
40009734:	31510000 	cmpcc	r1, r0
40009738:	31a01201 	lslcc	r1, r1, #4
4000973c:	31a03203 	lslcc	r3, r3, #4
40009740:	3afffffa 	bcc	40009730 <Loop1>

40009744 <Lbignum>:
40009744:	e3510102 	cmp	r1, #-2147483648	; 0x80000000
40009748:	31510000 	cmpcc	r1, r0
4000974c:	31a01081 	lslcc	r1, r1, #1
40009750:	31a03083 	lslcc	r3, r3, #1
40009754:	3afffffa 	bcc	40009744 <Lbignum>

40009758 <Loop3>:
40009758:	e3a02000 	mov	r2, #0
4000975c:	e1500001 	cmp	r0, r1
40009760:	20400001 	subcs	r0, r0, r1
40009764:	e15000a1 	cmp	r0, r1, lsr #1
40009768:	204000a1 	subcs	r0, r0, r1, lsr #1
4000976c:	218220e3 	orrcs	r2, r2, r3, ror #1
40009770:	e1500121 	cmp	r0, r1, lsr #2
40009774:	20400121 	subcs	r0, r0, r1, lsr #2
40009778:	21822163 	orrcs	r2, r2, r3, ror #2
4000977c:	e15001a1 	cmp	r0, r1, lsr #3
40009780:	204001a1 	subcs	r0, r0, r1, lsr #3
40009784:	218221e3 	orrcs	r2, r2, r3, ror #3
40009788:	e1a0c003 	mov	ip, r3
4000978c:	e3500000 	cmp	r0, #0
40009790:	11b03223 	lsrsne	r3, r3, #4
40009794:	11a01221 	lsrne	r1, r1, #4
40009798:	1affffee 	bne	40009758 <Loop3>
4000979c:	e212220e 	ands	r2, r2, #-536870912	; 0xe0000000
400097a0:	01a0f00e 	moveq	pc, lr
400097a4:	e11201ec 	tst	r2, ip, ror #3
400097a8:	108001a1 	addne	r0, r0, r1, lsr #3
400097ac:	e112016c 	tst	r2, ip, ror #2
400097b0:	10800121 	addne	r0, r0, r1, lsr #2
400097b4:	e11200ec 	tst	r2, ip, ror #1
400097b8:	108000a1 	addne	r0, r0, r1, lsr #1
400097bc:	e1a0f00e 	mov	pc, lr

400097c0 <Ldiv0>:
400097c0:	e52de004 	push	{lr}		; (str lr, [sp, #-4]!)
400097c4:	e3a00000 	mov	r0, #0
400097c8:	e8bd8000 	pop	{pc}

400097cc <do_irq>:
400097cc:	e52db004 	push	{fp}		; (str fp, [sp, #-4]!)
400097d0:	e28db000 	add	fp, sp, #0
400097d4:	e28bd000 	add	sp, fp, #0
400097d8:	e8bd0800 	pop	{fp}
400097dc:	e12fff1e 	bx	lr

400097e0 <mydelay_ms>:
400097e0:	e52db004 	push	{fp}		; (str fp, [sp, #-4]!)
400097e4:	e28db000 	add	fp, sp, #0
400097e8:	e24dd00c 	sub	sp, sp, #12
400097ec:	e50b000c 	str	r0, [fp, #-12]
400097f0:	ea000012 	b	40009840 <mydelay_ms+0x60>
400097f4:	e3a03000 	mov	r3, #0
400097f8:	e50b3004 	str	r3, [fp, #-4]
400097fc:	ea00000c 	b	40009834 <mydelay_ms+0x54>
40009800:	e3a03000 	mov	r3, #0
40009804:	e50b3008 	str	r3, [fp, #-8]
40009808:	ea000002 	b	40009818 <mydelay_ms+0x38>
4000980c:	e51b3008 	ldr	r3, [fp, #-8]
40009810:	e2833001 	add	r3, r3, #1
40009814:	e50b3008 	str	r3, [fp, #-8]
40009818:	e51b2008 	ldr	r2, [fp, #-8]
4000981c:	e59f3050 	ldr	r3, [pc, #80]	; 40009874 <mydelay_ms+0x94>
40009820:	e1520003 	cmp	r2, r3
40009824:	dafffff8 	ble	4000980c <mydelay_ms+0x2c>
40009828:	e51b3004 	ldr	r3, [fp, #-4]
4000982c:	e2833001 	add	r3, r3, #1
40009830:	e50b3004 	str	r3, [fp, #-4]
40009834:	e51b3004 	ldr	r3, [fp, #-4]
40009838:	e3530004 	cmp	r3, #4
4000983c:	daffffef 	ble	40009800 <mydelay_ms+0x20>
40009840:	e51b300c 	ldr	r3, [fp, #-12]
40009844:	e3530000 	cmp	r3, #0
40009848:	03a03000 	moveq	r3, #0
4000984c:	13a03001 	movne	r3, #1
40009850:	e20330ff 	and	r3, r3, #255	; 0xff
40009854:	e51b200c 	ldr	r2, [fp, #-12]
40009858:	e2422001 	sub	r2, r2, #1
4000985c:	e50b200c 	str	r2, [fp, #-12]
40009860:	e3530000 	cmp	r3, #0
40009864:	1affffe2 	bne	400097f4 <mydelay_ms+0x14>
40009868:	e28bd000 	add	sp, fp, #0
4000986c:	e8bd0800 	pop	{fp}
40009870:	e12fff1e 	bx	lr
40009874:	00000201 	andeq	r0, r0, r1, lsl #4

40009878 <main>:
40009878:	e92d4810 	push	{r4, fp, lr}
4000987c:	e28db008 	add	fp, sp, #8
40009880:	e24dd014 	sub	sp, sp, #20
40009884:	e59f3214 	ldr	r3, [pc, #532]	; 40009aa0 <main+0x228>
40009888:	e3a02201 	mov	r2, #268435456	; 0x10000000
4000988c:	e5832000 	str	r2, [r3]
40009890:	ebffff27 	bl	40009534 <uart_init>
40009894:	e3a03000 	mov	r3, #0
40009898:	e50b301c 	str	r3, [fp, #-28]
4000989c:	e59f2200 	ldr	r2, [pc, #512]	; 40009aa4 <main+0x22c>
400098a0:	e59f31fc 	ldr	r3, [pc, #508]	; 40009aa4 <main+0x22c>
400098a4:	e5933000 	ldr	r3, [r3]
400098a8:	e3c33aff 	bic	r3, r3, #1044480	; 0xff000
400098ac:	e3c33eff 	bic	r3, r3, #4080	; 0xff0
400098b0:	e3833a55 	orr	r3, r3, #348160	; 0x55000
400098b4:	e3833e55 	orr	r3, r3, #1360	; 0x550
400098b8:	e5823000 	str	r3, [r2]
400098bc:	e59f31e4 	ldr	r3, [pc, #484]	; 40009aa8 <main+0x230>
400098c0:	e59f21e0 	ldr	r2, [pc, #480]	; 40009aa8 <main+0x230>
400098c4:	e5922000 	ldr	r2, [r2]
400098c8:	e3c2240f 	bic	r2, r2, #251658240	; 0xf000000
400098cc:	e3822406 	orr	r2, r2, #100663296	; 0x6000000
400098d0:	e5832000 	str	r2, [r3]
400098d4:	e59f31d0 	ldr	r3, [pc, #464]	; 40009aac <main+0x234>
400098d8:	e59f21d0 	ldr	r2, [pc, #464]	; 40009ab0 <main+0x238>
400098dc:	e5832000 	str	r2, [r3]
400098e0:	eb0000eb 	bl	40009c94 <soft_reset>
400098e4:	e59f31c8 	ldr	r3, [pc, #456]	; 40009ab4 <main+0x23c>
400098e8:	e59f21c4 	ldr	r2, [pc, #452]	; 40009ab4 <main+0x23c>
400098ec:	e5922000 	ldr	r2, [r2]
400098f0:	e3c2201f 	bic	r2, r2, #31
400098f4:	e5832000 	str	r2, [r3]
400098f8:	e59f21b4 	ldr	r2, [pc, #436]	; 40009ab4 <main+0x23c>
400098fc:	e59f31b0 	ldr	r3, [pc, #432]	; 40009ab4 <main+0x23c>
40009900:	e5933008 	ldr	r3, [r3, #8]
40009904:	e3c33206 	bic	r3, r3, #1610612736	; 0x60000000
40009908:	e3c33806 	bic	r3, r3, #393216	; 0x60000
4000990c:	e5823008 	str	r3, [r2, #8]
40009910:	e59f319c 	ldr	r3, [pc, #412]	; 40009ab4 <main+0x23c>
40009914:	e59f2198 	ldr	r2, [pc, #408]	; 40009ab4 <main+0x23c>
40009918:	e592200c 	ldr	r2, [r2, #12]
4000991c:	e3c22002 	bic	r2, r2, #2
40009920:	e583200c 	str	r2, [r3, #12]
40009924:	e3a0000a 	mov	r0, #10
40009928:	ebffffac 	bl	400097e0 <mydelay_ms>
4000992c:	eb00013f 	bl	40009e30 <Init_can>
40009930:	e59f0180 	ldr	r0, [pc, #384]	; 40009ab8 <main+0x240>
40009934:	ebfffee8 	bl	400094dc <printf>
40009938:	e59f3160 	ldr	r3, [pc, #352]	; 40009aa0 <main+0x228>
4000993c:	e59f215c 	ldr	r2, [pc, #348]	; 40009aa0 <main+0x228>
40009940:	e5922004 	ldr	r2, [r2, #4]
40009944:	e3822080 	orr	r2, r2, #128	; 0x80
40009948:	e5832004 	str	r2, [r3, #4]
4000994c:	e3a00032 	mov	r0, #50	; 0x32
40009950:	ebffffa2 	bl	400097e0 <mydelay_ms>
40009954:	e59f0160 	ldr	r0, [pc, #352]	; 40009abc <main+0x244>
40009958:	ebfffedf 	bl	400094dc <printf>
4000995c:	e3a03000 	mov	r3, #0
40009960:	e50b301c 	str	r3, [fp, #-28]
40009964:	ea00000d 	b	400099a0 <main+0x128>
40009968:	e51b401c 	ldr	r4, [fp, #-28]
4000996c:	ebffff33 	bl	40009640 <getchar>
40009970:	e1a03000 	mov	r3, r0
40009974:	e20320ff 	and	r2, r3, #255	; 0xff
40009978:	e59f3140 	ldr	r3, [pc, #320]	; 40009ac0 <main+0x248>
4000997c:	e7c32004 	strb	r2, [r3, r4]
40009980:	e51b301c 	ldr	r3, [fp, #-28]
40009984:	e59f2134 	ldr	r2, [pc, #308]	; 40009ac0 <main+0x248>
40009988:	e7d23003 	ldrb	r3, [r2, r3]
4000998c:	e1a00003 	mov	r0, r3
40009990:	ebffff00 	bl	40009598 <putc>
40009994:	e51b301c 	ldr	r3, [fp, #-28]
40009998:	e2833001 	add	r3, r3, #1
4000999c:	e50b301c 	str	r3, [fp, #-28]
400099a0:	e51b301c 	ldr	r3, [fp, #-28]
400099a4:	e3530007 	cmp	r3, #7
400099a8:	daffffee 	ble	40009968 <main+0xf0>
400099ac:	e59f0110 	ldr	r0, [pc, #272]	; 40009ac4 <main+0x24c>
400099b0:	ebfffec9 	bl	400094dc <printf>
400099b4:	e59f0104 	ldr	r0, [pc, #260]	; 40009ac0 <main+0x248>
400099b8:	eb00013b 	bl	40009eac <Can_send>
400099bc:	e3a00064 	mov	r0, #100	; 0x64
400099c0:	ebffff86 	bl	400097e0 <mydelay_ms>
400099c4:	e59f00fc 	ldr	r0, [pc, #252]	; 40009ac8 <main+0x250>
400099c8:	eb00015f 	bl	40009f4c <Can_receive>
400099cc:	e1a03000 	mov	r3, r0
400099d0:	e54b3009 	strb	r3, [fp, #-9]
400099d4:	e55b3009 	ldrb	r3, [fp, #-9]
400099d8:	e59f00ec 	ldr	r0, [pc, #236]	; 40009acc <main+0x254>
400099dc:	e1a01003 	mov	r1, r3
400099e0:	ebfffebd 	bl	400094dc <printf>
400099e4:	e59f00e4 	ldr	r0, [pc, #228]	; 40009ad0 <main+0x258>
400099e8:	ebfffebb 	bl	400094dc <printf>
400099ec:	e3a03000 	mov	r3, #0
400099f0:	e50b301c 	str	r3, [fp, #-28]
400099f4:	ea000008 	b	40009a1c <main+0x1a4>
400099f8:	e51b301c 	ldr	r3, [fp, #-28]
400099fc:	e59f20bc 	ldr	r2, [pc, #188]	; 40009ac0 <main+0x248>
40009a00:	e7d23003 	ldrb	r3, [r2, r3]
40009a04:	e59f00c8 	ldr	r0, [pc, #200]	; 40009ad4 <main+0x25c>
40009a08:	e1a01003 	mov	r1, r3
40009a0c:	ebfffeb2 	bl	400094dc <printf>
40009a10:	e51b301c 	ldr	r3, [fp, #-28]
40009a14:	e2833001 	add	r3, r3, #1
40009a18:	e50b301c 	str	r3, [fp, #-28]
40009a1c:	e51b301c 	ldr	r3, [fp, #-28]
40009a20:	e3530007 	cmp	r3, #7
40009a24:	dafffff3 	ble	400099f8 <main+0x180>
40009a28:	e59f0094 	ldr	r0, [pc, #148]	; 40009ac4 <main+0x24c>
40009a2c:	ebfffeaa 	bl	400094dc <printf>
40009a30:	e59f00a0 	ldr	r0, [pc, #160]	; 40009ad8 <main+0x260>
40009a34:	ebfffea8 	bl	400094dc <printf>
40009a38:	e3a03000 	mov	r3, #0
40009a3c:	e50b301c 	str	r3, [fp, #-28]
40009a40:	ea000009 	b	40009a6c <main+0x1f4>
40009a44:	e51b301c 	ldr	r3, [fp, #-28]
40009a48:	e2833006 	add	r3, r3, #6
40009a4c:	e59f2074 	ldr	r2, [pc, #116]	; 40009ac8 <main+0x250>
40009a50:	e7d23003 	ldrb	r3, [r2, r3]
40009a54:	e59f0078 	ldr	r0, [pc, #120]	; 40009ad4 <main+0x25c>
40009a58:	e1a01003 	mov	r1, r3
40009a5c:	ebfffe9e 	bl	400094dc <printf>
40009a60:	e51b301c 	ldr	r3, [fp, #-28]
40009a64:	e2833001 	add	r3, r3, #1
40009a68:	e50b301c 	str	r3, [fp, #-28]
40009a6c:	e51b301c 	ldr	r3, [fp, #-28]
40009a70:	e3530007 	cmp	r3, #7
40009a74:	dafffff2 	ble	40009a44 <main+0x1cc>
40009a78:	e59f0044 	ldr	r0, [pc, #68]	; 40009ac4 <main+0x24c>
40009a7c:	ebfffe96 	bl	400094dc <printf>
40009a80:	e59f3018 	ldr	r3, [pc, #24]	; 40009aa0 <main+0x228>
40009a84:	e59f2014 	ldr	r2, [pc, #20]	; 40009aa0 <main+0x228>
40009a88:	e5922004 	ldr	r2, [r2, #4]
40009a8c:	e3c22080 	bic	r2, r2, #128	; 0x80
40009a90:	e5832004 	str	r2, [r3, #4]
40009a94:	e3a00064 	mov	r0, #100	; 0x64
40009a98:	ebffff50 	bl	400097e0 <mydelay_ms>
40009a9c:	eaffffa5 	b	40009938 <main+0xc0>
40009aa0:	11000c40 	tstne	r0, r0, asr #24
40009aa4:	11400080 	smlalbbne	r0, r0, r0, r0	; <UNPREDICTABLE>
40009aa8:	1003c254 	andne	ip, r3, r4, asr r2
40009aac:	1003c558 	andne	ip, r3, r8, asr r5
40009ab0:	00001303 	andeq	r1, r0, r3, lsl #6
40009ab4:	13940000 	orrsne	r0, r4, #0
40009ab8:	4000a08c 	andmi	sl, r0, ip, lsl #1
40009abc:	4000a0b8 	strhmi	sl, [r0], -r8
40009ac0:	4000a9fc 	strdmi	sl, [r0], -ip
40009ac4:	4000a0d0 	ldrdmi	sl, [r0], -r0
40009ac8:	4000aa04 	andmi	sl, r0, r4, lsl #20
40009acc:	4000a0d4 	ldrdmi	sl, [r0], -r4
40009ad0:	4000a0dc 	ldrdmi	sl, [r0], -ip
40009ad4:	4000a0e4 	andmi	sl, r0, r4, ror #1
40009ad8:	4000a0e8 	andmi	sl, r0, r8, ror #1

40009adc <delay>:
40009adc:	e52db004 	push	{fp}		; (str fp, [sp, #-4]!)
40009ae0:	e28db000 	add	fp, sp, #0
40009ae4:	e24dd00c 	sub	sp, sp, #12
40009ae8:	e50b000c 	str	r0, [fp, #-12]
40009aec:	e3a03000 	mov	r3, #0
40009af0:	e50b3008 	str	r3, [fp, #-8]
40009af4:	ea00000c 	b	40009b2c <delay+0x50>
40009af8:	e3a03000 	mov	r3, #0
40009afc:	e50b3004 	str	r3, [fp, #-4]
40009b00:	ea000002 	b	40009b10 <delay+0x34>
40009b04:	e51b3004 	ldr	r3, [fp, #-4]
40009b08:	e2833001 	add	r3, r3, #1
40009b0c:	e50b3004 	str	r3, [fp, #-4]
40009b10:	e51b2004 	ldr	r2, [fp, #-4]
40009b14:	e59f302c 	ldr	r3, [pc, #44]	; 40009b48 <delay+0x6c>
40009b18:	e1520003 	cmp	r2, r3
40009b1c:	dafffff8 	ble	40009b04 <delay+0x28>
40009b20:	e51b3008 	ldr	r3, [fp, #-8]
40009b24:	e2833001 	add	r3, r3, #1
40009b28:	e50b3008 	str	r3, [fp, #-8]
40009b2c:	e51b2008 	ldr	r2, [fp, #-8]
40009b30:	e51b300c 	ldr	r3, [fp, #-12]
40009b34:	e1520003 	cmp	r2, r3
40009b38:	baffffee 	blt	40009af8 <delay+0x1c>
40009b3c:	e28bd000 	add	sp, fp, #0
40009b40:	e8bd0800 	pop	{fp}
40009b44:	e12fff1e 	bx	lr
40009b48:	000003e7 	andeq	r0, r0, r7, ror #7

40009b4c <slave_enable>:
40009b4c:	e92d4800 	push	{fp, lr}
40009b50:	e28db004 	add	fp, sp, #4
40009b54:	e59f3020 	ldr	r3, [pc, #32]	; 40009b7c <slave_enable+0x30>
40009b58:	e59f201c 	ldr	r2, [pc, #28]	; 40009b7c <slave_enable+0x30>
40009b5c:	e592200c 	ldr	r2, [r2, #12]
40009b60:	e3c22001 	bic	r2, r2, #1
40009b64:	e583200c 	str	r2, [r3, #12]
40009b68:	e3a00003 	mov	r0, #3
40009b6c:	ebffffda 	bl	40009adc <delay>
40009b70:	e24bd004 	sub	sp, fp, #4
40009b74:	e8bd4800 	pop	{fp, lr}
40009b78:	e12fff1e 	bx	lr
40009b7c:	13940000 	orrsne	r0, r4, #0

40009b80 <slave_disable>:
40009b80:	e92d4800 	push	{fp, lr}
40009b84:	e28db004 	add	fp, sp, #4
40009b88:	e59f3020 	ldr	r3, [pc, #32]	; 40009bb0 <slave_disable+0x30>
40009b8c:	e59f201c 	ldr	r2, [pc, #28]	; 40009bb0 <slave_disable+0x30>
40009b90:	e592200c 	ldr	r2, [r2, #12]
40009b94:	e3822001 	orr	r2, r2, #1
40009b98:	e583200c 	str	r2, [r3, #12]
40009b9c:	e3a00001 	mov	r0, #1
40009ba0:	ebffffcd 	bl	40009adc <delay>
40009ba4:	e24bd004 	sub	sp, fp, #4
40009ba8:	e8bd4800 	pop	{fp, lr}
40009bac:	e12fff1e 	bx	lr
40009bb0:	13940000 	orrsne	r0, r4, #0

40009bb4 <send_byte>:
40009bb4:	e92d4800 	push	{fp, lr}
40009bb8:	e28db004 	add	fp, sp, #4
40009bbc:	e24dd004 	sub	sp, sp, #4
40009bc0:	e1a03000 	mov	r3, r0
40009bc4:	e54b3008 	strb	r3, [fp, #-8]
40009bc8:	e59f3058 	ldr	r3, [pc, #88]	; 40009c28 <send_byte+0x74>
40009bcc:	e59f2054 	ldr	r2, [pc, #84]	; 40009c28 <send_byte+0x74>
40009bd0:	e5922000 	ldr	r2, [r2]
40009bd4:	e3822001 	orr	r2, r2, #1
40009bd8:	e5832000 	str	r2, [r3]
40009bdc:	e3a00001 	mov	r0, #1
40009be0:	ebffffbd 	bl	40009adc <delay>
40009be4:	e59f303c 	ldr	r3, [pc, #60]	; 40009c28 <send_byte+0x74>
40009be8:	e55b2008 	ldrb	r2, [fp, #-8]
40009bec:	e5832018 	str	r2, [r3, #24]
40009bf0:	e1a00000 	nop			; (mov r0, r0)
40009bf4:	e59f302c 	ldr	r3, [pc, #44]	; 40009c28 <send_byte+0x74>
40009bf8:	e5933014 	ldr	r3, [r3, #20]
40009bfc:	e2033402 	and	r3, r3, #33554432	; 0x2000000
40009c00:	e3530000 	cmp	r3, #0
40009c04:	0afffffa 	beq	40009bf4 <send_byte+0x40>
40009c08:	e59f3018 	ldr	r3, [pc, #24]	; 40009c28 <send_byte+0x74>
40009c0c:	e59f2014 	ldr	r2, [pc, #20]	; 40009c28 <send_byte+0x74>
40009c10:	e5922000 	ldr	r2, [r2]
40009c14:	e3c22001 	bic	r2, r2, #1
40009c18:	e5832000 	str	r2, [r3]
40009c1c:	e24bd004 	sub	sp, fp, #4
40009c20:	e8bd4800 	pop	{fp, lr}
40009c24:	e12fff1e 	bx	lr
40009c28:	13940000 	orrsne	r0, r4, #0

40009c2c <recv_byte>:
40009c2c:	e92d4800 	push	{fp, lr}
40009c30:	e28db004 	add	fp, sp, #4
40009c34:	e24dd004 	sub	sp, sp, #4
40009c38:	e59f3050 	ldr	r3, [pc, #80]	; 40009c90 <recv_byte+0x64>
40009c3c:	e59f204c 	ldr	r2, [pc, #76]	; 40009c90 <recv_byte+0x64>
40009c40:	e5922000 	ldr	r2, [r2]
40009c44:	e3822002 	orr	r2, r2, #2
40009c48:	e5832000 	str	r2, [r3]
40009c4c:	e3a00001 	mov	r0, #1
40009c50:	ebffffa1 	bl	40009adc <delay>
40009c54:	e59f3034 	ldr	r3, [pc, #52]	; 40009c90 <recv_byte+0x64>
40009c58:	e593301c 	ldr	r3, [r3, #28]
40009c5c:	e54b3005 	strb	r3, [fp, #-5]
40009c60:	e3a00001 	mov	r0, #1
40009c64:	ebffff9c 	bl	40009adc <delay>
40009c68:	e59f3020 	ldr	r3, [pc, #32]	; 40009c90 <recv_byte+0x64>
40009c6c:	e59f201c 	ldr	r2, [pc, #28]	; 40009c90 <recv_byte+0x64>
40009c70:	e5922000 	ldr	r2, [r2]
40009c74:	e3c22002 	bic	r2, r2, #2
40009c78:	e5832000 	str	r2, [r3]
40009c7c:	e55b3005 	ldrb	r3, [fp, #-5]
40009c80:	e1a00003 	mov	r0, r3
40009c84:	e24bd004 	sub	sp, fp, #4
40009c88:	e8bd4800 	pop	{fp, lr}
40009c8c:	e12fff1e 	bx	lr
40009c90:	13940000 	orrsne	r0, r4, #0

40009c94 <soft_reset>:
40009c94:	e92d4800 	push	{fp, lr}
40009c98:	e28db004 	add	fp, sp, #4
40009c9c:	e59f3034 	ldr	r3, [pc, #52]	; 40009cd8 <soft_reset+0x44>
40009ca0:	e59f2030 	ldr	r2, [pc, #48]	; 40009cd8 <soft_reset+0x44>
40009ca4:	e5922000 	ldr	r2, [r2]
40009ca8:	e3822020 	orr	r2, r2, #32
40009cac:	e5832000 	str	r2, [r3]
40009cb0:	e3a00001 	mov	r0, #1
40009cb4:	ebffff88 	bl	40009adc <delay>
40009cb8:	e59f3018 	ldr	r3, [pc, #24]	; 40009cd8 <soft_reset+0x44>
40009cbc:	e59f2014 	ldr	r2, [pc, #20]	; 40009cd8 <soft_reset+0x44>
40009cc0:	e5922000 	ldr	r2, [r2]
40009cc4:	e3c22020 	bic	r2, r2, #32
40009cc8:	e5832000 	str	r2, [r3]
40009ccc:	e24bd004 	sub	sp, fp, #4
40009cd0:	e8bd4800 	pop	{fp, lr}
40009cd4:	e12fff1e 	bx	lr
40009cd8:	13940000 	orrsne	r0, r4, #0

40009cdc <reset_2515>:
40009cdc:	e92d4800 	push	{fp, lr}
40009ce0:	e28db004 	add	fp, sp, #4
40009ce4:	ebffffea 	bl	40009c94 <soft_reset>
40009ce8:	ebffff97 	bl	40009b4c <slave_enable>
40009cec:	e3a000c0 	mov	r0, #192	; 0xc0
40009cf0:	ebffffaf 	bl	40009bb4 <send_byte>
40009cf4:	ebffffa1 	bl	40009b80 <slave_disable>
40009cf8:	e24bd004 	sub	sp, fp, #4
40009cfc:	e8bd4800 	pop	{fp, lr}
40009d00:	e12fff1e 	bx	lr

40009d04 <send_req_2515>:
40009d04:	e92d4800 	push	{fp, lr}
40009d08:	e28db004 	add	fp, sp, #4
40009d0c:	ebffffe0 	bl	40009c94 <soft_reset>
40009d10:	ebffff8d 	bl	40009b4c <slave_enable>
40009d14:	e3a00081 	mov	r0, #129	; 0x81
40009d18:	ebffffa5 	bl	40009bb4 <send_byte>
40009d1c:	ebffff97 	bl	40009b80 <slave_disable>
40009d20:	e24bd004 	sub	sp, fp, #4
40009d24:	e8bd4800 	pop	{fp, lr}
40009d28:	e12fff1e 	bx	lr

40009d2c <bit_modify_2515>:
40009d2c:	e92d4800 	push	{fp, lr}
40009d30:	e28db004 	add	fp, sp, #4
40009d34:	e24dd00c 	sub	sp, sp, #12
40009d38:	e1a03002 	mov	r3, r2
40009d3c:	e1a02000 	mov	r2, r0
40009d40:	e54b2008 	strb	r2, [fp, #-8]
40009d44:	e1a02001 	mov	r2, r1
40009d48:	e54b200c 	strb	r2, [fp, #-12]
40009d4c:	e54b3010 	strb	r3, [fp, #-16]
40009d50:	ebffff7d 	bl	40009b4c <slave_enable>
40009d54:	e3a00005 	mov	r0, #5
40009d58:	ebffff95 	bl	40009bb4 <send_byte>
40009d5c:	e55b3008 	ldrb	r3, [fp, #-8]
40009d60:	e1a00003 	mov	r0, r3
40009d64:	ebffff92 	bl	40009bb4 <send_byte>
40009d68:	e55b300c 	ldrb	r3, [fp, #-12]
40009d6c:	e1a00003 	mov	r0, r3
40009d70:	ebffff8f 	bl	40009bb4 <send_byte>
40009d74:	e55b3010 	ldrb	r3, [fp, #-16]
40009d78:	e1a00003 	mov	r0, r3
40009d7c:	ebffff8c 	bl	40009bb4 <send_byte>
40009d80:	ebffff7e 	bl	40009b80 <slave_disable>
40009d84:	e24bd004 	sub	sp, fp, #4
40009d88:	e8bd4800 	pop	{fp, lr}
40009d8c:	e12fff1e 	bx	lr

40009d90 <read_byte_2515>:
40009d90:	e92d4800 	push	{fp, lr}
40009d94:	e28db004 	add	fp, sp, #4
40009d98:	e24dd008 	sub	sp, sp, #8
40009d9c:	e1a03000 	mov	r3, r0
40009da0:	e54b300c 	strb	r3, [fp, #-12]
40009da4:	ebffff68 	bl	40009b4c <slave_enable>
40009da8:	e3a00003 	mov	r0, #3
40009dac:	ebffff80 	bl	40009bb4 <send_byte>
40009db0:	e55b300c 	ldrb	r3, [fp, #-12]
40009db4:	e1a00003 	mov	r0, r3
40009db8:	ebffff7d 	bl	40009bb4 <send_byte>
40009dbc:	ebffff9a 	bl	40009c2c <recv_byte>
40009dc0:	e1a03000 	mov	r3, r0
40009dc4:	e54b3005 	strb	r3, [fp, #-5]
40009dc8:	ebffff6c 	bl	40009b80 <slave_disable>
40009dcc:	e55b3005 	ldrb	r3, [fp, #-5]
40009dd0:	e1a00003 	mov	r0, r3
40009dd4:	e24bd004 	sub	sp, fp, #4
40009dd8:	e8bd4800 	pop	{fp, lr}
40009ddc:	e12fff1e 	bx	lr

40009de0 <write_byte_2515>:
40009de0:	e92d4800 	push	{fp, lr}
40009de4:	e28db004 	add	fp, sp, #4
40009de8:	e24dd008 	sub	sp, sp, #8
40009dec:	e1a02000 	mov	r2, r0
40009df0:	e1a03001 	mov	r3, r1
40009df4:	e54b2008 	strb	r2, [fp, #-8]
40009df8:	e54b300c 	strb	r3, [fp, #-12]
40009dfc:	ebffff52 	bl	40009b4c <slave_enable>
40009e00:	e3a00002 	mov	r0, #2
40009e04:	ebffff6a 	bl	40009bb4 <send_byte>
40009e08:	e55b3008 	ldrb	r3, [fp, #-8]
40009e0c:	e1a00003 	mov	r0, r3
40009e10:	ebffff67 	bl	40009bb4 <send_byte>
40009e14:	e55b300c 	ldrb	r3, [fp, #-12]
40009e18:	e1a00003 	mov	r0, r3
40009e1c:	ebffff64 	bl	40009bb4 <send_byte>
40009e20:	ebffff56 	bl	40009b80 <slave_disable>
40009e24:	e24bd004 	sub	sp, fp, #4
40009e28:	e8bd4800 	pop	{fp, lr}
40009e2c:	e12fff1e 	bx	lr

40009e30 <Init_can>:
40009e30:	e92d4800 	push	{fp, lr}
40009e34:	e28db004 	add	fp, sp, #4
40009e38:	ebffffa7 	bl	40009cdc <reset_2515>
40009e3c:	e3a0000f 	mov	r0, #15
40009e40:	e3a01080 	mov	r1, #128	; 0x80
40009e44:	ebffffe5 	bl	40009de0 <write_byte_2515>
40009e48:	e3a0002a 	mov	r0, #42	; 0x2a
40009e4c:	e3a010d3 	mov	r1, #211	; 0xd3
40009e50:	ebffffe2 	bl	40009de0 <write_byte_2515>
40009e54:	e3a00029 	mov	r0, #41	; 0x29
40009e58:	e3a010fb 	mov	r1, #251	; 0xfb
40009e5c:	ebffffdf 	bl	40009de0 <write_byte_2515>
40009e60:	e3a00028 	mov	r0, #40	; 0x28
40009e64:	e3a01046 	mov	r1, #70	; 0x46
40009e68:	ebffffdc 	bl	40009de0 <write_byte_2515>
40009e6c:	e3a0002b 	mov	r0, #43	; 0x2b
40009e70:	e3a0101f 	mov	r1, #31
40009e74:	ebffffd9 	bl	40009de0 <write_byte_2515>
40009e78:	e3a00060 	mov	r0, #96	; 0x60
40009e7c:	e3a01060 	mov	r1, #96	; 0x60
40009e80:	ebffffd6 	bl	40009de0 <write_byte_2515>
40009e84:	e3a0000c 	mov	r0, #12
40009e88:	e3a0100f 	mov	r1, #15
40009e8c:	e3a0200f 	mov	r2, #15
40009e90:	ebffffa5 	bl	40009d2c <bit_modify_2515>
40009e94:	e3a0000f 	mov	r0, #15
40009e98:	e3a01040 	mov	r1, #64	; 0x40
40009e9c:	ebffffcf 	bl	40009de0 <write_byte_2515>
40009ea0:	e24bd004 	sub	sp, fp, #4
40009ea4:	e8bd4800 	pop	{fp, lr}
40009ea8:	e12fff1e 	bx	lr

40009eac <Can_send>:
40009eac:	e92d4800 	push	{fp, lr}
40009eb0:	e28db004 	add	fp, sp, #4
40009eb4:	e24dd008 	sub	sp, sp, #8
40009eb8:	e50b000c 	str	r0, [fp, #-12]
40009ebc:	e3a00030 	mov	r0, #48	; 0x30
40009ec0:	e3a01003 	mov	r1, #3
40009ec4:	ebffffc5 	bl	40009de0 <write_byte_2515>
40009ec8:	e3a00031 	mov	r0, #49	; 0x31
40009ecc:	e3a010ff 	mov	r1, #255	; 0xff
40009ed0:	ebffffc2 	bl	40009de0 <write_byte_2515>
40009ed4:	e3a00032 	mov	r0, #50	; 0x32
40009ed8:	e3a01000 	mov	r1, #0
40009edc:	ebffffbf 	bl	40009de0 <write_byte_2515>
40009ee0:	e3a00035 	mov	r0, #53	; 0x35
40009ee4:	e3a01008 	mov	r1, #8
40009ee8:	ebffffbc 	bl	40009de0 <write_byte_2515>
40009eec:	e3a03000 	mov	r3, #0
40009ef0:	e54b3005 	strb	r3, [fp, #-5]
40009ef4:	ea00000d 	b	40009f30 <Can_send+0x84>
40009ef8:	e55b3005 	ldrb	r3, [fp, #-5]
40009efc:	e2833036 	add	r3, r3, #54	; 0x36
40009f00:	e20330ff 	and	r3, r3, #255	; 0xff
40009f04:	e1a02003 	mov	r2, r3
40009f08:	e55b3005 	ldrb	r3, [fp, #-5]
40009f0c:	e51b100c 	ldr	r1, [fp, #-12]
40009f10:	e0813003 	add	r3, r1, r3
40009f14:	e5d33000 	ldrb	r3, [r3]
40009f18:	e1a00002 	mov	r0, r2
40009f1c:	e1a01003 	mov	r1, r3
40009f20:	ebffffae 	bl	40009de0 <write_byte_2515>
40009f24:	e55b3005 	ldrb	r3, [fp, #-5]
40009f28:	e2833001 	add	r3, r3, #1
40009f2c:	e54b3005 	strb	r3, [fp, #-5]
40009f30:	e55b3005 	ldrb	r3, [fp, #-5]
40009f34:	e3530007 	cmp	r3, #7
40009f38:	9affffee 	bls	40009ef8 <Can_send+0x4c>
40009f3c:	ebffff70 	bl	40009d04 <send_req_2515>
40009f40:	e24bd004 	sub	sp, fp, #4
40009f44:	e8bd4800 	pop	{fp, lr}
40009f48:	e12fff1e 	bx	lr

40009f4c <Can_receive>:
40009f4c:	e92d4810 	push	{r4, fp, lr}
40009f50:	e28db008 	add	fp, sp, #8
40009f54:	e24dd008 	sub	sp, sp, #8
40009f58:	e50b0010 	str	r0, [fp, #-16]
40009f5c:	e3a0002c 	mov	r0, #44	; 0x2c
40009f60:	ebffff8a 	bl	40009d90 <read_byte_2515>
40009f64:	e1a03000 	mov	r3, r0
40009f68:	e54b300a 	strb	r3, [fp, #-10]
40009f6c:	e55b300a 	ldrb	r3, [fp, #-10]
40009f70:	e59f00b8 	ldr	r0, [pc, #184]	; 4000a030 <Can_receive+0xe4>
40009f74:	e1a01003 	mov	r1, r3
40009f78:	ebfffd57 	bl	400094dc <printf>
40009f7c:	e55b300a 	ldrb	r3, [fp, #-10]
40009f80:	e2033001 	and	r3, r3, #1
40009f84:	e20330ff 	and	r3, r3, #255	; 0xff
40009f88:	e3530000 	cmp	r3, #0
40009f8c:	0a000022 	beq	4000a01c <Can_receive+0xd0>
40009f90:	e3a03000 	mov	r3, #0
40009f94:	e54b3009 	strb	r3, [fp, #-9]
40009f98:	ea00000d 	b	40009fd4 <Can_receive+0x88>
40009f9c:	e55b3009 	ldrb	r3, [fp, #-9]
40009fa0:	e51b2010 	ldr	r2, [fp, #-16]
40009fa4:	e0824003 	add	r4, r2, r3
40009fa8:	e55b3009 	ldrb	r3, [fp, #-9]
40009fac:	e2833060 	add	r3, r3, #96	; 0x60
40009fb0:	e20330ff 	and	r3, r3, #255	; 0xff
40009fb4:	e1a00003 	mov	r0, r3
40009fb8:	ebffff74 	bl	40009d90 <read_byte_2515>
40009fbc:	e1a03000 	mov	r3, r0
40009fc0:	e5c43000 	strb	r3, [r4]
40009fc4:	ebffff32 	bl	40009c94 <soft_reset>
40009fc8:	e55b3009 	ldrb	r3, [fp, #-9]
40009fcc:	e2833001 	add	r3, r3, #1
40009fd0:	e54b3009 	strb	r3, [fp, #-9]
40009fd4:	e55b3009 	ldrb	r3, [fp, #-9]
40009fd8:	e353000f 	cmp	r3, #15
40009fdc:	9affffee 	bls	40009f9c <Can_receive+0x50>
40009fe0:	e3a0002c 	mov	r0, #44	; 0x2c
40009fe4:	e3a01001 	mov	r1, #1
40009fe8:	e3a02000 	mov	r2, #0
40009fec:	ebffff4e 	bl	40009d2c <bit_modify_2515>
40009ff0:	e3a0002c 	mov	r0, #44	; 0x2c
40009ff4:	e3a01000 	mov	r1, #0
40009ff8:	ebffff78 	bl	40009de0 <write_byte_2515>
40009ffc:	e51b3010 	ldr	r3, [fp, #-16]
4000a000:	e2833001 	add	r3, r3, #1
4000a004:	e5d33000 	ldrb	r3, [r3]
4000a008:	e2033008 	and	r3, r3, #8
4000a00c:	e3530000 	cmp	r3, #0
4000a010:	1a000001 	bne	4000a01c <Can_receive+0xd0>
4000a014:	e3a03001 	mov	r3, #1
4000a018:	ea000000 	b	4000a020 <Can_receive+0xd4>
4000a01c:	e3a03000 	mov	r3, #0
4000a020:	e1a00003 	mov	r0, r3
4000a024:	e24bd008 	sub	sp, fp, #8
4000a028:	e8bd4810 	pop	{r4, fp, lr}
4000a02c:	e12fff1e 	bx	lr
4000a030:	4000a0f0 	strdmi	sl, [r0], -r0

Disassembly of section .rodata:

4000a034 <.rodata>:
4000a034:	33323130 	teqcc	r2, #12
4000a038:	37363534 			; <UNDEFINED> instruction: 0x37363534
4000a03c:	62613938 	rsbvs	r3, r1, #917504	; 0xe0000
4000a040:	66656463 	strbtvs	r6, [r5], -r3, ror #8
4000a044:	6a696867 	bvs	41a641e8 <dst+0x1a597e4>
4000a048:	6e6d6c6b 	cdpvs	12, 6, cr6, cr13, cr11, {3}
4000a04c:	7271706f 	rsbsvc	r7, r1, #111	; 0x6f
4000a050:	76757473 			; <UNDEFINED> instruction: 0x76757473
4000a054:	7a797877 	bvc	41e68238 <dst+0x1e5d834>
4000a058:	00000000 	andeq	r0, r0, r0
4000a05c:	33323130 	teqcc	r2, #12
4000a060:	37363534 			; <UNDEFINED> instruction: 0x37363534
4000a064:	42413938 	submi	r3, r1, #917504	; 0xe0000
4000a068:	46454443 	strbmi	r4, [r5], -r3, asr #8
4000a06c:	4a494847 	bmi	4125c190 <dst+0x125178c>
4000a070:	4e4d4c4b 	cdpmi	12, 4, cr4, cr13, cr11, {2}
4000a074:	5251504f 	subspl	r5, r1, #79	; 0x4f
4000a078:	56555453 			; <UNDEFINED> instruction: 0x56555453
4000a07c:	5a595857 	bpl	416601e0 <dst+0x16557dc>
4000a080:	00000000 	andeq	r0, r0, r0
4000a084:	4c554e3c 	mrrcmi	14, 3, r4, r5, cr12
4000a088:	00003e4c 	andeq	r3, r0, ip, asr #28
4000a08c:	2a2a2a0a 	bcs	40a948bc <dst+0xa89eb8>
4000a090:	2a2a2a2a 	bcs	40a94940 <dst+0xa89f3c>
4000a094:	2a2a2a2a 	bcs	40a94944 <dst+0xa89f40>
4000a098:	5053202a 	subspl	r2, r3, sl, lsr #32
4000a09c:	41432049 	cmpmi	r3, r9, asr #32
4000a0a0:	6574204e 	ldrbvs	r2, [r4, #-78]!	; 0x4e
4000a0a4:	21217473 	teqcs	r1, r3, ror r4
4000a0a8:	2a2a2a20 	bcs	40a94930 <dst+0xa89f2c>
4000a0ac:	2a2a2a2a 	bcs	40a9495c <dst+0xa89f58>
4000a0b0:	2a2a2a2a 	bcs	40a94960 <dst+0xa89f5c>
4000a0b4:	00000a2a 	andeq	r0, r0, sl, lsr #20
4000a0b8:	656c700a 	strbvs	r7, [ip, #-10]!
4000a0bc:	20657361 	rsbcs	r7, r5, r1, ror #6
4000a0c0:	75706e69 	ldrbvc	r6, [r0, #-3689]!	; 0xe69
4000a0c4:	20382074 	eorscs	r2, r8, r4, ror r0
4000a0c8:	65747962 	ldrbvs	r7, [r4, #-2402]!	; 0x962
4000a0cc:	00000a73 	andeq	r0, r0, r3, ror sl
4000a0d0:	0000000a 	andeq	r0, r0, sl
4000a0d4:	3d746572 	cfldr64cc	mvdx6, [r4, #-456]!	; 0xfffffe38
4000a0d8:	000a7825 	andeq	r7, sl, r5, lsr #16
4000a0dc:	3d637273 	sfmcc	f7, 2, [r3, #-460]!	; 0xfffffe34
4000a0e0:	00000000 	andeq	r0, r0, r0
4000a0e4:	00782520 	rsbseq	r2, r8, r0, lsr #10
4000a0e8:	3d747364 	ldclcc	3, cr7, [r4, #-400]!	; 0xfffffe70
4000a0ec:	00000000 	andeq	r0, r0, r0
4000a0f0:	67616c66 	strbvs	r6, [r1, -r6, ror #24]!
4000a0f4:	0a78253d 	beq	41e135f0 <dst+0x1e08bec>
4000a0f8:	00000000 	andeq	r0, r0, r0

Disassembly of section .data:

4000a0fc <stack>:
	...

4000a8fc <_ctype>:
4000a8fc:	08080808 	stmdaeq	r8, {r3, fp}
4000a900:	08080808 	stmdaeq	r8, {r3, fp}
4000a904:	28282808 	stmdacs	r8!, {r3, fp, sp}
4000a908:	08082828 	stmdaeq	r8, {r3, r5, fp, sp}
4000a90c:	08080808 	stmdaeq	r8, {r3, fp}
4000a910:	08080808 	stmdaeq	r8, {r3, fp}
4000a914:	08080808 	stmdaeq	r8, {r3, fp}
4000a918:	08080808 	stmdaeq	r8, {r3, fp}
4000a91c:	101010a0 	andsne	r1, r0, r0, lsr #1
4000a920:	10101010 	andsne	r1, r0, r0, lsl r0
4000a924:	10101010 	andsne	r1, r0, r0, lsl r0
4000a928:	10101010 	andsne	r1, r0, r0, lsl r0
4000a92c:	04040404 	streq	r0, [r4], #-1028	; 0x404
4000a930:	04040404 	streq	r0, [r4], #-1028	; 0x404
4000a934:	10100404 	andsne	r0, r0, r4, lsl #8
4000a938:	10101010 	andsne	r1, r0, r0, lsl r0
4000a93c:	41414110 	cmpmi	r1, r0, lsl r1
4000a940:	01414141 	cmpeq	r1, r1, asr #2
4000a944:	01010101 	tsteq	r1, r1, lsl #2
4000a948:	01010101 	tsteq	r1, r1, lsl #2
4000a94c:	01010101 	tsteq	r1, r1, lsl #2
4000a950:	01010101 	tsteq	r1, r1, lsl #2
4000a954:	10010101 	andne	r0, r1, r1, lsl #2
4000a958:	10101010 	andsne	r1, r0, r0, lsl r0
4000a95c:	42424210 	submi	r4, r2, #1
4000a960:	02424242 	subeq	r4, r2, #536870916	; 0x20000004
4000a964:	02020202 	andeq	r0, r2, #536870912	; 0x20000000
4000a968:	02020202 	andeq	r0, r2, #536870912	; 0x20000000
4000a96c:	02020202 	andeq	r0, r2, #536870912	; 0x20000000
4000a970:	02020202 	andeq	r0, r2, #536870912	; 0x20000000
4000a974:	10020202 	andne	r0, r2, r2, lsl #4
4000a978:	08101010 	ldmdaeq	r0, {r4, ip}
	...
4000a99c:	101010a0 	andsne	r1, r0, r0, lsr #1
4000a9a0:	10101010 	andsne	r1, r0, r0, lsl r0
4000a9a4:	10101010 	andsne	r1, r0, r0, lsl r0
4000a9a8:	10101010 	andsne	r1, r0, r0, lsl r0
4000a9ac:	10101010 	andsne	r1, r0, r0, lsl r0
4000a9b0:	10101010 	andsne	r1, r0, r0, lsl r0
4000a9b4:	10101010 	andsne	r1, r0, r0, lsl r0
4000a9b8:	10101010 	andsne	r1, r0, r0, lsl r0
4000a9bc:	01010101 	tsteq	r1, r1, lsl #2
4000a9c0:	01010101 	tsteq	r1, r1, lsl #2
4000a9c4:	01010101 	tsteq	r1, r1, lsl #2
4000a9c8:	01010101 	tsteq	r1, r1, lsl #2
4000a9cc:	01010101 	tsteq	r1, r1, lsl #2
4000a9d0:	10010101 	andne	r0, r1, r1, lsl #2
4000a9d4:	01010101 	tsteq	r1, r1, lsl #2
4000a9d8:	02010101 	andeq	r0, r1, #1073741824	; 0x40000000
4000a9dc:	02020202 	andeq	r0, r2, #536870912	; 0x20000000
4000a9e0:	02020202 	andeq	r0, r2, #536870912	; 0x20000000
4000a9e4:	02020202 	andeq	r0, r2, #536870912	; 0x20000000
4000a9e8:	02020202 	andeq	r0, r2, #536870912	; 0x20000000
4000a9ec:	02020202 	andeq	r0, r2, #536870912	; 0x20000000
4000a9f0:	10020202 	andne	r0, r2, r2, lsl #4
4000a9f4:	02020202 	andeq	r0, r2, #536870912	; 0x20000000
4000a9f8:	02020202 	andeq	r0, r2, #536870912	; 0x20000000

4000a9fc <src>:
4000a9fc:	34333231 	ldrtcc	r3, [r3], #-561	; 0x231
4000aa00:	00373635 	eorseq	r3, r7, r5, lsr r6

Disassembly of section .bss:

4000aa04 <dst>:
	...

Disassembly of section .ARM.attributes:

00000000 <.ARM.attributes>:
   0:	00000f41 	andeq	r0, r0, r1, asr #30
   4:	61656100 	cmnvs	r5, r0, lsl #2
   8:	01006962 	tsteq	r0, r2, ror #18
   c:	00000005 	andeq	r0, r0, r5

Disassembly of section .comment:

00000000 <.comment>:
   0:	3a434347 	bcc	10d0d24 <_start-0x3ef372dc>
   4:	4e472820 	cdpmi	8, 4, cr2, cr7, cr0, {1}
   8:	34202955 	strtcc	r2, [r0], #-2389	; 0x955
   c:	322e362e 	eorcc	r3, lr, #48234496	; 0x2e00000
	...

Disassembly of section .debug_line:

00000000 <.debug_line>:
   0:	000000a1 	andeq	r0, r0, r1, lsr #1
   4:	002c0002 	eoreq	r0, ip, r2
   8:	01020000 	mrseq	r0, (UNDEF: 2)
   c:	000d0efb 	strdeq	r0, [sp], -fp
  10:	01010101 	tsteq	r1, r1, lsl #2
  14:	01000000 	mrseq	r0, (UNDEF: 0)
  18:	73010000 	movwvc	r0, #4096	; 0x1000
  1c:	74726174 	ldrbtvc	r6, [r2], #-372	; 0x174
  20:	6f6c0000 	svcvs	0x006c0000
  24:	76656c77 			; <UNDEFINED> instruction: 0x76656c77
  28:	695f6c65 	ldmdbvs	pc, {r0, r2, r5, r6, sl, fp, sp, lr}^	; <UNPREDICTABLE>
  2c:	2e74696e 	cdpcs	9, 7, cr6, cr4, cr14, {3}
  30:	00010053 	andeq	r0, r1, r3, asr r0
  34:	05000000 	streq	r0, [r0]
  38:	00814002 	addeq	r4, r1, r2
  3c:	01100340 	tsteq	r0, r0, asr #6
  40:	312f2f2f 	teqcc	pc, pc, lsr #30
  44:	032f2f2f 	teqeq	pc, #188	; 0xbc
  48:	30312e0a 	eorscc	r2, r1, sl, lsl #28
  4c:	2f302f2f 	svccs	0x00302f2f
  50:	2f2f302f 	svccs	0x002f302f
  54:	312f2f2f 	teqcc	pc, pc, lsr #30
  58:	2f302f2f 	svccs	0x00302f2f
  5c:	2f2f302f 	svccs	0x002f302f
  60:	302f2f30 	eorcc	r2, pc, r0, lsr pc	; <UNPREDICTABLE>
  64:	2f312f2f 	svccs	0x00312f2f
  68:	2f2f302f 	svccs	0x002f302f
  6c:	312f2f30 	teqcc	pc, r0, lsr pc	; <UNPREDICTABLE>
  70:	2f302f2f 	svccs	0x00302f2f
  74:	2f2f302f 	svccs	0x002f302f
  78:	302f2f31 	eorcc	r2, pc, r1, lsr pc	; <UNPREDICTABLE>
  7c:	2f302f2f 	svccs	0x00302f2f
  80:	2f2f302f 	svccs	0x002f302f
  84:	2f2f2f30 	svccs	0x002f2f30
  88:	2f312f2f 	svccs	0x00312f2f
  8c:	2f2f2f2f 	svccs	0x002f2f2f
  90:	2f2f2f31 	svccs	0x002f2f31
  94:	2f312f2f 	svccs	0x00312f2f
  98:	2f2f2f2f 	svccs	0x002f2f2f
  9c:	2e23032f 	cdpcs	3, 2, cr0, cr3, cr15, {1}
  a0:	01004802 	tsteq	r0, r2, lsl #16
  a4:	00007901 	andeq	r7, r0, r1, lsl #18
  a8:	24000200 	strcs	r0, [r0], #-512	; 0x200
  ac:	02000000 	andeq	r0, r0, #0
  b0:	0d0efb01 	vstreq	d15, [lr, #-4]
  b4:	01010100 	mrseq	r0, (UNDEF: 17)
  b8:	00000001 	andeq	r0, r0, r1
  bc:	01000001 	tsteq	r0, r1
  c0:	72617473 	rsbvc	r7, r1, #1929379840	; 0x73000000
  c4:	73000074 	movwvc	r0, #116	; 0x74
  c8:	74726174 	ldrbtvc	r6, [r2], #-372	; 0x174
  cc:	0100532e 	tsteq	r0, lr, lsr #6
  d0:	00000000 	andeq	r0, r0, r0
  d4:	80000205 	andhi	r0, r0, r5, lsl #4
  d8:	2f154000 	svccs	0x00154000
  dc:	2f2f2f2f 	svccs	0x002f2f2f
  e0:	0d032f2f 	stceq	15, cr2, [r3, #-188]	; 0xffffff44
  e4:	2f302ff2 	svccs	0x00302ff2
  e8:	2f302f2f 	svccs	0x00302f2f
  ec:	322f2f34 	eorcc	r2, pc, #208	; 0xd0
  f0:	2f2f332f 	svccs	0x002f332f
  f4:	2f2f2f2f 	svccs	0x002f2f2f
  f8:	2f2f2f32 	svccs	0x002f2f32
  fc:	2f2f302f 	svccs	0x002f302f
 100:	2f2f302f 	svccs	0x002f302f
 104:	2f31342f 	svccs	0x0031342f
 108:	302f2f30 	eorcc	r2, pc, r0, lsr pc	; <UNPREDICTABLE>
 10c:	2f302f2f 	svccs	0x00302f2f
 110:	2f2f302f 	svccs	0x002f302f
 114:	03302f30 	teqeq	r0, #192	; 0xc0
 118:	2f2f660a 	svccs	0x002f660a
 11c:	000c022f 	andeq	r0, ip, pc, lsr #4
 120:	02530101 	subseq	r0, r3, #1073741824	; 0x40000000
 124:	00020000 	andeq	r0, r2, r0
 128:	00000052 	andeq	r0, r0, r2, asr r0
 12c:	0efb0102 	cdpeq	1, 15, cr0, cr11, cr2, {0}
 130:	0101000d 	tsteq	r1, sp
 134:	00000101 	andeq	r0, r0, r1, lsl #2
 138:	00000100 	andeq	r0, r0, r0, lsl #2
 13c:	632f2e01 	teqvs	pc, #16
 140:	6f6d6d6f 	svcvs	0x006d6d6f
 144:	6e692f6e 	cdpvs	15, 6, cr2, cr9, cr14, {3}
 148:	64756c63 	ldrbtvs	r6, [r5], #-3171	; 0xc63
 14c:	6f630065 	svcvs	0x00630065
 150:	6e6f6d6d 	cdpvs	13, 6, cr6, cr15, cr13, {3}
 154:	6372732f 	cmnvs	r2, #-1140850688	; 0xbc000000
 158:	74630000 	strbtvc	r0, [r3]
 15c:	2e657079 	mcrcs	0, 3, r7, cr5, cr9, {3}
 160:	00010068 	andeq	r0, r1, r8, rrx
 164:	69727000 	ldmdbvs	r2!, {ip, sp, lr}^
 168:	2e66746e 	cdpcs	4, 6, cr7, cr6, cr14, {3}
 16c:	00020063 	andeq	r0, r2, r3, rrx
 170:	64747300 	ldrbtvs	r7, [r4], #-768	; 0x300
 174:	2e677261 	cdpcs	2, 6, cr7, cr7, cr1, {3}
 178:	00010068 	andeq	r0, r1, r8, rrx
 17c:	05000000 	streq	r0, [r0]
 180:	00834002 	addeq	r4, r3, r2
 184:	00c40340 	sbceq	r0, r4, r0, asr #6
 188:	67bb9f01 	ldrvs	r9, [fp, r1, lsl #30]!
 18c:	0302042f 	movweq	r0, #9263	; 0x242f
 190:	bb9e7fbf 	bllt	fe7a0094 <dst+0xbe795690>
 194:	0067834c 	rsbeq	r8, r7, ip, asr #6
 198:	06010402 	streq	r0, [r1], -r2, lsl #8
 19c:	4bf30682 	blmi	ffcc1bac <dst+0xbfcb71a8>
 1a0:	674d6768 	strbvs	r6, [sp, -r8, ror #14]
 1a4:	7fbb304c 	svcvc	0x00bb304c
 1a8:	01040200 	mrseq	r0, R12_usr
 1ac:	02002e06 	andeq	r2, r0, #96	; 0x60
 1b0:	00d60204 	sbcseq	r0, r6, r4, lsl #4
 1b4:	d6010402 	strle	r0, [r1], -r2, lsl #8
 1b8:	02040200 	andeq	r0, r4, #0
 1bc:	00d70682 	sbcseq	r0, r7, r2, lsl #13
 1c0:	06030402 	streq	r0, [r3], -r2, lsl #8
 1c4:	040200d6 	streq	r0, [r2], #-214	; 0xd6
 1c8:	a3650605 	cmnge	r5, #5242880	; 0x500000
 1cc:	a12f6767 	teqge	pc, r7, ror #14
 1d0:	210883bb 			; <UNDEFINED> instruction: 0x210883bb
 1d4:	8224039f 	eorhi	r0, r4, #2080374786	; 0x7c000002
 1d8:	002f4c83 	eoreq	r4, pc, r3, lsl #25
 1dc:	08010402 	stmdaeq	r1, {r1, sl}
 1e0:	040200c7 	streq	r0, [r2], #-199	; 0xc7
 1e4:	069e0602 	ldreq	r0, [lr], r2, lsl #12
 1e8:	20032fa0 	andcs	r2, r3, r0, lsr #31
 1ec:	834dd882 	movthi	sp, #55426	; 0xd882
 1f0:	0067834b 	rsbeq	r8, r7, fp, asr #6
 1f4:	06010402 	streq	r0, [r1], -r2, lsl #8
 1f8:	4b670666 	blmi	19c1b98 <_start-0x3e646468>
 1fc:	01040200 	mrseq	r0, R12_usr
 200:	02009e06 	andeq	r9, r0, #96	; 0x60
 204:	004a0204 	subeq	r0, sl, r4, lsl #4
 208:	2e030402 	cdpcs	4, 0, cr0, cr3, cr2, {0}
 20c:	03040200 	movweq	r0, #16896	; 0x4200
 210:	02002f06 	andeq	r2, r0, #24
 214:	834b0304 	movthi	r0, #45828	; 0xb304
 218:	83674b67 	cmnhi	r7, #105472	; 0x19c00
 21c:	83834b83 	orrhi	r4, r3, #134144	; 0x20c00
 220:	6783694b 	strvs	r6, [r3, fp, asr #18]
 224:	4b686783 	blmi	1a1a038 <_start-0x3e5edfc8>
 228:	835a0867 	cmphi	sl, #6750208	; 0x670000
 22c:	01040200 	mrseq	r0, R12_usr
 230:	69103202 	ldmdbvs	r0, {r1, r9, ip, sp}
 234:	2f83834b 	svccs	0x0083834b
 238:	01040200 	mrseq	r0, R12_usr
 23c:	673e08b9 			; <UNDEFINED> instruction: 0x673e08b9
 240:	d76783bb 			; <UNDEFINED> instruction: 0xd76783bb
 244:	83d9bb67 	bicshi	fp, r9, #105472	; 0x19c00
 248:	0402002f 	streq	r0, [r2], #-47	; 0x2f
 24c:	3e08b901 	cdpcc	9, 0, cr11, cr8, cr1, {0}
 250:	0200d52f 	andeq	sp, r0, #197132288	; 0xbc00000
 254:	2e060104 	adfcss	f0, f6, f4
 258:	2f5a0806 	svccs	0x005a0806
 25c:	01040200 	mrseq	r0, R12_usr
 260:	3e085708 	cdpcc	7, 0, cr5, cr8, cr8, {0}
 264:	0402002f 	streq	r0, [r2], #-47	; 0x2f
 268:	3e08b901 	cdpcc	9, 0, cr11, cr8, cr1, {0}
 26c:	00a1bf2f 	adceq	fp, r1, pc, lsr #30
 270:	06010402 	streq	r0, [r1], -r2, lsl #8
 274:	04020066 	streq	r0, [r2], #-102	; 0x66
 278:	06900802 	ldreq	r0, [r0], r2, lsl #16
 27c:	03846784 	orreq	r6, r4, #34603008	; 0x2100000
 280:	8367ba12 	cmnhi	r7, #73728	; 0x12000
 284:	674c32d7 			; <UNDEFINED> instruction: 0x674c32d7
 288:	83132e02 	tsthi	r3, #32
 28c:	86838383 	strhi	r8, [r3], r3, lsl #7
 290:	0402004b 	streq	r0, [r2], #-75	; 0x4b
 294:	06820601 	streq	r0, [r2], r1, lsl #12
 298:	68839f83 	stmvs	r3, {r0, r1, r7, r8, r9, sl, fp, ip, pc}
 29c:	6b67679f 	blvs	19da120 <_start-0x3e62dee0>
 2a0:	0067834b 	rsbeq	r8, r7, fp, asr #6
 2a4:	06010402 	streq	r0, [r1], -r2, lsl #8
 2a8:	9f830682 	svcls	0x00830682
 2ac:	67a06883 	strvs	r6, [r0, r3, lsl #17]!
 2b0:	02004b4e 	andeq	r4, r0, #79872	; 0x13800
 2b4:	82060104 	andhi	r0, r6, #1
 2b8:	01040200 	mrseq	r0, R12_usr
 2bc:	0200f306 	andeq	pc, r0, #402653184	; 0x18000000
 2c0:	4b490104 	blmi	12406d8 <_start-0x3edc7928>
 2c4:	01040200 	mrseq	r0, R12_usr
 2c8:	02008206 	andeq	r8, r0, #1610612736	; 0x60000000
 2cc:	83060104 	movwhi	r0, #24836	; 0x6104
 2d0:	01040200 	mrseq	r0, R12_usr
 2d4:	00674c49 	rsbeq	r4, r7, r9, asr #24
 2d8:	06010402 	streq	r0, [r1], -r2, lsl #8
 2dc:	4b9f0666 	blmi	fe7c1c7c <dst+0xbe7b7278>
 2e0:	024c6a68 	subeq	r6, ip, #425984	; 0x68000
 2e4:	831401b4 	tsthi	r4, #45	; 0x2d
 2e8:	0402002f 	streq	r0, [r2], #-47	; 0x2f
 2ec:	08bcb901 	ldmeq	ip!, {r0, r8, fp, ip, sp, pc}
 2f0:	02002f3d 	andeq	r2, r0, #244	; 0xf4
 2f4:	bcb90104 	ldflts	f0, [r9], #16
 2f8:	4c679f31 	stclmi	15, cr9, [r7], #-196	; 0xffffff3c
 2fc:	002f83bc 			; <UNDEFINED> instruction: 0x002f83bc
 300:	b9010402 	stmdblt	r1, {r1, sl}
 304:	02005a08 	andeq	r5, r0, #32768	; 0x8000
 308:	00670204 	rsbeq	r0, r7, r4, lsl #4
 30c:	08020402 	stmdaeq	r2, {r1, sl}
 310:	0402003b 	streq	r0, [r2], #-59	; 0x3b
 314:	06660601 	strbteq	r0, [r6], -r1, lsl #12
 318:	02002f84 	andeq	r2, r0, #528	; 0x210
 31c:	08b90104 	ldmeq	r9!, {r2, r8}
 320:	4b67315a 	blmi	19cc890 <_start-0x3e63b770>
 324:	3f088169 	svccc	0x00088169
 328:	a39f6732 	orrsge	r6, pc, #13107200	; 0xc80000
 32c:	31a09f2b 	lsrcc	r9, fp, #30
 330:	314b32bb 	strhcc	r3, [fp, #-43]	; 0xffffffd5
 334:	68324b68 	ldmdavs	r2!, {r3, r5, r6, r8, r9, fp, lr}
 338:	d983bb31 	stmible	r3, {r0, r4, r5, r8, r9, fp, ip, sp, pc}
 33c:	7803672d 	stmdavc	r3, {r0, r2, r3, r5, r8, r9, sl, sp, lr}
 340:	2e0f032e 	cdpcs	3, 0, cr0, cr15, cr14, {1}
 344:	0200bb67 	andeq	fp, r0, #105472	; 0x19c00
 348:	66060104 	strvs	r0, [r6], -r4, lsl #2
 34c:	67bb6706 	ldrvs	r6, [fp, r6, lsl #14]!
 350:	83d767bb 	bicshi	r6, r7, #49020928	; 0x2ec0000
 354:	9fbc83d7 	svcls	0x00bc83d7
 358:	087ee203 	ldmdaeq	lr!, {r0, r1, r9, sp, lr, pc}^
 35c:	04020074 	streq	r0, [r2], #-116	; 0x74
 360:	06660601 	strbteq	r0, [r6], -r1, lsl #12
 364:	8201a003 	andhi	sl, r1, #3
 368:	a2a16767 	adcge	r6, r1, #27000832	; 0x19c0000
 36c:	a12fbc67 	teqge	pc, r7, ror #24
 370:	67f46b86 	ldrbvs	r6, [r4, r6, lsl #23]!
 374:	01000802 	tsteq	r0, r2, lsl #16
 378:	00008501 	andeq	r8, r0, r1, lsl #10
 37c:	4a000200 	bmi	b84 <_start-0x4000747c>
 380:	02000000 	andeq	r0, r0, #0
 384:	0d0efb01 	vstreq	d15, [lr, #-4]
 388:	01010100 	mrseq	r0, (UNDEF: 17)
 38c:	00000001 	andeq	r0, r0, r1
 390:	01000001 	tsteq	r0, r1
 394:	6d6d6f63 	stclvs	15, cr6, [sp, #-396]!	; 0xfffffe74
 398:	732f6e6f 	teqvc	pc, #1776	; 0x6f0
 39c:	2e006372 	mcrcs	3, 0, r6, cr0, cr2, {3}
 3a0:	6d6f632f 	stclvs	3, cr6, [pc, #-188]!	; 2ec <_start-0x40007d14>
 3a4:	2f6e6f6d 	svccs	0x006e6f6d
 3a8:	6c636e69 	stclvs	14, cr6, [r3], #-420	; 0xfffffe5c
 3ac:	00656475 	rsbeq	r6, r5, r5, ror r4
 3b0:	72617500 	rsbvc	r7, r1, #0
 3b4:	00632e74 	rsbeq	r2, r3, r4, ror lr
 3b8:	65000001 	strvs	r0, [r0, #-1]
 3bc:	6f6e7978 	svcvs	0x006e7978
 3c0:	34345f73 	ldrtcc	r5, [r4], #-3955	; 0xf73
 3c4:	682e3231 	stmdavs	lr!, {r0, r4, r5, r9, ip, sp}
 3c8:	00000200 	andeq	r0, r0, r0, lsl #4
 3cc:	02050000 	andeq	r0, r5, #0
 3d0:	40009534 	andmi	r9, r0, r4, lsr r5
 3d4:	67bc4d15 			; <UNDEFINED> instruction: 0x67bc4d15
 3d8:	a1676768 	cmnge	r7, r8, ror #14
 3dc:	0402009f 	streq	r0, [r2], #-159	; 0x9f
 3e0:	062e0601 	strteq	r0, [lr], -r1, lsl #12
 3e4:	4b67679f 	blmi	19da268 <_start-0x3e62dd98>
 3e8:	002f8384 	eoreq	r8, pc, r4, lsl #7
 3ec:	d5010402 	strle	r0, [r1, #-1026]	; 0x402
 3f0:	00686984 	rsbeq	r6, r8, r4, lsl #19
 3f4:	06010402 	streq	r0, [r1], -r2, lsl #8
 3f8:	679f062e 	ldrvs	r0, [pc, lr, lsr #12]
 3fc:	000a022f 	andeq	r0, sl, pc, lsr #4
 400:	00650101 	rsbeq	r0, r5, r1, lsl #2
 404:	00020000 	andeq	r0, r2, r0
 408:	0000002c 	andeq	r0, r0, ip, lsr #32
 40c:	0efb0102 	cdpeq	1, 15, cr0, cr11, cr2, {0}
 410:	0101000d 	tsteq	r1, sp
 414:	00000101 	andeq	r0, r0, r1, lsl #2
 418:	00000100 	andeq	r0, r0, r0, lsl #2
 41c:	6d6f6301 	stclvs	3, cr6, [pc, #-4]!	; 420 <_start-0x40007be0>
 420:	2f6e6f6d 	svccs	0x006e6f6d
 424:	00637273 	rsbeq	r7, r3, r3, ror r2
 428:	64755f00 	ldrbtvs	r5, [r5], #-3840	; 0xf00
 42c:	69737669 	ldmdbvs	r3!, {r0, r3, r5, r6, r9, sl, ip, sp, lr}^
 430:	00532e33 	subseq	r2, r3, r3, lsr lr
 434:	00000001 	andeq	r0, r0, r1
 438:	88020500 	stmdahi	r2, {r8, sl}
 43c:	03400096 	movteq	r0, #150	; 0x96
 440:	2f2f0111 	svccs	0x002f0111
 444:	342f2f2f 	strtcc	r2, [pc], #-3887	; 44c <_start-0x40007bb4>
 448:	2f2f2f2f 	svccs	0x002f2f2f
 44c:	2f2f2f32 	svccs	0x002f2f32
 450:	2f2f342f 	svccs	0x002f342f
 454:	2f2f2f2f 	svccs	0x002f2f2f
 458:	2f2f2f2f 	svccs	0x002f2f2f
 45c:	2f2f2f2f 	svccs	0x002f2f2f
 460:	302f302f 	eorcc	r3, pc, pc, lsr #32
 464:	02022f30 	andeq	r2, r2, #192	; 0xc0
 468:	6c010100 	stfvss	f0, [r1], {0}
 46c:	02000000 	andeq	r0, r0, #0
 470:	00002c00 	andeq	r2, r0, r0, lsl #24
 474:	fb010200 	blx	40c7e <_start-0x3ffc7382>
 478:	01000d0e 	tsteq	r0, lr, lsl #26
 47c:	00010101 	andeq	r0, r1, r1, lsl #2
 480:	00010000 	andeq	r0, r1, r0
 484:	6f630100 	svcvs	0x00630100
 488:	6e6f6d6d 	cdpvs	13, 6, cr6, cr15, cr13, {3}
 48c:	6372732f 	cmnvs	r2, #-1140850688	; 0xbc000000
 490:	755f0000 	ldrbvc	r0, [pc, #0]	; 498 <_start-0x40007b68>
 494:	73646f6d 	cmnvc	r4, #436	; 0x1b4
 498:	532e3369 	teqpl	lr, #-1543503871	; 0xa4000001
 49c:	00000100 	andeq	r0, r0, r0, lsl #2
 4a0:	02050000 	andeq	r0, r5, #0
 4a4:	4000971c 	andmi	r9, r0, ip, lsl r7
 4a8:	2f011203 	svccs	0x00011203
 4ac:	342f2f2f 	strtcc	r2, [pc], #-3887	; 4b4 <_start-0x40007b4c>
 4b0:	2f2f2f2f 	svccs	0x002f2f2f
 4b4:	2f2f2f32 	svccs	0x002f2f32
 4b8:	2f2f332f 	svccs	0x002f332f
 4bc:	2f2f2f2f 	svccs	0x002f2f2f
 4c0:	2f2f2f2f 	svccs	0x002f2f2f
 4c4:	2f2f2f2f 	svccs	0x002f2f2f
 4c8:	2f352f2f 	svccs	0x00352f2f
 4cc:	2f2f2f2f 	svccs	0x002f2f2f
 4d0:	302f2f2f 	eorcc	r2, pc, pc, lsr #30
 4d4:	02022f30 	andeq	r2, r2, #192	; 0xc0
 4d8:	ca010100 	bgt	408e0 <_start-0x3ffc7720>
 4dc:	02000000 	andeq	r0, r0, #0
 4e0:	00004300 	andeq	r4, r0, r0, lsl #6
 4e4:	fb010200 	blx	40cee <_start-0x3ffc7312>
 4e8:	01000d0e 	tsteq	r0, lr, lsl #26
 4ec:	00010101 	andeq	r0, r1, r1, lsl #2
 4f0:	00010000 	andeq	r0, r1, r0
 4f4:	73750100 	cmnvc	r5, #0
 4f8:	2f2e0072 	svccs	0x002e0072
 4fc:	6d6d6f63 	stclvs	15, cr6, [sp, #-396]!	; 0xfffffe74
 500:	692f6e6f 	stmdbvs	pc!, {r0, r1, r2, r3, r5, r6, r9, sl, fp, sp, lr}	; <UNPREDICTABLE>
 504:	756c636e 	strbvc	r6, [ip, #-878]!	; 0x36e
 508:	00006564 	andeq	r6, r0, r4, ror #10
 50c:	6e69616d 	powvsez	f6, f1, #5.0
 510:	0100632e 	tsteq	r0, lr, lsr #6
 514:	78650000 	stmdavc	r5!, {}^	; <UNPREDICTABLE>
 518:	736f6e79 	cmnvc	pc, #1936	; 0x790
 51c:	3134345f 	teqcc	r4, pc, asr r4
 520:	00682e32 	rsbeq	r2, r8, r2, lsr lr
 524:	00000002 	andeq	r0, r0, r2
 528:	cc020500 	cfstr32gt	mvfx0, [r2], {0}
 52c:	03400097 	movteq	r0, #151	; 0x97
 530:	6e4c0112 	mcrvs	1, 2, r0, cr12, cr2, {0}
 534:	00673084 	rsbeq	r3, r7, r4, lsl #1
 538:	06020402 	streq	r0, [r2], -r2, lsl #8
 53c:	04020066 	streq	r0, [r2], #-102	; 0x66
 540:	81066601 	tsthi	r6, r1, lsl #12
 544:	01040200 	mrseq	r0, R12_usr
 548:	02006606 	andeq	r6, r0, #6291456	; 0x600000
 54c:	64060104 	strvs	r0, [r6], #-260	; 0x104
 550:	0a034108 	beq	d0978 <_start-0x3ff37688>
 554:	34676782 	strbtcc	r6, [r7], #-1922	; 0x782
 558:	68bbf54c 	ldmvs	fp!, {r2, r3, r6, r8, sl, ip, sp, lr, pc}
 55c:	9fbb9f2f 	svcls	0x00bb9f2f
 560:	9f4f304b 	svcls	0x004f304b
 564:	02004c4c 	andeq	r4, r0, #19456	; 0x4c00
 568:	00680204 	rsbeq	r0, r8, r4, lsl #4
 56c:	bb020402 	bllt	8157c <_start-0x3ff86a84>
 570:	02040200 	andeq	r0, r4, #0
 574:	0402009b 	streq	r0, [r2], #-155	; 0x9b
 578:	06660601 	strbteq	r0, [r6], -r1, lsl #12
 57c:	4b4b4c6b 	blmi	12d3730 <_start-0x3ed348d0>
 580:	004b8383 	subeq	r8, fp, r3, lsl #7
 584:	06020402 	streq	r0, [r2], -r2, lsl #8
 588:	04020066 	streq	r0, [r2], #-102	; 0x66
 58c:	06200801 	strteq	r0, [r0], -r1, lsl #16
 590:	004b4c68 	subeq	r4, fp, r8, ror #24
 594:	06020402 	streq	r0, [r2], -r2, lsl #8
 598:	04020066 	streq	r0, [r2], #-102	; 0x66
 59c:	063c0801 	ldrteq	r0, [ip], -r1, lsl #16
 5a0:	4b9f4d67 	blmi	fe7d3b44 <dst+0xbe7c9140>
 5a4:	01002002 	tsteq	r0, r2
 5a8:	00010401 	andeq	r0, r1, r1, lsl #8
 5ac:	46000200 	strmi	r0, [r0], -r0, lsl #4
 5b0:	02000000 	andeq	r0, r0, #0
 5b4:	0d0efb01 	vstreq	d15, [lr, #-4]
 5b8:	01010100 	mrseq	r0, (UNDEF: 17)
 5bc:	00000001 	andeq	r0, r0, r1
 5c0:	01000001 	tsteq	r0, r1
 5c4:	00727375 	rsbseq	r7, r2, r5, ror r3
 5c8:	6f632f2e 	svcvs	0x00632f2e
 5cc:	6e6f6d6d 	cdpvs	13, 6, cr6, cr15, cr13, {3}
 5d0:	636e692f 	cmnvs	lr, #770048	; 0xbc000
 5d4:	6564756c 	strbvs	r7, [r4, #-1388]!	; 0x56c
 5d8:	636d0000 	cmnvs	sp, #0
 5dc:	31353270 	teqcc	r5, r0, ror r2
 5e0:	00632e35 	rsbeq	r2, r3, r5, lsr lr
 5e4:	65000001 	strvs	r0, [r0, #-1]
 5e8:	6f6e7978 	svcvs	0x006e7978
 5ec:	34345f73 	ldrtcc	r5, [r4], #-3955	; 0xf73
 5f0:	682e3231 	stmdavs	lr!, {r0, r4, r5, r9, ip, sp}
 5f4:	00000200 	andeq	r0, r0, r0, lsl #4
 5f8:	02050000 	andeq	r0, r5, #0
 5fc:	40009adc 	ldrdmi	r9, [r0], -ip
 600:	00688416 	rsbeq	r8, r8, r6, lsl r4
 604:	06020402 	streq	r0, [r2], -r2, lsl #8
 608:	04020066 	streq	r0, [r2], #-102	; 0x66
 60c:	80066601 	andhi	r6, r6, r1, lsl #12
 610:	01040200 	mrseq	r0, R12_usr
 614:	86066606 	strhi	r6, [r6], -r6, lsl #12
 618:	4b9f4c87 	blmi	fe7d383c <dst+0xbe7c8e38>
 61c:	4b9f4c87 	blmi	fe7d3840 <dst+0xbe7c8e3c>
 620:	4b9f9f87 	blmi	fe7e8444 <dst+0xbe7dda40>
 624:	04020067 	streq	r0, [r2], #-103	; 0x67
 628:	062e0601 	strteq	r0, [lr], -r1, lsl #12
 62c:	68879f9f 	stmvs	r7, {r0, r1, r2, r3, r4, r7, r8, r9, sl, fp, ip, pc}
 630:	4b674b9f 	blmi	19d34b4 <_start-0x3e634b4c>
 634:	4ba32f9f 	blmi	fe8cc4b8 <dst+0xbe8c1ab4>
 638:	869f4b9f 			; <UNDEFINED> instruction: 0x869f4b9f
 63c:	4b2f2f4b 	blmi	bcc370 <_start-0x3f43bc90>
 640:	2f4c6930 	svccs	0x004c6930
 644:	6a304b2f 	bvs	c13308 <_start-0x3f3f4cf8>
 648:	4b2f2208 	blmi	bc8e70 <_start-0x3f43f190>
 64c:	30676767 	rsbcc	r6, r7, r7, ror #14
 650:	4b2fa16e 	blmi	be8c10 <_start-0x3f41f3f0>
 654:	2f306767 	svccs	0x00306767
 658:	4b2fd78a 	blmi	bf6488 <_start-0x3f411b78>
 65c:	692f6767 	stmdbvs	pc!, {r0, r1, r2, r5, r6, r8, r9, sl, sp, lr}	; <UNPREDICTABLE>
 660:	67692f4c 	strbvs	r2, [r9, -ip, asr #30]!
 664:	68676767 	stmdavs	r7!, {r0, r1, r2, r5, r6, r8, r9, sl, sp, lr}^
 668:	846d6784 	strbthi	r6, [sp], #-1924	; 0x784
 66c:	67676767 	strbvs	r6, [r7, -r7, ror #14]!
 670:	02040200 	andeq	r0, r4, #0
 674:	04020068 	streq	r0, [r2], #-104	; 0x68
 678:	00560802 	subseq	r0, r6, r2, lsl #16
 67c:	06010402 	streq	r0, [r1], -r2, lsl #8
 680:	306b0666 	rsbcc	r0, fp, r6, ror #12
 684:	85838469 	strhi	r8, [r3, #1129]	; 0x469
 688:	040200a0 	streq	r0, [r2], #-160	; 0xa0
 68c:	02006802 	andeq	r6, r0, #131072	; 0x20000
 690:	3f080204 	svccc	0x00080204
 694:	02040200 	andeq	r0, r4, #0
 698:	04020029 	streq	r0, [r2], #-41	; 0x29
 69c:	06660601 	strbteq	r0, [r6], -r1, lsl #12
 6a0:	0067836d 	rsbeq	r8, r7, sp, ror #6
 6a4:	06010402 	streq	r0, [r1], -r2, lsl #8
 6a8:	2f4c06ba 	svccs	0x004c06ba
 6ac:	01000a02 	tsteq	r0, r2, lsl #20
 6b0:	Address 0x000006b0 is out of bounds.


Disassembly of section .debug_info:

00000000 <.debug_info>:
   0:	00000059 	andeq	r0, r0, r9, asr r0
   4:	00000002 	andeq	r0, r0, r2
   8:	01040000 	mrseq	r0, (UNDEF: 4)
   c:	00000000 	andeq	r0, r0, r0
  10:	40008140 	andmi	r8, r0, r0, asr #2
  14:	40008340 	andmi	r8, r0, r0, asr #6
  18:	72617473 	rsbvc	r7, r1, #1929379840	; 0x73000000
  1c:	6f6c2f74 	svcvs	0x006c2f74
  20:	76656c77 			; <UNDEFINED> instruction: 0x76656c77
  24:	695f6c65 	ldmdbvs	pc, {r0, r2, r5, r6, sl, fp, sp, lr}^	; <UNPREDICTABLE>
  28:	2e74696e 	cdpcs	9, 7, cr6, cr4, cr14, {3}
  2c:	3a440053 	bcc	1100180 <_start-0x3ef07e80>
  30:	50794d5c 	rsbspl	r4, r9, ip, asr sp
  34:	72676f72 	rsbvc	r6, r7, #456	; 0x1c8
  38:	615c6d61 	cmpvs	ip, r1, ror #26
  3c:	345f6d72 	ldrbcc	r6, [pc], #-3442	; 44 <_start-0x40007fbc>
  40:	5c323134 	ldfpls	f3, [r2], #-208	; 0xffffff30
  44:	532e3331 	teqpl	lr, #-1006632960	; 0xc4000000
  48:	435f4950 	cmpmi	pc, #1310720	; 0x140000
  4c:	47004e41 	strmi	r4, [r0, -r1, asr #28]
  50:	4120554e 	teqmi	r0, lr, asr #10
  54:	2e322053 	mrccs	0, 1, r2, cr2, cr3, {2}
  58:	01003132 	tsteq	r0, r2, lsr r1
  5c:	00005180 	andeq	r5, r0, r0, lsl #3
  60:	14000200 	strne	r0, [r0], #-512	; 0x200
  64:	04000000 	streq	r0, [r0]
  68:	0000a501 	andeq	sl, r0, r1, lsl #10
  6c:	00800000 	addeq	r0, r0, r0
  70:	00813440 	addeq	r3, r1, r0, asr #8
  74:	61747340 	cmnvs	r4, r0, asr #6
  78:	732f7472 	teqvc	pc, #1912602624	; 0x72000000
  7c:	74726174 	ldrbtvc	r6, [r2], #-372	; 0x174
  80:	4400532e 	strmi	r5, [r0], #-814	; 0x32e
  84:	794d5c3a 	stmdbvc	sp, {r1, r3, r4, r5, sl, fp, ip, lr}^
  88:	676f7250 			; <UNDEFINED> instruction: 0x676f7250
  8c:	5c6d6172 	stfple	f6, [sp], #-456	; 0xfffffe38
  90:	5f6d7261 	svcpl	0x006d7261
  94:	32313434 	eorscc	r3, r1, #872415232	; 0x34000000
  98:	2e33315c 	mrccs	1, 1, r3, cr3, cr12, {2}
  9c:	5f495053 	svcpl	0x00495053
  a0:	004e4143 	subeq	r4, lr, r3, asr #2
  a4:	20554e47 	subscs	r4, r5, r7, asr #28
  a8:	32205341 	eorcc	r5, r0, #67108865	; 0x4000001
  ac:	0031322e 	eorseq	r3, r1, lr, lsr #4
  b0:	04be8001 	ldrteq	r8, [lr], #1
  b4:	00020000 	andeq	r0, r2, r0
  b8:	00000028 	andeq	r0, r0, r8, lsr #32
  bc:	008e0104 	addeq	r0, lr, r4, lsl #2
  c0:	ba010000 	blt	400c8 <_start-0x3ffc7f38>
  c4:	41000000 	mrsmi	r0, (UNDEF: 0)
  c8:	40000000 	andmi	r0, r0, r0
  cc:	34400083 	strbcc	r0, [r0], #-131	; 0x83
  d0:	22400095 	subcs	r0, r0, #149	; 0x95
  d4:	02000001 	andeq	r0, r0, #1
  d8:	00000062 	andeq	r0, r0, r2, rrx
  dc:	00302803 	eorseq	r2, r0, r3, lsl #16
  e0:	04030000 	streq	r0, [r3]
  e4:	00000000 	andeq	r0, r0, r0
  e8:	00006902 	andeq	r6, r0, r2, lsl #18
  ec:	25660300 	strbcs	r0, [r6, #-768]!	; 0x300
  f0:	04000000 	streq	r0, [r0]
  f4:	00000037 	andeq	r0, r0, r7, lsr r0
  f8:	6a014401 	bvs	51104 <_start-0x3ffb6efc>
  fc:	40000000 	andmi	r0, r0, r0
 100:	90400083 	subls	r0, r0, r3, lsl #1
 104:	00400083 	subeq	r0, r0, r3, lsl #1
 108:	6a000000 	bvs	110 <_start-0x40007ef0>
 10c:	05000000 	streq	r0, [r0]
 110:	44010063 	strmi	r0, [r1], #-99	; 0x63
 114:	0000006a 	andeq	r0, r0, sl, rrx
 118:	00789102 	rsbseq	r9, r8, r2, lsl #2
 11c:	7b080106 	blvc	20053c <_start-0x3fe07ac4>
 120:	07000000 	streq	r0, [r0, -r0]
 124:	00001201 	andeq	r1, r0, r1, lsl #4
 128:	01070200 	mrseq	r0, (UNDEF: 39)
 12c:	000000d4 	ldrdeq	r0, [r0], -r4
 130:	40008390 	mulmi	r0, r0, r3
 134:	40008538 	andmi	r8, r0, r8, lsr r5
 138:	0000002c 	andeq	r0, r0, ip, lsr #32
 13c:	000000d4 	ldrdeq	r0, [r0], -r4
 140:	00706305 	rsbseq	r6, r0, r5, lsl #6
 144:	00db0702 	sbcseq	r0, fp, r2, lsl #14
 148:	91020000 	mrsls	r0, (UNDEF: 2)
 14c:	00f4086c 	rscseq	r0, r4, ip, ror #16
 150:	07020000 	streq	r0, [r2, -r0]
 154:	000000ed 	andeq	r0, r0, sp, ror #1
 158:	08689102 	stmdaeq	r8!, {r1, r8, ip, pc}^
 15c:	00000089 	andeq	r0, r0, r9, lsl #1
 160:	00f90702 	rscseq	r0, r9, r2, lsl #14
 164:	91020000 	mrsls	r0, (UNDEF: 2)
 168:	00de0964 	sbcseq	r0, lr, r4, ror #18
 16c:	09020000 	stmdbeq	r2, {}	; <UNPREDICTABLE>
 170:	000000d4 	ldrdeq	r0, [r0], -r4
 174:	09749102 	ldmdbeq	r4!, {r1, r8, ip, pc}^
 178:	00000021 	andeq	r0, r0, r1, lsr #32
 17c:	00d40902 	sbcseq	r0, r4, r2, lsl #18
 180:	91020000 	mrsls	r0, (UNDEF: 2)
 184:	04060070 	streq	r0, [r6], #-112	; 0x70
 188:	00009a07 	andeq	r9, r0, r7, lsl #20
 18c:	e1040a00 	tst	r4, r0, lsl #20
 190:	0b000000 	bleq	198 <_start-0x40007e68>
 194:	000000e6 	andeq	r0, r0, r6, ror #1
 198:	84080106 	strhi	r0, [r8], #-262	; 0x106
 19c:	0a000000 	beq	1a4 <_start-0x40007e5c>
 1a0:	0000f304 	andeq	pc, r0, r4, lsl #6
 1a4:	e6040a00 	str	r0, [r4], -r0, lsl #20
 1a8:	06000000 	streq	r0, [r0], -r0
 1ac:	009f0704 	addseq	r0, pc, r4, lsl #14
 1b0:	01070000 	mrseq	r0, (UNDEF: 7)
 1b4:	000000ac 	andeq	r0, r0, ip, lsr #1
 1b8:	47012202 	strmi	r2, [r1, -r2, lsl #4]
 1bc:	38000001 	stmdacc	r0, {r0}
 1c0:	a8400085 	stmdage	r0, {r0, r2, r7}^
 1c4:	58400085 	stmdapl	r0, {r0, r2, r7}^
 1c8:	47000000 	strmi	r0, [r0, -r0]
 1cc:	05000001 	streq	r0, [r0, #-1]
 1d0:	02007063 	andeq	r7, r0, #99	; 0x63
 1d4:	0000db22 	andeq	sp, r0, r2, lsr #22
 1d8:	74910200 	ldrvc	r0, [r1], #512	; 0x200
 1dc:	0000f408 	andeq	pc, r0, r8, lsl #8
 1e0:	ed220200 	sfm	f0, 4, [r2]
 1e4:	02000000 	andeq	r0, r0, #0
 1e8:	89087091 	stmdbhi	r8, {r0, r4, r7, ip, sp, lr}
 1ec:	02000000 	andeq	r0, r0, #0
 1f0:	0000f922 	andeq	pc, r0, r2, lsr #18
 1f4:	6c910200 	lfmvs	f0, 4, [r1], {0}
 1f8:	05040600 	streq	r0, [r4, #-1536]	; 0x600
 1fc:	0000012b 	andeq	r0, r0, fp, lsr #2
 200:	00002d04 	andeq	r2, r0, r4, lsl #26
 204:	014a0200 	mrseq	r0, (UNDEF: 106)
 208:	00000183 	andeq	r0, r0, r3, lsl #3
 20c:	400085a8 	andmi	r8, r0, r8, lsr #11
 210:	4000863c 	andmi	r8, r0, ip, lsr r6
 214:	00000084 	andeq	r0, r0, r4, lsl #1
 218:	00000183 	andeq	r0, r0, r3, lsl #3
 21c:	02007305 	andeq	r7, r0, #335544320	; 0x14000000
 220:	00018a4a 	andeq	r8, r1, sl, asr #20
 224:	74910200 	ldrvc	r0, [r1], #512	; 0x200
 228:	0200690c 	andeq	r6, r0, #196608	; 0x30000
 22c:	0001834c 	andeq	r8, r1, ip, asr #6
 230:	78910200 	ldmvc	r1, {r9}
 234:	05040d00 	streq	r0, [r4, #-3328]	; 0xd00
 238:	00746e69 	rsbseq	r6, r4, r9, ror #28
 23c:	00db040a 	sbcseq	r0, fp, sl, lsl #8
 240:	24040000 	strcs	r0, [r4]
 244:	02000001 	andeq	r0, r0, #1
 248:	00f3016f 	rscseq	r0, r3, pc, ror #2
 24c:	863c0000 	ldrthi	r0, [ip], -r0
 250:	8ad44000 	bhi	ff510258 <dst+0xbf505854>
 254:	00b04000 	adcseq	r4, r0, r0
 258:	02600000 	rsbeq	r0, r0, #0
 25c:	73050000 	movwvc	r0, #20480	; 0x5000
 260:	02007274 	andeq	r7, r0, #1073741831	; 0x40000007
 264:	0000f36f 	andeq	pc, r0, pc, ror #6
 268:	9c910300 	ldcls	3, cr0, [r1], {0}
 26c:	756e057f 	strbvc	r0, [lr, #-1407]!	; 0x57f
 270:	6f02006d 	svcvs	0x0002006d
 274:	00000147 	andeq	r0, r0, r7, asr #2
 278:	7f989103 	svcvc	0x00989103
 27c:	00008908 	andeq	r8, r0, r8, lsl #18
 280:	f96f0200 			; <UNDEFINED> instruction: 0xf96f0200
 284:	03000000 	movweq	r0, #0
 288:	087f9491 	ldmdaeq	pc!, {r0, r4, r7, sl, ip, pc}^	; <UNPREDICTABLE>
 28c:	0000013f 	andeq	r0, r0, pc, lsr r1
 290:	01836f02 	orreq	r6, r3, r2, lsl #30
 294:	91030000 	mrsls	r0, (UNDEF: 3)
 298:	71087f90 			; <UNDEFINED> instruction: 0x71087f90
 29c:	02000000 	andeq	r0, r0, #0
 2a0:	0001836f 	andeq	r8, r1, pc, ror #6
 2a4:	00910200 	addseq	r0, r1, r0, lsl #4
 2a8:	0000fb08 	andeq	pc, r0, r8, lsl #22
 2ac:	836f0200 	cmnhi	pc, #0
 2b0:	02000001 	andeq	r0, r0, #1
 2b4:	630c0491 	movwvs	r0, #50321	; 0xc491
 2b8:	e6720200 	ldrbt	r0, [r2], -r0, lsl #4
 2bc:	02000000 	andeq	r0, r0, #0
 2c0:	34096b91 	strcc	r6, [r9], #-2961	; 0xb91
 2c4:	02000001 	andeq	r0, r0, #1
 2c8:	0000e672 	andeq	lr, r0, r2, ror r6
 2cc:	77910200 	ldrvc	r0, [r1, r0, lsl #4]
 2d0:	706d740c 	rsbvc	r7, sp, ip, lsl #8
 2d4:	60720200 	rsbsvs	r0, r2, r0, lsl #4
 2d8:	03000002 	movweq	r0, #2
 2dc:	097fa091 	ldmdbeq	pc!, {r0, r4, r7, sp, pc}^	; <UNPREDICTABLE>
 2e0:	00000100 	andeq	r0, r0, r0, lsl #2
 2e4:	00db7302 	sbcseq	r7, fp, r2, lsl #6
 2e8:	91020000 	mrsls	r0, (UNDEF: 2)
 2ec:	00690c70 	rsbeq	r0, r9, r0, ror ip
 2f0:	01837402 	orreq	r7, r3, r2, lsl #8
 2f4:	91020000 	mrsls	r0, (UNDEF: 2)
 2f8:	88000e6c 	stmdahi	r0, {r2, r3, r5, r6, r9, sl, fp}
 2fc:	88344000 	ldmdahi	r4!, {lr}
 300:	39094000 	stmdbcc	r9, {lr}
 304:	02000001 	andeq	r0, r0, #1
 308:	00018396 	muleq	r1, r6, r3
 30c:	64910200 	ldrvs	r0, [r1], #512	; 0x200
 310:	e60f0000 	str	r0, [pc], -r0
 314:	70000000 	andvc	r0, r0, r0
 318:	10000002 	andne	r0, r0, r2
 31c:	000000d4 	ldrdeq	r0, [r0], -r4
 320:	01070041 	tsteq	r7, r1, asr #32
 324:	000000ec 	andeq	r0, r0, ip, ror #1
 328:	f901b402 			; <UNDEFINED> instruction: 0xf901b402
 32c:	d4000000 	strle	r0, [r0]
 330:	5440008a 	strbpl	r0, [r0], #-138	; 0x8a
 334:	dc40008b 	mcrrle	0, 8, r0, r0, cr11
 338:	b5000000 	strlt	r0, [r0]
 33c:	05000002 	streq	r0, [r0, #-2]
 340:	b4020073 	strlt	r0, [r2], #-115	; 0x73
 344:	000000db 	ldrdeq	r0, [r0], -fp
 348:	08749102 	ldmdaeq	r4!, {r1, r8, ip, pc}^
 34c:	00000027 	andeq	r0, r0, r7, lsr #32
 350:	00f9b402 	rscseq	fp, r9, r2, lsl #8
 354:	91020000 	mrsls	r0, (UNDEF: 2)
 358:	63730c70 	cmnvs	r3, #28672	; 0x7000
 35c:	dbb60200 	blle	fed80b64 <dst+0xbed76160>
 360:	02000000 	andeq	r0, r0, #0
 364:	07007891 			; <UNDEFINED> instruction: 0x07007891
 368:	00014401 	andeq	r4, r1, r1, lsl #8
 36c:	01bc0200 			; <UNDEFINED> instruction: 0x01bc0200
 370:	00000183 	andeq	r0, r0, r3, lsl #3
 374:	40008b54 	andmi	r8, r0, r4, asr fp
 378:	4000948c 	andmi	r9, r0, ip, lsl #9
 37c:	00000108 	andeq	r0, r0, r8, lsl #2
 380:	000003c5 	andeq	r0, r0, r5, asr #7
 384:	66756205 	ldrbtvs	r6, [r5], -r5, lsl #4
 388:	f3bc0200 	vpaddl.s<illegal width 64>	d0, d0
 38c:	02000000 	andeq	r0, r0, #0
 390:	66054491 			; <UNDEFINED> instruction: 0x66054491
 394:	0200746d 	andeq	r7, r0, #1828716544	; 0x6d000000
 398:	0000dbbc 			; <UNDEFINED> instruction: 0x0000dbbc
 39c:	40910200 	addsmi	r0, r1, r0, lsl #4
 3a0:	00011f08 	andeq	r1, r1, r8, lsl #30
 3a4:	36bc0200 	ldrtcc	r0, [ip], r0, lsl #4
 3a8:	03000000 	movweq	r0, #0
 3ac:	0c7fbc91 	ldcleq	12, cr11, [pc], #-580	; 170 <_start-0x40007e90>
 3b0:	006e656c 	rsbeq	r6, lr, ip, ror #10
 3b4:	0183be02 	orreq	fp, r3, r2, lsl #28
 3b8:	91020000 	mrsls	r0, (UNDEF: 2)
 3bc:	756e0c50 	strbvc	r0, [lr, #-3152]!	; 0xc50
 3c0:	c202006d 	andgt	r0, r2, #109	; 0x6d
 3c4:	000000d4 	ldrdeq	r0, [r0], -r4
 3c8:	0c749102 	ldfeqp	f1, [r4], #-8
 3cc:	c4020069 	strgt	r0, [r2], #-105	; 0x69
 3d0:	00000183 	andeq	r0, r0, r3, lsl #3
 3d4:	09709102 	ldmdbeq	r0!, {r1, r8, ip, pc}^
 3d8:	00000089 	andeq	r0, r0, r9, lsl #1
 3dc:	0183c402 	orreq	ip, r3, r2, lsl #8
 3e0:	91020000 	mrsls	r0, (UNDEF: 2)
 3e4:	74730c6c 	ldrbtvc	r0, [r3], #-3180	; 0xc6c
 3e8:	c5020072 	strgt	r0, [r2, #-114]	; 0x72
 3ec:	000000f3 	strdeq	r0, [r0], -r3
 3f0:	0c689102 	stfeqp	f1, [r8], #-8
 3f4:	c6020073 			; <UNDEFINED> instruction: 0xc6020073
 3f8:	000000db 	ldrdeq	r0, [r0], -fp
 3fc:	09649102 	stmdbeq	r4!, {r1, r8, ip, pc}^
 400:	000000ce 	andeq	r0, r0, lr, asr #1
 404:	0183c802 	orreq	ip, r3, r2, lsl #16
 408:	91020000 	mrsls	r0, (UNDEF: 2)
 40c:	01130960 	tsteq	r3, r0, ror #18
 410:	ca020000 	bgt	80418 <_start-0x3ff87be8>
 414:	00000183 	andeq	r0, r0, r3, lsl #3
 418:	095c9102 	ldmdbeq	ip, {r1, r8, ip, pc}^
 41c:	00000071 	andeq	r0, r0, r1, ror r0
 420:	0183cb02 	orreq	ip, r3, r2, lsl #22
 424:	91020000 	mrsls	r0, (UNDEF: 2)
 428:	00d40958 	sbcseq	r0, r4, r8, asr r9
 42c:	cd020000 	stcgt	0, cr0, [r2]
 430:	00000183 	andeq	r0, r0, r3, lsl #3
 434:	11549102 	cmpne	r4, r2, lsl #2
 438:	000000e5 	andeq	r0, r0, r5, ror #1
 43c:	8bb0d702 	blhi	fec3604c <dst+0xbec2b648>
 440:	08124000 	ldmdaeq	r2, {lr}
 444:	30400092 	umaalcc	r0, r0, r2, r0
 448:	ac400092 	mcrrge	0, 9, r0, r0, cr2
 44c:	13000003 	movwne	r0, #3
 450:	02007069 	andeq	r7, r0, #105	; 0x69
 454:	03c50135 	biceq	r0, r5, #1073741837	; 0x4000000d
 458:	91020000 	mrsls	r0, (UNDEF: 2)
 45c:	340e004c 	strcc	r0, [lr], #-76	; 0x4c
 460:	5c400092 	mcrrpl	0, 9, r0, r0, cr2
 464:	13400092 	movtne	r0, #146	; 0x92
 468:	02007069 	andeq	r7, r0, #105	; 0x69
 46c:	03cb0138 	biceq	r0, fp, #14
 470:	91020000 	mrsls	r0, (UNDEF: 2)
 474:	0a000048 	beq	59c <_start-0x40007a64>
 478:	00014704 	andeq	r4, r1, r4, lsl #14
 47c:	83040a00 	movwhi	r0, #18944	; 0x4a00
 480:	14000001 	strne	r0, [r0], #-1
 484:	00014501 	andeq	r4, r1, r1, lsl #10
 488:	01730200 	cmneq	r3, r0, lsl #4
 48c:	00018301 	andeq	r8, r1, r1, lsl #6
 490:	00948c00 	addseq	r8, r4, r0, lsl #24
 494:	0094dc40 	addseq	sp, r4, r0, asr #24
 498:	00013440 	andeq	r3, r1, r0, asr #8
 49c:	00042b00 	andeq	r2, r4, r0, lsl #22
 4a0:	75621500 	strbvc	r1, [r2, #-1280]!	; 0x500
 4a4:	73020066 	movwvc	r0, #8294	; 0x2066
 4a8:	0000f301 	andeq	pc, r0, r1, lsl #6
 4ac:	60910200 	addsvs	r0, r1, r0, lsl #4
 4b0:	746d6615 	strbtvc	r6, [sp], #-1557	; 0x615
 4b4:	01730200 	cmneq	r3, r0, lsl #4
 4b8:	000000db 	ldrdeq	r0, [r0], -fp
 4bc:	16749102 	ldrbtne	r9, [r4], -r2, lsl #2
 4c0:	00011f17 	andeq	r1, r1, r7, lsl pc
 4c4:	01750200 	cmneq	r5, r0, lsl #4
 4c8:	00000036 	andeq	r0, r0, r6, lsr r0
 4cc:	13649102 	cmnne	r4, #-2147483648	; 0x80000000
 4d0:	76020069 	strvc	r0, [r2], -r9, rrx
 4d4:	00018301 	andeq	r8, r1, r1, lsl #6
 4d8:	68910200 	ldmvs	r1, {r9}
 4dc:	46011800 	strmi	r1, [r1], -r0, lsl #16
 4e0:	02000001 	andeq	r0, r0, #1
 4e4:	dc01017e 	stfles	f0, [r1], {126}	; 0x7e
 4e8:	34400094 	strbcc	r0, [r0], #-148	; 0x94
 4ec:	6c400095 	mcrrvs	0, 9, r0, r0, cr5
 4f0:	82000001 	andhi	r0, r0, #1
 4f4:	15000004 	strne	r0, [r0, #-4]
 4f8:	00746d66 	rsbseq	r6, r4, r6, ror #26
 4fc:	db017e02 	blle	5fd0c <_start-0x3ffa82f4>
 500:	02000000 	andeq	r0, r0, #0
 504:	17167091 			; <UNDEFINED> instruction: 0x17167091
 508:	0000011f 	andeq	r0, r0, pc, lsl r1
 50c:	36018002 	strcc	r8, [r1], -r2
 510:	02000000 	andeq	r0, r0, #0
 514:	69136091 	ldmdbvs	r3, {r0, r4, r7, sp, lr}
 518:	01810200 	orreq	r0, r1, r0, lsl #4
 51c:	000000f9 	strdeq	r0, [r0], -r9
 520:	17649102 	strbne	r9, [r4, -r2, lsl #2]!
 524:	00000107 	andeq	r0, r0, r7, lsl #2
 528:	82018202 	andhi	r8, r1, #536870912	; 0x20000000
 52c:	03000004 	movweq	r0, #4
 530:	007efc91 			; <UNDEFINED> instruction: 0x007efc91
 534:	0000e60f 	andeq	lr, r0, pc, lsl #12
 538:	00049200 	andeq	r9, r4, r0, lsl #4
 53c:	00d41000 	sbcseq	r1, r4, r0
 540:	00630000 	rsbeq	r0, r3, r0
 544:	00006a0f 	andeq	r6, r0, pc, lsl #20
 548:	0004a200 	andeq	sl, r4, r0, lsl #4
 54c:	00d41000 	sbcseq	r1, r4, r0
 550:	00ff0000 	rscseq	r0, pc, r0
 554:	0000f919 	andeq	pc, r0, r9, lsl r9	; <UNPREDICTABLE>
 558:	92110100 	andsls	r0, r1, #0
 55c:	01000004 	tsteq	r0, r4
 560:	00f91a01 	rscseq	r1, r9, r1, lsl #20
 564:	11010000 	mrsne	r0, (UNDEF: 1)
 568:	00000492 	muleq	r0, r2, r4
 56c:	fc030501 	stc2	5, cr0, [r3], {1}
 570:	004000a8 	subeq	r0, r0, r8, lsr #1
 574:	0000023d 	andeq	r0, r0, sp, lsr r2
 578:	019b0002 	orrseq	r0, fp, r2
 57c:	01040000 	mrseq	r0, (UNDEF: 4)
 580:	0000008e 	andeq	r0, r0, lr, lsl #1
 584:	0001e101 	andeq	lr, r1, r1, lsl #2
 588:	00004100 	andeq	r4, r0, r0, lsl #2
 58c:	00953400 	addseq	r3, r5, r0, lsl #8
 590:	00968840 	addseq	r8, r6, r0, asr #16
 594:	00037940 	andeq	r7, r3, r0, asr #18
 598:	07040200 	streq	r0, [r4, -r0, lsl #4]
 59c:	0000009f 	muleq	r0, pc, r0	; <UNPREDICTABLE>
 5a0:	b0021803 	andlt	r1, r2, r3, lsl #16
 5a4:	00009001 	andeq	r9, r0, r1
 5a8:	4f430400 	svcmi	0x00430400
 5ac:	b102004e 	tstlt	r2, lr, asr #32
 5b0:	00002501 	andeq	r2, r0, r1, lsl #10
 5b4:	00230200 	eoreq	r0, r3, r0, lsl #4
 5b8:	54414404 	strbpl	r4, [r1], #-1028	; 0x404
 5bc:	01b20200 			; <UNDEFINED> instruction: 0x01b20200
 5c0:	00000025 	andeq	r0, r0, r5, lsr #32
 5c4:	04042302 	streq	r2, [r4], #-770	; 0x302
 5c8:	00445550 	subeq	r5, r4, r0, asr r5
 5cc:	2501b302 	strcs	fp, [r1, #-770]	; 0x302
 5d0:	02000000 	andeq	r0, r0, #0
 5d4:	44040823 	strmi	r0, [r4], #-2083	; 0x823
 5d8:	02005652 	andeq	r5, r0, #85983232	; 0x5200000
 5dc:	002501b4 			; <UNDEFINED> instruction: 0x002501b4
 5e0:	23020000 	movwcs	r0, #8192	; 0x2000
 5e4:	019c050c 	orrseq	r0, ip, ip, lsl #10
 5e8:	b5020000 	strlt	r0, [r2]
 5ec:	00002501 	andeq	r2, r0, r1, lsl #10
 5f0:	10230200 	eorne	r0, r3, r0, lsl #4
 5f4:	0001da05 	andeq	sp, r1, r5, lsl #20
 5f8:	01b60200 			; <UNDEFINED> instruction: 0x01b60200
 5fc:	00000025 	andeq	r0, r0, r5, lsr #32
 600:	00142302 	andseq	r2, r4, r2, lsl #6
 604:	0001c706 	andeq	ip, r1, r6, lsl #14
 608:	01b70200 			; <UNDEFINED> instruction: 0x01b70200
 60c:	0000002c 	andeq	r0, r0, ip, lsr #32
 610:	f0023c03 			; <UNDEFINED> instruction: 0xf0023c03
 614:	00018703 	andeq	r8, r1, r3, lsl #14
 618:	01c00500 	biceq	r0, r0, r0, lsl #10
 61c:	f1020000 	cps	#0
 620:	00002503 	andeq	r2, r0, r3, lsl #10
 624:	00230200 	eoreq	r0, r3, r0, lsl #4
 628:	0001a305 	andeq	sl, r1, r5, lsl #6
 62c:	03f20200 	mvnseq	r0, #0
 630:	00000025 	andeq	r0, r0, r5, lsr #32
 634:	05042302 	streq	r2, [r4, #-770]	; 0x302
 638:	0000018f 	andeq	r0, r0, pc, lsl #3
 63c:	2503f302 	strcs	pc, [r3, #-770]	; 0x302
 640:	02000000 	andeq	r0, r0, #0
 644:	f8050823 			; <UNDEFINED> instruction: 0xf8050823
 648:	02000001 	andeq	r0, r0, #1
 64c:	002503f4 	strdeq	r0, [r5], -r4	; <UNPREDICTABLE>
 650:	23020000 	movwcs	r0, #8192	; 0x2000
 654:	0177050c 	cmneq	r7, ip, lsl #10
 658:	f5020000 			; <UNDEFINED> instruction: 0xf5020000
 65c:	00002503 	andeq	r2, r0, r3, lsl #10
 660:	10230200 	eorne	r0, r3, r0, lsl #4
 664:	0001d105 	andeq	sp, r1, r5, lsl #2
 668:	03f60200 	mvnseq	r0, #0
 66c:	00000025 	andeq	r0, r0, r5, lsr #32
 670:	05142302 	ldreq	r2, [r4, #-770]	; 0x302
 674:	0000016f 	andeq	r0, r0, pc, ror #2
 678:	2503f702 	strcs	pc, [r3, #-1794]	; 0x702
 67c:	02000000 	andeq	r0, r0, #0
 680:	a9051823 	stmdbge	r5, {r0, r1, r5, fp, ip}
 684:	02000001 	andeq	r0, r0, #1
 688:	002503f8 	strdeq	r0, [r5], -r8	; <UNPREDICTABLE>
 68c:	23020000 	movwcs	r0, #8192	; 0x2000
 690:	0196051c 	orrseq	r0, r6, ip, lsl r5
 694:	f9020000 			; <UNDEFINED> instruction: 0xf9020000
 698:	00002503 	andeq	r2, r0, r3, lsl #10
 69c:	20230200 	eorcs	r0, r3, r0, lsl #4
 6a0:	0001ff05 	andeq	pc, r1, r5, lsl #30
 6a4:	03fa0200 	mvnseq	r0, #0
 6a8:	00000025 	andeq	r0, r0, r5, lsr #32
 6ac:	05242302 	streq	r2, [r4, #-770]!	; 0x302
 6b0:	00000162 	andeq	r0, r0, r2, ror #2
 6b4:	2503fb02 	strcs	pc, [r3, #-2818]	; 0xb02
 6b8:	02000000 	andeq	r0, r0, #0
 6bc:	05052823 	streq	r2, [r5, #-2083]	; 0x823
 6c0:	02000002 	andeq	r0, r0, #2
 6c4:	002503fc 	strdeq	r0, [r5], -ip	; <UNPREDICTABLE>
 6c8:	23020000 	movwcs	r0, #8192	; 0x2000
 6cc:	0153052c 	cmpeq	r3, ip, lsr #10
 6d0:	fd020000 	stc2	0, cr0, [r2]
 6d4:	00002503 	andeq	r2, r0, r3, lsl #10
 6d8:	30230200 	eorcc	r0, r3, r0, lsl #4
 6dc:	00015a05 	andeq	r5, r1, r5, lsl #20
 6e0:	03fe0200 	mvnseq	r0, #0
 6e4:	00000025 	andeq	r0, r0, r5, lsr #32
 6e8:	05342302 	ldreq	r2, [r4, #-770]!	; 0x302
 6ec:	000001b1 			; <UNDEFINED> instruction: 0x000001b1
 6f0:	2503ff02 	strcs	pc, [r3, #-3842]	; 0xf02
 6f4:	02000000 	andeq	r0, r0, #0
 6f8:	06003823 	streq	r3, [r0], -r3, lsr #16
 6fc:	0000014d 	andeq	r0, r0, sp, asr #2
 700:	9c040002 	stcls	0, cr0, [r4], {2}
 704:	02000000 	andeq	r0, r0, #0
 708:	009a0704 	addseq	r0, sl, r4, lsl #14
 70c:	01070000 	mrseq	r0, (UNDEF: 7)
 710:	00000180 	andeq	r0, r0, r0, lsl #3
 714:	95340301 	ldrls	r0, [r4, #-769]!	; 0x301
 718:	95984000 	ldrls	r4, [r8]
 71c:	01a44000 			; <UNDEFINED> instruction: 0x01a44000
 720:	01080000 	mrseq	r0, (UNDEF: 8)
 724:	000001cc 	andeq	r0, r0, ip, asr #3
 728:	98011001 	stmdals	r1, {r0, ip}
 72c:	f4400095 	vst4.32	{d16-d19}, [r0 :64], r5
 730:	d0400095 	umaalle	r0, r0, r5, r0
 734:	d6000001 	strle	r0, [r0], -r1
 738:	09000001 	stmdbeq	r0, {r0}
 73c:	0000018a 	andeq	r0, r0, sl, lsl #3
 740:	01d61001 	bicseq	r1, r6, r1
 744:	91020000 	mrsls	r0, (UNDEF: 2)
 748:	db0a0074 	blle	280920 <_start-0x3fd876e0>
 74c:	02000001 	andeq	r0, r0, #1
 750:	00840801 	addeq	r0, r4, r1, lsl #16
 754:	01080000 	mrseq	r0, (UNDEF: 8)
 758:	000001f3 	strdeq	r0, [r0], -r3
 75c:	f4011701 	vst1.8	{d1}, [r1], r1
 760:	40400095 	umaalmi	r0, r0, r5, r0
 764:	fc400096 	mcrr2	0, 9, r0, r0, cr6
 768:	0a000001 	beq	774 <_start-0x4000788c>
 76c:	09000002 	stmdbeq	r0, {r1}
 770:	0000016a 	andeq	r0, r0, sl, ror #2
 774:	020a1701 	andeq	r1, sl, #262144	; 0x40000
 778:	91020000 	mrsls	r0, (UNDEF: 2)
 77c:	040b0074 	streq	r0, [fp], #-116	; 0x74
 780:	000001d6 	ldrdeq	r0, [r0], -r6
 784:	01b8010c 			; <UNDEFINED> instruction: 0x01b8010c
 788:	1d010000 	stcne	0, cr0, [r1]
 78c:	00000239 	andeq	r0, r0, r9, lsr r2
 790:	40009640 	andmi	r9, r0, r0, asr #12
 794:	40009688 	andmi	r9, r0, r8, lsl #13
 798:	00000228 	andeq	r0, r0, r8, lsr #4
 79c:	00000239 	andeq	r0, r0, r9, lsr r2
 7a0:	0100630d 	tsteq	r0, sp, lsl #6
 7a4:	0002391f 	andeq	r3, r2, pc, lsl r9
 7a8:	7b910200 	blvc	fe440fb0 <dst+0xbe4365ac>
 7ac:	08010200 	stmdaeq	r1, {r9}
 7b0:	0000007b 	andeq	r0, r0, fp, ror r0
 7b4:	00005900 	andeq	r5, r0, r0, lsl #18
 7b8:	61000200 	mrsvs	r0, R8_usr
 7bc:	04000002 	streq	r0, [r0], #-2
 7c0:	00040201 	andeq	r0, r4, r1, lsl #4
 7c4:	00968800 	addseq	r8, r6, r0, lsl #16
 7c8:	00971c40 	addseq	r1, r7, r0, asr #24
 7cc:	6d6f6340 	stclvs	3, cr6, [pc, #-256]!	; 6d4 <_start-0x4000792c>
 7d0:	2f6e6f6d 	svccs	0x006e6f6d
 7d4:	2f637273 	svccs	0x00637273
 7d8:	6964755f 	stmdbvs	r4!, {r0, r1, r2, r3, r4, r6, r8, sl, ip, sp, lr}^
 7dc:	33697376 	cmncc	r9, #-671088639	; 0xd8000001
 7e0:	4400532e 	strmi	r5, [r0], #-814	; 0x32e
 7e4:	794d5c3a 	stmdbvc	sp, {r1, r3, r4, r5, sl, fp, ip, lr}^
 7e8:	676f7250 			; <UNDEFINED> instruction: 0x676f7250
 7ec:	5c6d6172 	stfple	f6, [sp], #-456	; 0xfffffe38
 7f0:	5f6d7261 	svcpl	0x006d7261
 7f4:	32313434 	eorscc	r3, r1, #872415232	; 0x34000000
 7f8:	2e33315c 	mrccs	1, 1, r3, cr3, cr12, {2}
 7fc:	5f495053 	svcpl	0x00495053
 800:	004e4143 	subeq	r4, lr, r3, asr #2
 804:	20554e47 	subscs	r4, r5, r7, asr #28
 808:	32205341 	eorcc	r5, r0, #67108865	; 0x4000001
 80c:	0031322e 	eorseq	r3, r1, lr, lsr #4
 810:	00598001 	subseq	r8, r9, r1
 814:	00020000 	andeq	r0, r2, r0
 818:	00000275 	andeq	r0, r0, r5, ror r2
 81c:	046b0104 	strbteq	r0, [fp], #-260	; 0x104
 820:	971c0000 	ldrls	r0, [ip, -r0]
 824:	97cc4000 	strbls	r4, [ip, r0]
 828:	6f634000 	svcvs	0x00634000
 82c:	6e6f6d6d 	cdpvs	13, 6, cr6, cr15, cr13, {3}
 830:	6372732f 	cmnvs	r2, #-1140850688	; 0xbc000000
 834:	6d755f2f 	ldclvs	15, cr5, [r5, #-188]!	; 0xffffff44
 838:	6973646f 	ldmdbvs	r3!, {r0, r1, r2, r3, r5, r6, sl, sp, lr}^
 83c:	00532e33 	subseq	r2, r3, r3, lsr lr
 840:	4d5c3a44 	vldrmi	s7, [ip, #-272]	; 0xfffffef0
 844:	6f725079 	svcvs	0x00725079
 848:	6d617267 	sfmvs	f7, 2, [r1, #-412]!	; 0xfffffe64
 84c:	6d72615c 	ldfvse	f6, [r2, #-368]!	; 0xfffffe90
 850:	3134345f 	teqcc	r4, pc, asr r4
 854:	33315c32 	teqcc	r1, #12800	; 0x3200
 858:	4950532e 	ldmdbmi	r0, {r1, r2, r3, r5, r8, r9, ip, lr}^
 85c:	4e41435f 	mcrmi	3, 2, r4, cr1, cr15, {2}
 860:	554e4700 	strbpl	r4, [lr, #-1792]	; 0x700
 864:	20534120 	subscs	r4, r3, r0, lsr #2
 868:	31322e32 	teqcc	r2, r2, lsr lr
 86c:	7c800100 	stfvcs	f0, [r0], {0}
 870:	02000003 	andeq	r0, r0, #3
 874:	00028900 	andeq	r8, r2, r0, lsl #18
 878:	8e010400 	cfcpyshi	mvf0, mvf1
 87c:	01000000 	mrseq	r0, (UNDEF: 0)
 880:	0000024c 	andeq	r0, r0, ip, asr #4
 884:	00000041 	andeq	r0, r0, r1, asr #32
 888:	400097cc 	andmi	r9, r0, ip, asr #15
 88c:	40009adc 	ldrdmi	r9, [r0], -ip
 890:	000004db 	ldrdeq	r0, [r0], -fp
 894:	9f070402 	svcls	0x00070402
 898:	03000000 	movweq	r0, #0
 89c:	01d10218 	bicseq	r0, r1, r8, lsl r2
 8a0:	00000090 	muleq	r0, r0, r0
 8a4:	4e4f4304 	cdpmi	3, 4, cr4, cr15, cr4, {0}
 8a8:	01d20200 	bicseq	r0, r2, r0, lsl #4
 8ac:	00000025 	andeq	r0, r0, r5, lsr #32
 8b0:	04002302 	streq	r2, [r0], #-770	; 0x302
 8b4:	00544144 	subseq	r4, r4, r4, asr #2
 8b8:	2501d302 	strcs	sp, [r1, #-770]	; 0x302
 8bc:	02000000 	andeq	r0, r0, #0
 8c0:	50040423 	andpl	r0, r4, r3, lsr #8
 8c4:	02004455 	andeq	r4, r0, #1426063360	; 0x55000000
 8c8:	002501d4 	ldrdeq	r0, [r5], -r4	; <UNPREDICTABLE>
 8cc:	23020000 	movwcs	r0, #8192	; 0x2000
 8d0:	52440408 	subpl	r0, r4, #134217728	; 0x8000000
 8d4:	d5020056 	strle	r0, [r2, #-86]	; 0x56
 8d8:	00002501 	andeq	r2, r0, r1, lsl #10
 8dc:	0c230200 	sfmeq	f0, 4, [r3]
 8e0:	00019c05 	andeq	r9, r1, r5, lsl #24
 8e4:	01d60200 	bicseq	r0, r6, r0, lsl #4
 8e8:	00000025 	andeq	r0, r0, r5, lsr #32
 8ec:	05102302 	ldreq	r2, [r0, #-770]	; 0x302
 8f0:	000001da 	ldrdeq	r0, [r0], -sl
 8f4:	2501d702 	strcs	sp, [r1, #-1794]	; 0x702
 8f8:	02000000 	andeq	r0, r0, #0
 8fc:	06001423 	streq	r1, [r0], -r3, lsr #8
 900:	000002d4 	ldrdeq	r0, [r0], -r4
 904:	2c01d802 	stccs	8, cr13, [r1], {2}
 908:	03000000 	movweq	r0, #0
 90c:	02300210 	eorseq	r0, r0, #1
 910:	000000e2 	andeq	r0, r0, r2, ror #1
 914:	4e4f4304 	cdpmi	3, 4, cr4, cr15, cr4, {0}
 918:	02310200 	eorseq	r0, r1, #0
 91c:	00000025 	andeq	r0, r0, r5, lsr #32
 920:	04002302 	streq	r2, [r0], #-770	; 0x302
 924:	00544144 	subseq	r4, r4, r4, asr #2
 928:	25023202 	strcs	r3, [r2, #-514]	; 0x202
 92c:	02000000 	andeq	r0, r0, #0
 930:	50040423 	andpl	r0, r4, r3, lsr #8
 934:	02004455 	andeq	r4, r0, #1426063360	; 0x55000000
 938:	00250233 	eoreq	r0, r5, r3, lsr r2
 93c:	23020000 	movwcs	r0, #8192	; 0x2000
 940:	52440408 	subpl	r0, r4, #134217728	; 0x8000000
 944:	34020056 	strcc	r0, [r2], #-86	; 0x56
 948:	00002502 	andeq	r2, r0, r2, lsl #10
 94c:	0c230200 	sfmeq	f0, 4, [r3]
 950:	02e00600 	rsceq	r0, r0, #0
 954:	35020000 	strcc	r0, [r2]
 958:	00009c02 	andeq	r9, r0, r2, lsl #24
 95c:	02300300 	eorseq	r0, r0, #0
 960:	01ac04e4 			; <UNDEFINED> instruction: 0x01ac04e4
 964:	d9050000 	stmdble	r5, {}	; <UNPREDICTABLE>
 968:	02000002 	andeq	r0, r0, #2
 96c:	002504e5 	eoreq	r0, r5, r5, ror #9
 970:	23020000 	movwcs	r0, #8192	; 0x2000
 974:	026c0500 	rsbeq	r0, ip, #0
 978:	e6020000 	str	r0, [r2], -r0
 97c:	00002504 	andeq	r2, r0, r4, lsl #10
 980:	04230200 	strteq	r0, [r3], #-512	; 0x200
 984:	00025c05 	andeq	r5, r2, r5, lsl #24
 988:	04e70200 	strbteq	r0, [r7], #512	; 0x200
 98c:	00000025 	andeq	r0, r0, r5, lsr #32
 990:	05082302 	streq	r2, [r8, #-770]	; 0x302
 994:	0000021a 	andeq	r0, r0, sl, lsl r2
 998:	2504e802 	strcs	lr, [r4, #-2050]	; 0x802
 99c:	02000000 	andeq	r0, r0, #0
 9a0:	7a050c23 	bvc	143a34 <_start-0x3fec45cc>
 9a4:	02000002 	andeq	r0, r0, #2
 9a8:	002504e9 	eoreq	r0, r5, r9, ror #9
 9ac:	23020000 	movwcs	r0, #8192	; 0x2000
 9b0:	02a20510 	adceq	r0, r2, #67108864	; 0x4000000
 9b4:	ea020000 	b	809bc <_start-0x3ff87644>
 9b8:	00002504 	andeq	r2, r0, r4, lsl #10
 9bc:	14230200 	strtne	r0, [r3], #-512	; 0x200
 9c0:	00023005 	andeq	r3, r2, r5
 9c4:	04eb0200 	strbteq	r0, [fp], #512	; 0x200
 9c8:	00000025 	andeq	r0, r0, r5, lsr #32
 9cc:	05182302 	ldreq	r2, [r8, #-770]	; 0x302
 9d0:	000002ee 	andeq	r0, r0, lr, ror #5
 9d4:	2504ec02 	strcs	lr, [r4, #-3074]	; 0xc02
 9d8:	02000000 	andeq	r0, r0, #0
 9dc:	21051c23 	tstcs	r5, r3, lsr #24
 9e0:	02000002 	andeq	r0, r0, #2
 9e4:	002504ed 	eoreq	r0, r5, sp, ror #9
 9e8:	23020000 	movwcs	r0, #8192	; 0x2000
 9ec:	02ad0520 	adceq	r0, sp, #134217728	; 0x8000000
 9f0:	ee020000 	cdp	0, 0, cr0, cr2, cr0, {0}
 9f4:	00002504 	andeq	r2, r0, r4, lsl #10
 9f8:	24230200 	strtcs	r0, [r3], #-512	; 0x200
 9fc:	00028505 	andeq	r8, r2, r5, lsl #10
 a00:	04ef0200 	strbteq	r0, [pc], #512	; a08 <_start-0x400075f8>
 a04:	00000025 	andeq	r0, r0, r5, lsr #32
 a08:	05282302 	streq	r2, [r8, #-770]!	; 0x302
 a0c:	000002c9 	andeq	r0, r0, r9, asr #5
 a10:	2504f002 	strcs	pc, [r4, #-2]
 a14:	02000000 	andeq	r0, r0, #0
 a18:	06002c23 	streq	r2, [r0], -r3, lsr #24
 a1c:	00000257 	andeq	r0, r0, r7, asr r2
 a20:	ee04f102 	mvfs	f7, f2
 a24:	02000000 	andeq	r0, r0, #0
 a28:	009a0704 	addseq	r0, sl, r4, lsl #14
 a2c:	01070000 	mrseq	r0, (UNDEF: 7)
 a30:	00000265 	andeq	r0, r0, r5, ror #4
 a34:	97cc1301 	strbls	r1, [ip, r1, lsl #6]
 a38:	97e04000 	strbls	r4, [r0, r0]!
 a3c:	02544000 	subseq	r4, r4, #0
 a40:	01080000 	mrseq	r0, (UNDEF: 8)
 a44:	0000020f 	andeq	r0, r0, pc, lsl #4
 a48:	e0011c01 	and	r1, r1, r1, lsl #24
 a4c:	78400097 	stmdavc	r0, {r0, r1, r2, r4, r7}^
 a50:	80400098 	umaalhi	r0, r0, r8, r0
 a54:	13000002 	movwne	r0, #2
 a58:	09000002 	stmdbeq	r0, {r1}
 a5c:	00000247 	andeq	r0, r0, r7, asr #4
 a60:	02131c01 	andseq	r1, r3, #256	; 0x100
 a64:	91020000 	mrsls	r0, (UNDEF: 2)
 a68:	00690a70 	rsbeq	r0, r9, r0, ror sl
 a6c:	02131e01 	andseq	r1, r3, #16
 a70:	91020000 	mrsls	r0, (UNDEF: 2)
 a74:	006a0a78 	rsbeq	r0, sl, r8, ror sl
 a78:	02131e01 	andseq	r1, r3, #16
 a7c:	91020000 	mrsls	r0, (UNDEF: 2)
 a80:	040b0074 	streq	r0, [fp], #-116	; 0x74
 a84:	746e6905 	strbtvc	r6, [lr], #-2309	; 0x905
 a88:	75010c00 	strvc	r0, [r1, #-3072]	; 0xc00
 a8c:	01000002 	tsteq	r0, r2
 a90:	0213012d 	andseq	r0, r3, #1073741835	; 0x4000000b
 a94:	98780000 	ldmdals	r8!, {}^	; <UNPREDICTABLE>
 a98:	9adc4000 	bls	ff710aa0 <dst+0xbf70609c>
 a9c:	02ac4000 	adceq	r4, ip, #0
 aa0:	03050000 	movweq	r0, #20480	; 0x5000
 aa4:	490a0000 	stmdbmi	sl, {}	; <UNPREDICTABLE>
 aa8:	32010044 	andcc	r0, r1, #68	; 0x44
 aac:	00000305 	andeq	r0, r0, r5, lsl #6
 ab0:	0d6c9102 	stfeqp	f1, [ip, #-8]!
 ab4:	00000329 	andeq	r0, r0, r9, lsr #6
 ab8:	031c3201 	tsteq	ip, #268435456	; 0x10000000
 abc:	91020000 	mrsls	r0, (UNDEF: 2)
 ac0:	656b0e64 	strbvs	r0, [fp, #-3684]!	; 0xe64
 ac4:	33010079 	movwcc	r0, #4217	; 0x1079
 ac8:	00000315 	andeq	r0, r0, r5, lsl r3
 acc:	7465720a 	strbtvc	r7, [r5], #-522	; 0x20a
 ad0:	15340100 	ldrne	r0, [r4, #-256]!	; 0x100
 ad4:	02000003 	andeq	r0, r0, #3
 ad8:	3c0f7391 	stccc	3, cr7, [pc], {145}	; 0x91
 adc:	01000002 	tsteq	r0, r2
 ae0:	00002535 	andeq	r2, r0, r5, lsr r5
 ae4:	00690a00 	rsbeq	r0, r9, r0, lsl #20
 ae8:	032c3601 	teqeq	ip, #1048576	; 0x100000
 aec:	91020000 	mrsls	r0, (UNDEF: 2)
 af0:	97011060 	strls	r1, [r1, -r0, rrx]
 af4:	01000002 	tsteq	r0, r2
 af8:	0002133e 	andeq	r1, r2, lr, lsr r3
 afc:	02950100 	addseq	r0, r5, #0
 b00:	00110000 	andseq	r0, r1, r0
 b04:	02e50110 	rsceq	r0, r5, #4
 b08:	43010000 	movwmi	r0, #4096	; 0x1000
 b0c:	00000213 	andeq	r0, r0, r3, lsl r2
 b10:	0002a801 	andeq	sl, r2, r1, lsl #16
 b14:	10001100 	andne	r1, r0, r0, lsl #2
 b18:	00014601 	andeq	r4, r1, r1, lsl #12
 b1c:	13450100 	movtne	r0, #20736	; 0x5100
 b20:	01000002 	tsteq	r0, r2
 b24:	000002bb 			; <UNDEFINED> instruction: 0x000002bb
 b28:	38120011 	ldmdacc	r2, {r0, r4}
 b2c:	9c400099 	mcrrls	0, 9, r0, r0, cr9
 b30:	1040009a 	umaalne	r0, r0, sl, r0
 b34:	00028e01 	andeq	r8, r2, r1, lsl #28
 b38:	13560100 	cmpne	r6, #0
 b3c:	01000002 	tsteq	r0, r2
 b40:	000002d7 	ldrdeq	r0, [r0], -r7
 b44:	01100011 	tsteq	r0, r1, lsl r0
 b48:	000002bd 			; <UNDEFINED> instruction: 0x000002bd
 b4c:	02135801 	andseq	r5, r3, #65536	; 0x10000
 b50:	ea010000 	b	40b58 <_start-0x3ffc74a8>
 b54:	11000002 	tstne	r0, r2
 b58:	99681200 	stmdbls	r8!, {r9, ip}^
 b5c:	99944000 	ldmibls	r4, {lr}
 b60:	01134000 	tsteq	r3, r0
 b64:	000001b8 			; <UNDEFINED> instruction: 0x000001b8
 b68:	02135101 	andseq	r5, r3, #1073741824	; 0x40000000
 b6c:	11010000 	mrsne	r0, (UNDEF: 1)
 b70:	00000000 	andeq	r0, r0, r0
 b74:	00031514 	andeq	r1, r3, r4, lsl r5
 b78:	00031500 	andeq	r1, r3, r0, lsl #10
 b7c:	01b81500 			; <UNDEFINED> instruction: 0x01b81500
 b80:	00030000 	andeq	r0, r3, r0
 b84:	7b080102 	blvc	200f94 <_start-0x3fe0706c>
 b88:	14000000 	strne	r0, [r0]
 b8c:	00000315 	andeq	r0, r0, r5, lsl r3
 b90:	0000032c 	andeq	r0, r0, ip, lsr #6
 b94:	0001b815 	andeq	fp, r1, r5, lsl r8
 b98:	16000700 	strne	r0, [r0], -r0, lsl #14
 b9c:	00000213 	andeq	r0, r0, r3, lsl r2
 ba0:	63727317 	cmnvs	r2, #1543503872	; 0x5c000000
 ba4:	1c0d0100 	stfnes	f0, [sp], {0}
 ba8:	01000003 	tsteq	r0, r3
 bac:	03151401 	tsteq	r5, #16777216	; 0x1000000
 bb0:	034e0000 	movteq	r0, #57344	; 0xe000
 bb4:	b8150000 	ldmdalt	r5, {}	; <UNPREDICTABLE>
 bb8:	13000001 	movwne	r0, #1
 bbc:	73641700 	cmnvc	r4, #0
 bc0:	0e010074 	mcreq	0, 0, r0, cr1, cr4, {3}
 bc4:	0000033e 	andeq	r0, r0, lr, lsr r3
 bc8:	73180101 	tstvc	r8, #1073741824	; 0x40000000
 bcc:	01006372 	tsteq	r0, r2, ror r3
 bd0:	00031c0d 	andeq	r1, r3, sp, lsl #24
 bd4:	03050100 	movweq	r0, #20736	; 0x5100
 bd8:	4000a9fc 	strdmi	sl, [r0], -ip
 bdc:	74736418 	ldrbtvc	r6, [r3], #-1048	; 0x418
 be0:	3e0e0100 	adfcce	f0, f6, f0
 be4:	01000003 	tsteq	r0, r3
 be8:	aa040305 	bge	101804 <_start-0x3ff067fc>
 bec:	5b004000 	blpl	10bf4 <_start-0x3fff740c>
 bf0:	02000003 	andeq	r0, r0, #3
 bf4:	0003e200 	andeq	lr, r3, r0, lsl #4
 bf8:	8e010400 	cfcpyshi	mvf0, mvf1
 bfc:	01000000 	mrseq	r0, (UNDEF: 0)
 c00:	00000318 	andeq	r0, r0, r8, lsl r3
 c04:	00000041 	andeq	r0, r0, r1, asr #32
 c08:	40009adc 	ldrdmi	r9, [r0], -ip
 c0c:	4000a034 	andmi	sl, r0, r4, lsr r0
 c10:	000005a9 	andeq	r0, r0, r9, lsr #11
 c14:	9f070402 	svcls	0x00070402
 c18:	03000000 	movweq	r0, #0
 c1c:	04e40230 	strbteq	r0, [r4], #560	; 0x230
 c20:	000000ea 	andeq	r0, r0, sl, ror #1
 c24:	0002d904 	andeq	sp, r2, r4, lsl #18
 c28:	04e50200 	strbteq	r0, [r5], #512	; 0x200
 c2c:	00000025 	andeq	r0, r0, r5, lsr #32
 c30:	04002302 	streq	r2, [r0], #-770	; 0x302
 c34:	0000026c 	andeq	r0, r0, ip, ror #4
 c38:	2504e602 	strcs	lr, [r4, #-1538]	; 0x602
 c3c:	02000000 	andeq	r0, r0, #0
 c40:	5c040423 	cfstrspl	mvf0, [r4], {35}	; 0x23
 c44:	02000002 	andeq	r0, r0, #2
 c48:	002504e7 	eoreq	r0, r5, r7, ror #9
 c4c:	23020000 	movwcs	r0, #8192	; 0x2000
 c50:	021a0408 	andseq	r0, sl, #134217728	; 0x8000000
 c54:	e8020000 	stmda	r2, {}	; <UNPREDICTABLE>
 c58:	00002504 	andeq	r2, r0, r4, lsl #10
 c5c:	0c230200 	sfmeq	f0, 4, [r3]
 c60:	00027a04 	andeq	r7, r2, r4, lsl #20
 c64:	04e90200 	strbteq	r0, [r9], #512	; 0x200
 c68:	00000025 	andeq	r0, r0, r5, lsr #32
 c6c:	04102302 	ldreq	r2, [r0], #-770	; 0x302
 c70:	000002a2 	andeq	r0, r0, r2, lsr #5
 c74:	2504ea02 	strcs	lr, [r4, #-2562]	; 0xa02
 c78:	02000000 	andeq	r0, r0, #0
 c7c:	30041423 	andcc	r1, r4, r3, lsr #8
 c80:	02000002 	andeq	r0, r0, #2
 c84:	002504eb 	eoreq	r0, r5, fp, ror #9
 c88:	23020000 	movwcs	r0, #8192	; 0x2000
 c8c:	02ee0418 	rsceq	r0, lr, #402653184	; 0x18000000
 c90:	ec020000 	stc	0, cr0, [r2], {0}
 c94:	00002504 	andeq	r2, r0, r4, lsl #10
 c98:	1c230200 	sfmne	f0, 4, [r3]
 c9c:	00022104 	andeq	r2, r2, r4, lsl #2
 ca0:	04ed0200 	strbteq	r0, [sp], #512	; 0x200
 ca4:	00000025 	andeq	r0, r0, r5, lsr #32
 ca8:	04202302 	strteq	r2, [r0], #-770	; 0x302
 cac:	000002ad 	andeq	r0, r0, sp, lsr #5
 cb0:	2504ee02 	strcs	lr, [r4, #-3586]	; 0xe02
 cb4:	02000000 	andeq	r0, r0, #0
 cb8:	85042423 	strhi	r2, [r4, #-1059]	; 0x423
 cbc:	02000002 	andeq	r0, r0, #2
 cc0:	002504ef 	eoreq	r0, r5, pc, ror #9
 cc4:	23020000 	movwcs	r0, #8192	; 0x2000
 cc8:	02c90428 	sbceq	r0, r9, #671088640	; 0x28000000
 ccc:	f0020000 			; <UNDEFINED> instruction: 0xf0020000
 cd0:	00002504 	andeq	r2, r0, r4, lsl #10
 cd4:	2c230200 	sfmcs	f0, 4, [r3]
 cd8:	02570500 	subseq	r0, r7, #0
 cdc:	f1020000 	cps	#0
 ce0:	00002c04 	andeq	r2, r0, r4, lsl #24
 ce4:	07040200 	streq	r0, [r4, -r0, lsl #4]
 ce8:	0000009a 	muleq	r0, sl, r0
 cec:	033d0106 	teqeq	sp, #-2147483647	; 0x80000001
 cf0:	04010000 	streq	r0, [r1]
 cf4:	009adc01 	addseq	sp, sl, r1, lsl #24
 cf8:	009b4c40 	addseq	r4, fp, r0, asr #24
 cfc:	0002d840 	andeq	sp, r2, r0, asr #16
 d00:	00013d00 	andeq	r3, r1, r0, lsl #26
 d04:	03430700 	movteq	r0, #14080	; 0x3700
 d08:	04010000 	streq	r0, [r1]
 d0c:	0000013d 	andeq	r0, r0, sp, lsr r1
 d10:	08709102 	ldmdaeq	r0!, {r1, r8, ip, pc}^
 d14:	06010069 	streq	r0, [r1], -r9, rrx
 d18:	00000144 	andeq	r0, r0, r4, asr #2
 d1c:	08789102 	ldmdaeq	r8!, {r1, r8, ip, pc}^
 d20:	0601006a 	streq	r0, [r1], -sl, rrx
 d24:	00000144 	andeq	r0, r0, r4, asr #2
 d28:	00749102 	rsbseq	r9, r4, r2, lsl #2
 d2c:	69050409 	stmdbvs	r5, {r0, r3, sl}
 d30:	0a00746e 	beq	1def0 <_start-0x3ffea110>
 d34:	0000013d 	andeq	r0, r0, sp, lsr r1
 d38:	0360010b 	cmneq	r0, #-1073741822	; 0xc0000002
 d3c:	0f010000 	svceq	0x00010000
 d40:	009b4c01 	addseq	r4, fp, r1, lsl #24
 d44:	009b8040 	addseq	r8, fp, r0, asr #32
 d48:	00030440 	andeq	r0, r3, r0, asr #8
 d4c:	fa010b00 	blx	43954 <_start-0x3ffc46ac>
 d50:	01000002 	tsteq	r0, r2
 d54:	9b800118 	blls	fe0011bc <dst+0xbdff67b8>
 d58:	9bb44000 	blls	fed10d60 <dst+0xbed0635c>
 d5c:	03304000 	teqeq	r0, #0
 d60:	01060000 	mrseq	r0, (UNDEF: 6)
 d64:	0000034e 	andeq	r0, r0, lr, asr #6
 d68:	b4012101 	strlt	r2, [r1], #-257	; 0x101
 d6c:	2c40009b 	mcrrcs	0, 9, r0, r0, cr11
 d70:	5c40009c 	mcrrpl	0, 9, r0, r0, cr12
 d74:	9b000003 	blls	d88 <_start-0x40007278>
 d78:	07000001 	streq	r0, [r0, -r1]
 d7c:	0000018a 	andeq	r0, r0, sl, lsl #3
 d80:	019b2101 	orrseq	r2, fp, r1, lsl #2
 d84:	91020000 	mrsls	r0, (UNDEF: 2)
 d88:	01020074 	tsteq	r2, r4, ror r0
 d8c:	00007b08 	andeq	r7, r0, r8, lsl #22
 d90:	87010c00 	strhi	r0, [r1, -r0, lsl #24]
 d94:	01000003 	tsteq	r0, r3
 d98:	00019b2c 	andeq	r9, r1, ip, lsr #22
 d9c:	009c2c00 	addseq	r2, ip, r0, lsl #24
 da0:	009c9440 	addseq	r9, ip, r0, asr #8
 da4:	00038840 	andeq	r8, r3, r0, asr #16
 da8:	0001cd00 	andeq	ip, r1, r0, lsl #26
 dac:	018a0d00 	orreq	r0, sl, r0, lsl #26
 db0:	2e010000 	cdpcs	0, 0, cr0, cr1, cr0, {0}
 db4:	0000019b 	muleq	r0, fp, r1
 db8:	00779102 	rsbseq	r9, r7, r2, lsl #2
 dbc:	0297010b 	addseq	r0, r7, #-1073741822	; 0xc0000002
 dc0:	39010000 	stmdbcc	r1, {}	; <UNPREDICTABLE>
 dc4:	009c9401 	addseq	r9, ip, r1, lsl #8
 dc8:	009cdc40 	addseq	sp, ip, r0, asr #24
 dcc:	0003b440 	andeq	fp, r3, r0, asr #8
 dd0:	a4010e00 	strge	r0, [r1], #-3584	; 0xe00
 dd4:	01000003 	tsteq	r0, r3
 dd8:	009cdc41 	addseq	sp, ip, r1, asr #24
 ddc:	009d0440 	addseq	r0, sp, r0, asr #8
 de0:	0003e040 	andeq	lr, r3, r0, asr #32
 de4:	96010e00 	strls	r0, [r1], -r0, lsl #28
 de8:	01000003 	tsteq	r0, r3
 dec:	009d044a 	addseq	r0, sp, sl, asr #8
 df0:	009d2c40 	addseq	r2, sp, r0, asr #24
 df4:	00040c40 	andeq	r0, r4, r0, asr #24
 df8:	77010600 	strvc	r0, [r1, -r0, lsl #12]
 dfc:	01000003 	tsteq	r0, r3
 e00:	9d2c0155 	stflss	f0, [ip, #-340]!	; 0xfffffeac
 e04:	9d904000 	ldcls	0, cr4, [r0]
 e08:	04384000 	ldrteq	r4, [r8]
 e0c:	024e0000 	subeq	r0, lr, #0
 e10:	49070000 	stmdbmi	r7, {}	; <UNPREDICTABLE>
 e14:	01000003 	tsteq	r0, r3
 e18:	00019b55 	andeq	r9, r1, r5, asr fp
 e1c:	74910200 	ldrvc	r0, [r1], #512	; 0x200
 e20:	00039107 	andeq	r9, r3, r7, lsl #2
 e24:	9b550100 	blls	154122c <_start-0x3eac6dd4>
 e28:	02000001 	andeq	r0, r0, #1
 e2c:	8a077091 	bhi	1dd078 <_start-0x3fe2af88>
 e30:	01000001 	tsteq	r0, r1
 e34:	00019b55 	andeq	r9, r1, r5, asr fp
 e38:	6c910200 	lfmvs	f0, 4, [r1], {0}
 e3c:	2e010f00 	cdpcs	15, 0, cr0, cr1, cr0, {0}
 e40:	01000003 	tsteq	r0, r3
 e44:	019b0166 	orrseq	r0, fp, r6, ror #2
 e48:	9d900000 	ldcls	0, cr0, [r0]
 e4c:	9de04000 	stclls	0, cr4, [r0]
 e50:	04644000 	strbteq	r4, [r4]
 e54:	02880000 	addeq	r0, r8, #0
 e58:	72070000 	andvc	r0, r7, #0
 e5c:	01000003 	tsteq	r0, r3
 e60:	00019b66 	andeq	r9, r1, r6, ror #22
 e64:	70910200 	addsvc	r0, r1, r0, lsl #4
 e68:	74657208 	strbtvc	r7, [r5], #-520	; 0x208
 e6c:	9b680100 	blls	1a01274 <_start-0x3e606d8c>
 e70:	02000001 	andeq	r0, r0, #1
 e74:	06007791 			; <UNDEFINED> instruction: 0x06007791
 e78:	00030801 	andeq	r0, r3, r1, lsl #16
 e7c:	01780100 	cmneq	r8, r0, lsl #2
 e80:	40009de0 	andmi	r9, r0, r0, ror #27
 e84:	40009e30 	andmi	r9, r0, r0, lsr lr
 e88:	00000490 	muleq	r0, r0, r4
 e8c:	000002be 			; <UNDEFINED> instruction: 0x000002be
 e90:	00034907 	andeq	r4, r3, r7, lsl #18
 e94:	9b780100 	blls	1e0129c <_start-0x3e206d64>
 e98:	02000001 	andeq	r0, r0, #1
 e9c:	8a077491 	bhi	1de0e8 <_start-0x3fe29f18>
 ea0:	01000001 	tsteq	r0, r1
 ea4:	00019b78 	andeq	r9, r1, r8, ror fp
 ea8:	70910200 	addsvc	r0, r1, r0, lsl #4
 eac:	e5010b00 	str	r0, [r1, #-2816]	; 0xb00
 eb0:	01000002 	tsteq	r0, r2
 eb4:	9e300181 	rsflsd	f0, f0, f1
 eb8:	9eac4000 	cdpls	0, 10, cr4, cr12, cr0, {0}
 ebc:	04bc4000 	ldrteq	r4, [ip]
 ec0:	01060000 	mrseq	r0, (UNDEF: 6)
 ec4:	0000028e 	andeq	r0, r0, lr, lsl #5
 ec8:	ac019701 	stcge	7, cr9, [r1], {1}
 ecc:	4c40009e 	mcrrmi	0, 9, r0, r0, cr14
 ed0:	e840009f 	stmda	r0, {r0, r1, r2, r3, r4, r7}^
 ed4:	07000004 	streq	r0, [r0, -r4]
 ed8:	07000003 	streq	r0, [r0, -r3]
 edc:	00000358 	andeq	r0, r0, r8, asr r3
 ee0:	03079701 	movweq	r9, #30465	; 0x7701
 ee4:	91020000 	mrsls	r0, (UNDEF: 2)
 ee8:	00690870 	rsbeq	r0, r9, r0, ror r8
 eec:	019b9901 	orrseq	r9, fp, r1, lsl #18
 ef0:	91020000 	mrsls	r0, (UNDEF: 2)
 ef4:	04100077 	ldreq	r0, [r0], #-119	; 0x77
 ef8:	0000019b 	muleq	r0, fp, r1
 efc:	02bd0111 	adcseq	r0, sp, #1073741828	; 0x40000004
 f00:	a7010000 	strge	r0, [r1, -r0]
 f04:	00019b01 	andeq	r9, r1, r1, lsl #22
 f08:	009f4c00 	addseq	r4, pc, r0, lsl #24
 f0c:	00a03440 	adceq	r3, r0, r0, asr #8
 f10:	00051440 	andeq	r1, r5, r0, asr #8
 f14:	03260700 	teqeq	r6, #0
 f18:	a7010000 	strge	r0, [r1, -r0]
 f1c:	00000307 	andeq	r0, r0, r7, lsl #6
 f20:	086c9102 	stmdaeq	ip!, {r1, r8, ip, pc}^
 f24:	a9010069 	stmdbge	r1, {r0, r3, r5, r6}
 f28:	0000019b 	muleq	r0, fp, r1
 f2c:	0d739102 	ldfeqp	f1, [r3, #-8]!
 f30:	0000036d 	andeq	r0, r0, sp, ror #6
 f34:	019ba901 	orrseq	sl, fp, r1, lsl #18
 f38:	91020000 	mrsls	r0, (UNDEF: 2)
 f3c:	46011272 			; <UNDEFINED> instruction: 0x46011272
 f40:	01000001 	tsteq	r0, r1
 f44:	00013dab 	andeq	r3, r1, fp, lsr #27
 f48:	00130100 	andseq	r0, r3, r0, lsl #2
	...

Disassembly of section .debug_abbrev:

00000000 <.debug_abbrev>:
   0:	10001101 	andne	r1, r0, r1, lsl #2
   4:	12011106 	andne	r1, r1, #-2147483647	; 0x80000001
   8:	1b080301 	blne	200c14 <_start-0x3fe073ec>
   c:	13082508 	movwne	r2, #34056	; 0x8508
  10:	00000005 	andeq	r0, r0, r5
  14:	10001101 	andne	r1, r0, r1, lsl #2
  18:	12011106 	andne	r1, r1, #-2147483647	; 0x80000001
  1c:	1b080301 	blne	200c28 <_start-0x3fe073d8>
  20:	13082508 	movwne	r2, #34056	; 0x8508
  24:	00000005 	andeq	r0, r0, r5
  28:	25011101 	strcs	r1, [r1, #-257]	; 0x101
  2c:	030b130e 	movweq	r1, #45838	; 0xb30e
  30:	110e1b0e 	tstne	lr, lr, lsl #22
  34:	10011201 	andne	r1, r1, r1, lsl #4
  38:	02000006 	andeq	r0, r0, #6
  3c:	0e030016 	mcreq	0, 0, r0, cr3, cr6, {0}
  40:	0b3b0b3a 	bleq	ec2d30 <_start-0x3f1452d0>
  44:	00001349 	andeq	r1, r0, r9, asr #6
  48:	0b000f03 	bleq	3c5c <_start-0x400043a4>
  4c:	000e030b 	andeq	r0, lr, fp, lsl #6
  50:	012e0400 	teqeq	lr, r0, lsl #8
  54:	0b3a0e03 	bleq	e83868 <_start-0x3f184798>
  58:	0c270b3b 	stceq	11, cr0, [r7], #-236	; 0xffffff14
  5c:	01111349 	tsteq	r1, r9, asr #6
  60:	06400112 			; <UNDEFINED> instruction: 0x06400112
  64:	00001301 	andeq	r1, r0, r1, lsl #6
  68:	03000505 	movweq	r0, #1285	; 0x505
  6c:	3b0b3a08 	blcc	2ce894 <_start-0x3fd3976c>
  70:	0213490b 	andseq	r4, r3, #180224	; 0x2c000
  74:	0600000a 	streq	r0, [r0], -sl
  78:	0b0b0024 	bleq	2c0110 <_start-0x3fd47ef0>
  7c:	0e030b3e 	vmoveq.16	d3[0], r0
  80:	2e070000 	cdpcs	0, 0, cr0, cr7, cr0, {0}
  84:	030c3f01 	movweq	r3, #52993	; 0xcf01
  88:	3b0b3a0e 	blcc	2ce8c8 <_start-0x3fd39738>
  8c:	490c270b 	stmdbmi	ip, {r0, r1, r3, r8, r9, sl, sp}
  90:	12011113 	andne	r1, r1, #-1073741820	; 0xc0000004
  94:	01064001 	tsteq	r6, r1
  98:	08000013 	stmdaeq	r0, {r0, r1, r4}
  9c:	0e030005 	cdpeq	0, 0, cr0, cr3, cr5, {0}
  a0:	0b3b0b3a 	bleq	ec2d90 <_start-0x3f145270>
  a4:	0a021349 	beq	84dd0 <_start-0x3ff83230>
  a8:	34090000 	strcc	r0, [r9]
  ac:	3a0e0300 	bcc	380cb4 <_start-0x3fc8734c>
  b0:	490b3b0b 	stmdbmi	fp, {r0, r1, r3, r8, r9, fp, ip, sp}
  b4:	000a0213 	andeq	r0, sl, r3, lsl r2
  b8:	000f0a00 	andeq	r0, pc, r0, lsl #20
  bc:	13490b0b 	movtne	r0, #39691	; 0x9b0b
  c0:	260b0000 	strcs	r0, [fp], -r0
  c4:	00134900 	andseq	r4, r3, r0, lsl #18
  c8:	00340c00 	eorseq	r0, r4, r0, lsl #24
  cc:	0b3a0803 	bleq	e820e0 <_start-0x3f185f20>
  d0:	13490b3b 	movtne	r0, #39739	; 0x9b3b
  d4:	00000a02 	andeq	r0, r0, r2, lsl #20
  d8:	0b00240d 	bleq	9114 <_start-0x3fffeeec>
  dc:	030b3e0b 	movweq	r3, #48651	; 0xbe0b
  e0:	0e000008 	cdpeq	0, 0, cr0, cr0, cr8, {0}
  e4:	0111010b 	tsteq	r1, fp, lsl #2
  e8:	00000112 	andeq	r0, r0, r2, lsl r1
  ec:	4901010f 	stmdbmi	r1, {r0, r1, r2, r3, r8}
  f0:	00130113 	andseq	r0, r3, r3, lsl r1
  f4:	00211000 	eoreq	r1, r1, r0
  f8:	0b2f1349 	bleq	bc4e24 <_start-0x3f4431dc>
  fc:	0a110000 	beq	440104 <_start-0x3fbc7efc>
 100:	3a0e0300 	bcc	380d08 <_start-0x3fc872f8>
 104:	110b3b0b 	tstne	fp, fp, lsl #22
 108:	12000001 	andne	r0, r0, #1
 10c:	0111010b 	tsteq	r1, fp, lsl #2
 110:	13010112 	movwne	r0, #4370	; 0x1112
 114:	34130000 	ldrcc	r0, [r3]
 118:	3a080300 	bcc	200d20 <_start-0x3fe072e0>
 11c:	49053b0b 	stmdbmi	r5, {r0, r1, r3, r8, r9, fp, ip, sp}
 120:	000a0213 	andeq	r0, sl, r3, lsl r2
 124:	012e1400 	teqeq	lr, r0, lsl #8
 128:	0e030c3f 	mcreq	12, 0, r0, cr3, cr15, {1}
 12c:	053b0b3a 	ldreq	r0, [fp, #-2874]!	; 0xb3a
 130:	13490c27 	movtne	r0, #39975	; 0x9c27
 134:	01120111 	tsteq	r2, r1, lsl r1
 138:	13010640 	movwne	r0, #5696	; 0x1640
 13c:	05150000 	ldreq	r0, [r5]
 140:	3a080300 	bcc	200d48 <_start-0x3fe072b8>
 144:	49053b0b 	stmdbmi	r5, {r0, r1, r3, r8, r9, fp, ip, sp}
 148:	000a0213 	andeq	r0, sl, r3, lsl r2
 14c:	00181600 	andseq	r1, r8, r0, lsl #12
 150:	34170000 	ldrcc	r0, [r7]
 154:	3a0e0300 	bcc	380d5c <_start-0x3fc872a4>
 158:	49053b0b 	stmdbmi	r5, {r0, r1, r3, r8, r9, fp, ip, sp}
 15c:	000a0213 	andeq	r0, sl, r3, lsl r2
 160:	012e1800 	teqeq	lr, r0, lsl #16
 164:	0e030c3f 	mcreq	12, 0, r0, cr3, cr15, {1}
 168:	053b0b3a 	ldreq	r0, [fp, #-2874]!	; 0xb3a
 16c:	01110c27 	tsteq	r1, r7, lsr #24
 170:	06400112 			; <UNDEFINED> instruction: 0x06400112
 174:	00001301 	andeq	r1, r0, r1, lsl #6
 178:	03003419 	movweq	r3, #1049	; 0x419
 17c:	3b0b3a0e 	blcc	2ce9bc <_start-0x3fd39644>
 180:	3f13490b 	svccc	0x0013490b
 184:	000c3c0c 	andeq	r3, ip, ip, lsl #24
 188:	00341a00 	eorseq	r1, r4, r0, lsl #20
 18c:	0b3a0e03 	bleq	e839a0 <_start-0x3f184660>
 190:	13490b3b 	movtne	r0, #39739	; 0x9b3b
 194:	0a020c3f 	beq	83298 <_start-0x3ff84d68>
 198:	01000000 	mrseq	r0, (UNDEF: 0)
 19c:	0e250111 	mcreq	1, 1, r0, cr5, cr1, {0}
 1a0:	0e030b13 	vmoveq.32	d3[0], r0
 1a4:	01110e1b 	tsteq	r1, fp, lsl lr
 1a8:	06100112 			; <UNDEFINED> instruction: 0x06100112
 1ac:	24020000 	strcs	r0, [r2]
 1b0:	3e0b0b00 	vmlacc.f64	d0, d11, d0
 1b4:	000e030b 	andeq	r0, lr, fp, lsl #6
 1b8:	01130300 	tsteq	r3, r0, lsl #6
 1bc:	0b3a0b0b 	bleq	e82df0 <_start-0x3f185210>
 1c0:	1301053b 	movwne	r0, #5435	; 0x153b
 1c4:	0d040000 	stceq	0, cr0, [r4]
 1c8:	3a080300 	bcc	200dd0 <_start-0x3fe07230>
 1cc:	49053b0b 	stmdbmi	r5, {r0, r1, r3, r8, r9, fp, ip, sp}
 1d0:	000a3813 	andeq	r3, sl, r3, lsl r8
 1d4:	000d0500 	andeq	r0, sp, r0, lsl #10
 1d8:	0b3a0e03 	bleq	e839ec <_start-0x3f184614>
 1dc:	1349053b 	movtne	r0, #38203	; 0x953b
 1e0:	00000a38 	andeq	r0, r0, r8, lsr sl
 1e4:	03001606 	movweq	r1, #1542	; 0x606
 1e8:	3b0b3a0e 	blcc	2cea28 <_start-0x3fd395d8>
 1ec:	00134905 	andseq	r4, r3, r5, lsl #18
 1f0:	002e0700 	eoreq	r0, lr, r0, lsl #14
 1f4:	0e030c3f 	mcreq	12, 0, r0, cr3, cr15, {1}
 1f8:	0b3b0b3a 	bleq	ec2ee8 <_start-0x3f145118>
 1fc:	01120111 	tsteq	r2, r1, lsl r1
 200:	00000640 	andeq	r0, r0, r0, asr #12
 204:	3f012e08 	svccc	0x00012e08
 208:	3a0e030c 	bcc	380e40 <_start-0x3fc871c0>
 20c:	270b3b0b 	strcs	r3, [fp, -fp, lsl #22]
 210:	1201110c 	andne	r1, r1, #3
 214:	01064001 	tsteq	r6, r1
 218:	09000013 	stmdbeq	r0, {r0, r1, r4}
 21c:	0e030005 	cdpeq	0, 0, cr0, cr3, cr5, {0}
 220:	0b3b0b3a 	bleq	ec2f10 <_start-0x3f1450f0>
 224:	0a021349 	beq	84f50 <_start-0x3ff830b0>
 228:	260a0000 	strcs	r0, [sl], -r0
 22c:	00134900 	andseq	r4, r3, r0, lsl #18
 230:	000f0b00 	andeq	r0, pc, r0, lsl #22
 234:	13490b0b 	movtne	r0, #39691	; 0x9b0b
 238:	2e0c0000 	cdpcs	0, 0, cr0, cr12, cr0, {0}
 23c:	030c3f01 	movweq	r3, #52993	; 0xcf01
 240:	3b0b3a0e 	blcc	2cea80 <_start-0x3fd39580>
 244:	1113490b 	tstne	r3, fp, lsl #18
 248:	40011201 	andmi	r1, r1, r1, lsl #4
 24c:	00130106 	andseq	r0, r3, r6, lsl #2
 250:	00340d00 	eorseq	r0, r4, r0, lsl #26
 254:	0b3a0803 	bleq	e82268 <_start-0x3f185d98>
 258:	13490b3b 	movtne	r0, #39739	; 0x9b3b
 25c:	00000a02 	andeq	r0, r0, r2, lsl #20
 260:	00110100 	andseq	r0, r1, r0, lsl #2
 264:	01110610 	tsteq	r1, r0, lsl r6
 268:	08030112 	stmdaeq	r3, {r1, r4, r8}
 26c:	0825081b 	stmdaeq	r5!, {r0, r1, r3, r4, fp}
 270:	00000513 	andeq	r0, r0, r3, lsl r5
 274:	00110100 	andseq	r0, r1, r0, lsl #2
 278:	01110610 	tsteq	r1, r0, lsl r6
 27c:	08030112 	stmdaeq	r3, {r1, r4, r8}
 280:	0825081b 	stmdaeq	r5!, {r0, r1, r3, r4, fp}
 284:	00000513 	andeq	r0, r0, r3, lsl r5
 288:	01110100 	tsteq	r1, r0, lsl #2
 28c:	0b130e25 	bleq	4c3b28 <_start-0x3fb444d8>
 290:	0e1b0e03 	cdpeq	14, 1, cr0, cr11, cr3, {0}
 294:	01120111 	tsteq	r2, r1, lsl r1
 298:	00000610 	andeq	r0, r0, r0, lsl r6
 29c:	0b002402 	bleq	92ac <_start-0x3fffed54>
 2a0:	030b3e0b 	movweq	r3, #48651	; 0xbe0b
 2a4:	0300000e 	movweq	r0, #14
 2a8:	0b0b0113 	bleq	2c06fc <_start-0x3fd47904>
 2ac:	053b0b3a 	ldreq	r0, [fp, #-2874]!	; 0xb3a
 2b0:	00001301 	andeq	r1, r0, r1, lsl #6
 2b4:	03000d04 	movweq	r0, #3332	; 0xd04
 2b8:	3b0b3a08 	blcc	2ceae0 <_start-0x3fd39520>
 2bc:	38134905 	ldmdacc	r3, {r0, r2, r8, fp, lr}
 2c0:	0500000a 	streq	r0, [r0, #-10]
 2c4:	0e03000d 	cdpeq	0, 0, cr0, cr3, cr13, {0}
 2c8:	053b0b3a 	ldreq	r0, [fp, #-2874]!	; 0xb3a
 2cc:	0a381349 	beq	e04ff8 <_start-0x3f203008>
 2d0:	16060000 	strne	r0, [r6], -r0
 2d4:	3a0e0300 	bcc	380edc <_start-0x3fc87124>
 2d8:	49053b0b 	stmdbmi	r5, {r0, r1, r3, r8, r9, fp, ip, sp}
 2dc:	07000013 	smladeq	r0, r3, r0, r0
 2e0:	0c3f002e 	ldceq	0, cr0, [pc], #-184	; 230 <_start-0x40007dd0>
 2e4:	0b3a0e03 	bleq	e83af8 <_start-0x3f184508>
 2e8:	01110b3b 	tsteq	r1, fp, lsr fp
 2ec:	06400112 			; <UNDEFINED> instruction: 0x06400112
 2f0:	2e080000 	cdpcs	0, 0, cr0, cr8, cr0, {0}
 2f4:	030c3f01 	movweq	r3, #52993	; 0xcf01
 2f8:	3b0b3a0e 	blcc	2ceb38 <_start-0x3fd394c8>
 2fc:	110c270b 	tstne	ip, fp, lsl #14
 300:	40011201 	andmi	r1, r1, r1, lsl #4
 304:	00130106 	andseq	r0, r3, r6, lsl #2
 308:	00050900 	andeq	r0, r5, r0, lsl #18
 30c:	0b3a0e03 	bleq	e83b20 <_start-0x3f1844e0>
 310:	13490b3b 	movtne	r0, #39739	; 0x9b3b
 314:	00000a02 	andeq	r0, r0, r2, lsl #20
 318:	0300340a 	movweq	r3, #1034	; 0x40a
 31c:	3b0b3a08 	blcc	2ceb44 <_start-0x3fd394bc>
 320:	0213490b 	andseq	r4, r3, #180224	; 0x2c000
 324:	0b00000a 	bleq	354 <_start-0x40007cac>
 328:	0b0b0024 	bleq	2c03c0 <_start-0x3fd47c40>
 32c:	08030b3e 	stmdaeq	r3, {r1, r2, r3, r4, r5, r8, r9, fp}
 330:	2e0c0000 	cdpcs	0, 0, cr0, cr12, cr0, {0}
 334:	030c3f01 	movweq	r3, #52993	; 0xcf01
 338:	3b0b3a0e 	blcc	2ceb78 <_start-0x3fd39488>
 33c:	490c270b 	stmdbmi	ip, {r0, r1, r3, r8, r9, sl, sp}
 340:	12011113 	andne	r1, r1, #-1073741820	; 0xc0000004
 344:	01064001 	tsteq	r6, r1
 348:	0d000013 	stceq	0, cr0, [r0, #-76]	; 0xffffffb4
 34c:	0e030034 	mcreq	0, 0, r0, cr3, cr4, {1}
 350:	0b3b0b3a 	bleq	ec3040 <_start-0x3f144fc0>
 354:	0a021349 	beq	85080 <_start-0x3ff82f80>
 358:	340e0000 	strcc	r0, [lr]
 35c:	3a080300 	bcc	200f64 <_start-0x3fe0709c>
 360:	490b3b0b 	stmdbmi	fp, {r0, r1, r3, r8, r9, fp, ip, sp}
 364:	0f000013 	svceq	0x00000013
 368:	0e030034 	mcreq	0, 0, r0, cr3, cr4, {1}
 36c:	0b3b0b3a 	bleq	ec305c <_start-0x3f144fa4>
 370:	00001349 	andeq	r1, r0, r9, asr #6
 374:	3f012e10 	svccc	0x00012e10
 378:	3a0e030c 	bcc	380fb0 <_start-0x3fc87050>
 37c:	490b3b0b 	stmdbmi	fp, {r0, r1, r3, r8, r9, fp, ip, sp}
 380:	010c3c13 	tsteq	ip, r3, lsl ip
 384:	11000013 	tstne	r0, r3, lsl r0
 388:	00000018 	andeq	r0, r0, r8, lsl r0
 38c:	11010b12 	tstne	r1, r2, lsl fp
 390:	00011201 	andeq	r1, r1, r1, lsl #4
 394:	012e1300 	teqeq	lr, r0, lsl #6
 398:	0e030c3f 	mcreq	12, 0, r0, cr3, cr15, {1}
 39c:	0b3b0b3a 	bleq	ec308c <_start-0x3f144f74>
 3a0:	0c3c1349 	ldceq	3, cr1, [ip], #-292	; 0xfffffedc
 3a4:	01140000 	tsteq	r4, r0
 3a8:	01134901 	tsteq	r3, r1, lsl #18
 3ac:	15000013 	strne	r0, [r0, #-19]
 3b0:	13490021 	movtne	r0, #36897	; 0x9021
 3b4:	00000b2f 	andeq	r0, r0, pc, lsr #22
 3b8:	49003516 	stmdbmi	r0, {r1, r2, r4, r8, sl, ip, sp}
 3bc:	17000013 	smladne	r0, r3, r0, r0
 3c0:	08030034 	stmdaeq	r3, {r2, r4, r5}
 3c4:	0b3b0b3a 	bleq	ec30b4 <_start-0x3f144f4c>
 3c8:	0c3f1349 	ldceq	3, cr1, [pc], #-292	; 2ac <_start-0x40007d54>
 3cc:	00000c3c 	andeq	r0, r0, ip, lsr ip
 3d0:	03003418 	movweq	r3, #1048	; 0x418
 3d4:	3b0b3a08 	blcc	2cebfc <_start-0x3fd39404>
 3d8:	3f13490b 	svccc	0x0013490b
 3dc:	000a020c 	andeq	r0, sl, ip, lsl #4
 3e0:	11010000 	mrsne	r0, (UNDEF: 1)
 3e4:	130e2501 	movwne	r2, #58625	; 0xe501
 3e8:	1b0e030b 	blne	38101c <_start-0x3fc86fe4>
 3ec:	1201110e 	andne	r1, r1, #-2147483645	; 0x80000003
 3f0:	00061001 	andeq	r1, r6, r1
 3f4:	00240200 	eoreq	r0, r4, r0, lsl #4
 3f8:	0b3e0b0b 	bleq	f8302c <_start-0x3f084fd4>
 3fc:	00000e03 	andeq	r0, r0, r3, lsl #28
 400:	0b011303 	bleq	45014 <_start-0x3ffc2fec>
 404:	3b0b3a0b 	blcc	2cec38 <_start-0x3fd393c8>
 408:	00130105 	andseq	r0, r3, r5, lsl #2
 40c:	000d0400 	andeq	r0, sp, r0, lsl #8
 410:	0b3a0e03 	bleq	e83c24 <_start-0x3f1843dc>
 414:	1349053b 	movtne	r0, #38203	; 0x953b
 418:	00000a38 	andeq	r0, r0, r8, lsr sl
 41c:	03001605 	movweq	r1, #1541	; 0x605
 420:	3b0b3a0e 	blcc	2cec60 <_start-0x3fd393a0>
 424:	00134905 	andseq	r4, r3, r5, lsl #18
 428:	012e0600 	teqeq	lr, r0, lsl #12
 42c:	0e030c3f 	mcreq	12, 0, r0, cr3, cr15, {1}
 430:	0b3b0b3a 	bleq	ec3120 <_start-0x3f144ee0>
 434:	01110c27 	tsteq	r1, r7, lsr #24
 438:	06400112 			; <UNDEFINED> instruction: 0x06400112
 43c:	00001301 	andeq	r1, r0, r1, lsl #6
 440:	03000507 	movweq	r0, #1287	; 0x507
 444:	3b0b3a0e 	blcc	2cec84 <_start-0x3fd3937c>
 448:	0213490b 	andseq	r4, r3, #180224	; 0x2c000
 44c:	0800000a 	stmdaeq	r0, {r1, r3}
 450:	08030034 	stmdaeq	r3, {r2, r4, r5}
 454:	0b3b0b3a 	bleq	ec3144 <_start-0x3f144ebc>
 458:	0a021349 	beq	85184 <_start-0x3ff82e7c>
 45c:	24090000 	strcs	r0, [r9]
 460:	3e0b0b00 	vmlacc.f64	d0, d11, d0
 464:	0008030b 	andeq	r0, r8, fp, lsl #6
 468:	00350a00 	eorseq	r0, r5, r0, lsl #20
 46c:	00001349 	andeq	r1, r0, r9, asr #6
 470:	3f002e0b 	svccc	0x00002e0b
 474:	3a0e030c 	bcc	3810ac <_start-0x3fc86f54>
 478:	270b3b0b 	strcs	r3, [fp, -fp, lsl #22]
 47c:	1201110c 	andne	r1, r1, #3
 480:	00064001 	andeq	r4, r6, r1
 484:	012e0c00 	teqeq	lr, r0, lsl #24
 488:	0e030c3f 	mcreq	12, 0, r0, cr3, cr15, {1}
 48c:	0b3b0b3a 	bleq	ec317c <_start-0x3f144e84>
 490:	01111349 	tsteq	r1, r9, asr #6
 494:	06400112 			; <UNDEFINED> instruction: 0x06400112
 498:	00001301 	andeq	r1, r0, r1, lsl #6
 49c:	0300340d 	movweq	r3, #1037	; 0x40d
 4a0:	3b0b3a0e 	blcc	2cece0 <_start-0x3fd39320>
 4a4:	0213490b 	andseq	r4, r3, #180224	; 0x2c000
 4a8:	0e00000a 	cdpeq	0, 0, cr0, cr0, cr10, {0}
 4ac:	0c3f002e 	ldceq	0, cr0, [pc], #-184	; 3fc <_start-0x40007c04>
 4b0:	0b3a0e03 	bleq	e83cc4 <_start-0x3f18433c>
 4b4:	01110b3b 	tsteq	r1, fp, lsr fp
 4b8:	06400112 			; <UNDEFINED> instruction: 0x06400112
 4bc:	2e0f0000 	cdpcs	0, 0, cr0, cr15, cr0, {0}
 4c0:	030c3f01 	movweq	r3, #52993	; 0xcf01
 4c4:	3b0b3a0e 	blcc	2ced04 <_start-0x3fd392fc>
 4c8:	490c270b 	stmdbmi	ip, {r0, r1, r3, r8, r9, sl, sp}
 4cc:	12011113 	andne	r1, r1, #-1073741820	; 0xc0000004
 4d0:	01064001 	tsteq	r6, r1
 4d4:	10000013 	andne	r0, r0, r3, lsl r0
 4d8:	0b0b000f 	bleq	2c051c <_start-0x3fd47ae4>
 4dc:	00001349 	andeq	r1, r0, r9, asr #6
 4e0:	3f012e11 	svccc	0x00012e11
 4e4:	3a0e030c 	bcc	38111c <_start-0x3fc86ee4>
 4e8:	270b3b0b 	strcs	r3, [fp, -fp, lsl #22]
 4ec:	1113490c 	tstne	r3, ip, lsl #18
 4f0:	40011201 	andmi	r1, r1, r1, lsl #4
 4f4:	12000006 	andne	r0, r0, #6
 4f8:	0c3f012e 	ldfeqs	f0, [pc], #-184	; 448 <_start-0x40007bb8>
 4fc:	0b3a0e03 	bleq	e83d10 <_start-0x3f1842f0>
 500:	13490b3b 	movtne	r0, #39739	; 0x9b3b
 504:	00000c3c 	andeq	r0, r0, ip, lsr ip
 508:	00001813 	andeq	r1, r0, r3, lsl r8
	...

Disassembly of section .debug_aranges:

00000000 <.debug_aranges>:
   0:	0000001c 	andeq	r0, r0, ip, lsl r0
   4:	00000002 	andeq	r0, r0, r2
   8:	00040000 	andeq	r0, r4, r0
   c:	00000000 	andeq	r0, r0, r0
  10:	40008140 	andmi	r8, r0, r0, asr #2
  14:	00000200 	andeq	r0, r0, r0, lsl #4
	...
  20:	0000001c 	andeq	r0, r0, ip, lsl r0
  24:	005d0002 	subseq	r0, sp, r2
  28:	00040000 	andeq	r0, r4, r0
  2c:	00000000 	andeq	r0, r0, r0
  30:	40008000 	andmi	r8, r0, r0
  34:	00000134 	andeq	r0, r0, r4, lsr r1
	...
  40:	0000001c 	andeq	r0, r0, ip, lsl r0
  44:	00b20002 	adcseq	r0, r2, r2
  48:	00040000 	andeq	r0, r4, r0
  4c:	00000000 	andeq	r0, r0, r0
  50:	40008340 	andmi	r8, r0, r0, asr #6
  54:	000011f4 	strdeq	r1, [r0], -r4
	...
  60:	0000001c 	andeq	r0, r0, ip, lsl r0
  64:	05740002 	ldrbeq	r0, [r4, #-2]!
  68:	00040000 	andeq	r0, r4, r0
  6c:	00000000 	andeq	r0, r0, r0
  70:	40009534 	andmi	r9, r0, r4, lsr r5
  74:	00000154 	andeq	r0, r0, r4, asr r1
	...
  80:	0000001c 	andeq	r0, r0, ip, lsl r0
  84:	07b50002 	ldreq	r0, [r5, r2]!
  88:	00040000 	andeq	r0, r4, r0
  8c:	00000000 	andeq	r0, r0, r0
  90:	40009688 	andmi	r9, r0, r8, lsl #13
  94:	00000094 	muleq	r0, r4, r0
	...
  a0:	0000001c 	andeq	r0, r0, ip, lsl r0
  a4:	08120002 	ldmdaeq	r2, {r1}
  a8:	00040000 	andeq	r0, r4, r0
  ac:	00000000 	andeq	r0, r0, r0
  b0:	4000971c 	andmi	r9, r0, ip, lsl r7
  b4:	000000b0 	strheq	r0, [r0], -r0	; <UNPREDICTABLE>
	...
  c0:	0000001c 	andeq	r0, r0, ip, lsl r0
  c4:	086f0002 	stmdaeq	pc!, {r1}^	; <UNPREDICTABLE>
  c8:	00040000 	andeq	r0, r4, r0
  cc:	00000000 	andeq	r0, r0, r0
  d0:	400097cc 	andmi	r9, r0, ip, asr #15
  d4:	00000310 	andeq	r0, r0, r0, lsl r3
	...
  e0:	0000001c 	andeq	r0, r0, ip, lsl r0
  e4:	0bef0002 	bleq	ffbc00f4 <dst+0xbfbb56f0>
  e8:	00040000 	andeq	r0, r4, r0
  ec:	00000000 	andeq	r0, r0, r0
  f0:	40009adc 	ldrdmi	r9, [r0], -ip
  f4:	00000558 	andeq	r0, r0, r8, asr r5
	...

Disassembly of section .debug_loc:

00000000 <.debug_loc>:
   0:	00000000 	andeq	r0, r0, r0
   4:	00000004 	andeq	r0, r0, r4
   8:	007d0002 	rsbseq	r0, sp, r2
   c:	00000004 	andeq	r0, r0, r4
  10:	00000008 	andeq	r0, r0, r8
  14:	047d0002 	ldrbteq	r0, [sp], #-2
  18:	00000008 	andeq	r0, r0, r8
  1c:	00000050 	andeq	r0, r0, r0, asr r0
  20:	047b0002 	ldrbteq	r0, [fp], #-2
	...
  2c:	00000050 	andeq	r0, r0, r0, asr r0
  30:	00000054 	andeq	r0, r0, r4, asr r0
  34:	007d0002 	rsbseq	r0, sp, r2
  38:	00000054 	andeq	r0, r0, r4, asr r0
  3c:	00000058 	andeq	r0, r0, r8, asr r0
  40:	087d0002 	ldmdaeq	sp!, {r1}^
  44:	00000058 	andeq	r0, r0, r8, asr r0
  48:	000001f8 	strdeq	r0, [r0], -r8
  4c:	047b0002 	ldrbteq	r0, [fp], #-2
	...
  58:	000001f8 	strdeq	r0, [r0], -r8
  5c:	000001fc 	strdeq	r0, [r0], -ip
  60:	007d0002 	rsbseq	r0, sp, r2
  64:	000001fc 	strdeq	r0, [r0], -ip
  68:	00000200 	andeq	r0, r0, r0, lsl #4
  6c:	087d0002 	ldmdaeq	sp!, {r1}^
  70:	00000200 	andeq	r0, r0, r0, lsl #4
  74:	00000268 	andeq	r0, r0, r8, ror #4
  78:	047b0002 	ldrbteq	r0, [fp], #-2
	...
  84:	00000268 	andeq	r0, r0, r8, ror #4
  88:	0000026c 	andeq	r0, r0, ip, ror #4
  8c:	007d0002 	rsbseq	r0, sp, r2
  90:	0000026c 	andeq	r0, r0, ip, ror #4
  94:	00000270 	andeq	r0, r0, r0, ror r2
  98:	047d0002 	ldrbteq	r0, [sp], #-2
  9c:	00000270 	andeq	r0, r0, r0, ror r2
  a0:	000002fc 	strdeq	r0, [r0], -ip
  a4:	047b0002 	ldrbteq	r0, [fp], #-2
	...
  b0:	000002fc 	strdeq	r0, [r0], -ip
  b4:	00000300 	andeq	r0, r0, r0, lsl #6
  b8:	007d0002 	rsbseq	r0, sp, r2
  bc:	00000300 	andeq	r0, r0, r0, lsl #6
  c0:	00000304 	andeq	r0, r0, r4, lsl #6
  c4:	087d0002 	ldmdaeq	sp!, {r1}^
  c8:	00000304 	andeq	r0, r0, r4, lsl #6
  cc:	00000794 	muleq	r0, r4, r7
  d0:	047b0002 	ldrbteq	r0, [fp], #-2
	...
  dc:	00000794 	muleq	r0, r4, r7
  e0:	00000798 	muleq	r0, r8, r7
  e4:	007d0002 	rsbseq	r0, sp, r2
  e8:	00000798 	muleq	r0, r8, r7
  ec:	0000079c 	muleq	r0, ip, r7
  f0:	047d0002 	ldrbteq	r0, [sp], #-2
  f4:	0000079c 	muleq	r0, ip, r7
  f8:	00000814 	andeq	r0, r0, r4, lsl r8
  fc:	047b0002 	ldrbteq	r0, [fp], #-2
	...
 108:	00000814 	andeq	r0, r0, r4, lsl r8
 10c:	00000818 	andeq	r0, r0, r8, lsl r8
 110:	007d0002 	rsbseq	r0, sp, r2
 114:	00000818 	andeq	r0, r0, r8, lsl r8
 118:	0000081c 	andeq	r0, r0, ip, lsl r8
 11c:	087d0002 	ldmdaeq	sp!, {r1}^
 120:	0000081c 	andeq	r0, r0, ip, lsl r8
 124:	0000114c 	andeq	r1, r0, ip, asr #2
 128:	047b0002 	ldrbteq	r0, [fp], #-2
	...
 134:	0000114c 	andeq	r1, r0, ip, asr #2
 138:	00001150 	andeq	r1, r0, r0, asr r1
 13c:	007d0002 	rsbseq	r0, sp, r2
 140:	00001150 	andeq	r1, r0, r0, asr r1
 144:	00001154 	andeq	r1, r0, r4, asr r1
 148:	0c7d0002 	ldcleq	0, cr0, [sp], #-8
 14c:	00001154 	andeq	r1, r0, r4, asr r1
 150:	00001158 	andeq	r1, r0, r8, asr r1
 154:	147d0002 	ldrbtne	r0, [sp], #-2
 158:	00001158 	andeq	r1, r0, r8, asr r1
 15c:	0000119c 	muleq	r0, ip, r1
 160:	107b0002 	rsbsne	r0, fp, r2
	...
 16c:	0000119c 	muleq	r0, ip, r1
 170:	000011a0 	andeq	r1, r0, r0, lsr #3
 174:	007d0002 	rsbseq	r0, sp, r2
 178:	000011a0 	andeq	r1, r0, r0, lsr #3
 17c:	000011a4 	andeq	r1, r0, r4, lsr #3
 180:	107d0002 	rsbsne	r0, sp, r2
 184:	000011a4 	andeq	r1, r0, r4, lsr #3
 188:	000011a8 	andeq	r1, r0, r8, lsr #3
 18c:	187d0002 	ldmdane	sp!, {r1}^
 190:	000011a8 	andeq	r1, r0, r8, lsr #3
 194:	000011f4 	strdeq	r1, [r0], -r4
 198:	147b0002 	ldrbtne	r0, [fp], #-2
	...
 1a8:	00000004 	andeq	r0, r0, r4
 1ac:	007d0002 	rsbseq	r0, sp, r2
 1b0:	00000004 	andeq	r0, r0, r4
 1b4:	00000008 	andeq	r0, r0, r8
 1b8:	047d0002 	ldrbteq	r0, [sp], #-2
 1bc:	00000008 	andeq	r0, r0, r8
 1c0:	00000064 	andeq	r0, r0, r4, rrx
 1c4:	047b0002 	ldrbteq	r0, [fp], #-2
	...
 1d0:	00000064 	andeq	r0, r0, r4, rrx
 1d4:	00000068 	andeq	r0, r0, r8, rrx
 1d8:	007d0002 	rsbseq	r0, sp, r2
 1dc:	00000068 	andeq	r0, r0, r8, rrx
 1e0:	0000006c 	andeq	r0, r0, ip, rrx
 1e4:	087d0002 	ldmdaeq	sp!, {r1}^
 1e8:	0000006c 	andeq	r0, r0, ip, rrx
 1ec:	000000c0 	andeq	r0, r0, r0, asr #1
 1f0:	047b0002 	ldrbteq	r0, [fp], #-2
	...
 1fc:	000000c0 	andeq	r0, r0, r0, asr #1
 200:	000000c4 	andeq	r0, r0, r4, asr #1
 204:	007d0002 	rsbseq	r0, sp, r2
 208:	000000c4 	andeq	r0, r0, r4, asr #1
 20c:	000000c8 	andeq	r0, r0, r8, asr #1
 210:	087d0002 	ldmdaeq	sp!, {r1}^
 214:	000000c8 	andeq	r0, r0, r8, asr #1
 218:	0000010c 	andeq	r0, r0, ip, lsl #2
 21c:	047b0002 	ldrbteq	r0, [fp], #-2
	...
 228:	0000010c 	andeq	r0, r0, ip, lsl #2
 22c:	00000110 	andeq	r0, r0, r0, lsl r1
 230:	007d0002 	rsbseq	r0, sp, r2
 234:	00000110 	andeq	r0, r0, r0, lsl r1
 238:	00000114 	andeq	r0, r0, r4, lsl r1
 23c:	047d0002 	ldrbteq	r0, [sp], #-2
 240:	00000114 	andeq	r0, r0, r4, lsl r1
 244:	00000154 	andeq	r0, r0, r4, asr r1
 248:	047b0002 	ldrbteq	r0, [fp], #-2
	...
 258:	00000004 	andeq	r0, r0, r4
 25c:	007d0002 	rsbseq	r0, sp, r2
 260:	00000004 	andeq	r0, r0, r4
 264:	00000008 	andeq	r0, r0, r8
 268:	047d0002 	ldrbteq	r0, [sp], #-2
 26c:	00000008 	andeq	r0, r0, r8
 270:	00000014 	andeq	r0, r0, r4, lsl r0
 274:	047b0002 	ldrbteq	r0, [fp], #-2
	...
 280:	00000014 	andeq	r0, r0, r4, lsl r0
 284:	00000018 	andeq	r0, r0, r8, lsl r0
 288:	007d0002 	rsbseq	r0, sp, r2
 28c:	00000018 	andeq	r0, r0, r8, lsl r0
 290:	0000001c 	andeq	r0, r0, ip, lsl r0
 294:	047d0002 	ldrbteq	r0, [sp], #-2
 298:	0000001c 	andeq	r0, r0, ip, lsl r0
 29c:	000000ac 	andeq	r0, r0, ip, lsr #1
 2a0:	047b0002 	ldrbteq	r0, [fp], #-2
	...
 2ac:	000000ac 	andeq	r0, r0, ip, lsr #1
 2b0:	000000b0 	strheq	r0, [r0], -r0	; <UNPREDICTABLE>
 2b4:	007d0002 	rsbseq	r0, sp, r2
 2b8:	000000b0 	strheq	r0, [r0], -r0	; <UNPREDICTABLE>
 2bc:	000000b4 	strheq	r0, [r0], -r4
 2c0:	0c7d0002 	ldcleq	0, cr0, [sp], #-8
 2c4:	000000b4 	strheq	r0, [r0], -r4
 2c8:	00000310 	andeq	r0, r0, r0, lsl r3
 2cc:	047b0002 	ldrbteq	r0, [fp], #-2
	...
 2dc:	00000004 	andeq	r0, r0, r4
 2e0:	007d0002 	rsbseq	r0, sp, r2
 2e4:	00000004 	andeq	r0, r0, r4
 2e8:	00000008 	andeq	r0, r0, r8
 2ec:	047d0002 	ldrbteq	r0, [sp], #-2
 2f0:	00000008 	andeq	r0, r0, r8
 2f4:	00000070 	andeq	r0, r0, r0, ror r0
 2f8:	047b0002 	ldrbteq	r0, [fp], #-2
	...
 304:	00000070 	andeq	r0, r0, r0, ror r0
 308:	00000074 	andeq	r0, r0, r4, ror r0
 30c:	007d0002 	rsbseq	r0, sp, r2
 310:	00000074 	andeq	r0, r0, r4, ror r0
 314:	00000078 	andeq	r0, r0, r8, ror r0
 318:	087d0002 	ldmdaeq	sp!, {r1}^
 31c:	00000078 	andeq	r0, r0, r8, ror r0
 320:	000000a4 	andeq	r0, r0, r4, lsr #1
 324:	047b0002 	ldrbteq	r0, [fp], #-2
	...
 330:	000000a4 	andeq	r0, r0, r4, lsr #1
 334:	000000a8 	andeq	r0, r0, r8, lsr #1
 338:	007d0002 	rsbseq	r0, sp, r2
 33c:	000000a8 	andeq	r0, r0, r8, lsr #1
 340:	000000ac 	andeq	r0, r0, ip, lsr #1
 344:	087d0002 	ldmdaeq	sp!, {r1}^
 348:	000000ac 	andeq	r0, r0, ip, lsr #1
 34c:	000000d8 	ldrdeq	r0, [r0], -r8
 350:	047b0002 	ldrbteq	r0, [fp], #-2
	...
 35c:	000000d8 	ldrdeq	r0, [r0], -r8
 360:	000000dc 	ldrdeq	r0, [r0], -ip
 364:	007d0002 	rsbseq	r0, sp, r2
 368:	000000dc 	ldrdeq	r0, [r0], -ip
 36c:	000000e0 	andeq	r0, r0, r0, ror #1
 370:	087d0002 	ldmdaeq	sp!, {r1}^
 374:	000000e0 	andeq	r0, r0, r0, ror #1
 378:	00000150 	andeq	r0, r0, r0, asr r1
 37c:	047b0002 	ldrbteq	r0, [fp], #-2
	...
 388:	00000150 	andeq	r0, r0, r0, asr r1
 38c:	00000154 	andeq	r0, r0, r4, asr r1
 390:	007d0002 	rsbseq	r0, sp, r2
 394:	00000154 	andeq	r0, r0, r4, asr r1
 398:	00000158 	andeq	r0, r0, r8, asr r1
 39c:	087d0002 	ldmdaeq	sp!, {r1}^
 3a0:	00000158 	andeq	r0, r0, r8, asr r1
 3a4:	000001b8 			; <UNDEFINED> instruction: 0x000001b8
 3a8:	047b0002 	ldrbteq	r0, [fp], #-2
	...
 3b4:	000001b8 			; <UNDEFINED> instruction: 0x000001b8
 3b8:	000001bc 			; <UNDEFINED> instruction: 0x000001bc
 3bc:	007d0002 	rsbseq	r0, sp, r2
 3c0:	000001bc 			; <UNDEFINED> instruction: 0x000001bc
 3c4:	000001c0 	andeq	r0, r0, r0, asr #3
 3c8:	087d0002 	ldmdaeq	sp!, {r1}^
 3cc:	000001c0 	andeq	r0, r0, r0, asr #3
 3d0:	00000200 	andeq	r0, r0, r0, lsl #4
 3d4:	047b0002 	ldrbteq	r0, [fp], #-2
	...
 3e0:	00000200 	andeq	r0, r0, r0, lsl #4
 3e4:	00000204 	andeq	r0, r0, r4, lsl #4
 3e8:	007d0002 	rsbseq	r0, sp, r2
 3ec:	00000204 	andeq	r0, r0, r4, lsl #4
 3f0:	00000208 	andeq	r0, r0, r8, lsl #4
 3f4:	087d0002 	ldmdaeq	sp!, {r1}^
 3f8:	00000208 	andeq	r0, r0, r8, lsl #4
 3fc:	00000228 	andeq	r0, r0, r8, lsr #4
 400:	047b0002 	ldrbteq	r0, [fp], #-2
	...
 40c:	00000228 	andeq	r0, r0, r8, lsr #4
 410:	0000022c 	andeq	r0, r0, ip, lsr #4
 414:	007d0002 	rsbseq	r0, sp, r2
 418:	0000022c 	andeq	r0, r0, ip, lsr #4
 41c:	00000230 	andeq	r0, r0, r0, lsr r2
 420:	087d0002 	ldmdaeq	sp!, {r1}^
 424:	00000230 	andeq	r0, r0, r0, lsr r2
 428:	00000250 	andeq	r0, r0, r0, asr r2
 42c:	047b0002 	ldrbteq	r0, [fp], #-2
	...
 438:	00000250 	andeq	r0, r0, r0, asr r2
 43c:	00000254 	andeq	r0, r0, r4, asr r2
 440:	007d0002 	rsbseq	r0, sp, r2
 444:	00000254 	andeq	r0, r0, r4, asr r2
 448:	00000258 	andeq	r0, r0, r8, asr r2
 44c:	087d0002 	ldmdaeq	sp!, {r1}^
 450:	00000258 	andeq	r0, r0, r8, asr r2
 454:	000002b4 			; <UNDEFINED> instruction: 0x000002b4
 458:	047b0002 	ldrbteq	r0, [fp], #-2
	...
 464:	000002b4 			; <UNDEFINED> instruction: 0x000002b4
 468:	000002b8 			; <UNDEFINED> instruction: 0x000002b8
 46c:	007d0002 	rsbseq	r0, sp, r2
 470:	000002b8 			; <UNDEFINED> instruction: 0x000002b8
 474:	000002bc 			; <UNDEFINED> instruction: 0x000002bc
 478:	087d0002 	ldmdaeq	sp!, {r1}^
 47c:	000002bc 			; <UNDEFINED> instruction: 0x000002bc
 480:	00000304 	andeq	r0, r0, r4, lsl #6
 484:	047b0002 	ldrbteq	r0, [fp], #-2
	...
 490:	00000304 	andeq	r0, r0, r4, lsl #6
 494:	00000308 	andeq	r0, r0, r8, lsl #6
 498:	007d0002 	rsbseq	r0, sp, r2
 49c:	00000308 	andeq	r0, r0, r8, lsl #6
 4a0:	0000030c 	andeq	r0, r0, ip, lsl #6
 4a4:	087d0002 	ldmdaeq	sp!, {r1}^
 4a8:	0000030c 	andeq	r0, r0, ip, lsl #6
 4ac:	00000354 	andeq	r0, r0, r4, asr r3
 4b0:	047b0002 	ldrbteq	r0, [fp], #-2
	...
 4bc:	00000354 	andeq	r0, r0, r4, asr r3
 4c0:	00000358 	andeq	r0, r0, r8, asr r3
 4c4:	007d0002 	rsbseq	r0, sp, r2
 4c8:	00000358 	andeq	r0, r0, r8, asr r3
 4cc:	0000035c 	andeq	r0, r0, ip, asr r3
 4d0:	087d0002 	ldmdaeq	sp!, {r1}^
 4d4:	0000035c 	andeq	r0, r0, ip, asr r3
 4d8:	000003d0 	ldrdeq	r0, [r0], -r0	; <UNPREDICTABLE>
 4dc:	047b0002 	ldrbteq	r0, [fp], #-2
	...
 4e8:	000003d0 	ldrdeq	r0, [r0], -r0	; <UNPREDICTABLE>
 4ec:	000003d4 	ldrdeq	r0, [r0], -r4
 4f0:	007d0002 	rsbseq	r0, sp, r2
 4f4:	000003d4 	ldrdeq	r0, [r0], -r4
 4f8:	000003d8 	ldrdeq	r0, [r0], -r8
 4fc:	087d0002 	ldmdaeq	sp!, {r1}^
 500:	000003d8 	ldrdeq	r0, [r0], -r8
 504:	00000470 	andeq	r0, r0, r0, ror r4
 508:	047b0002 	ldrbteq	r0, [fp], #-2
	...
 514:	00000470 	andeq	r0, r0, r0, ror r4
 518:	00000474 	andeq	r0, r0, r4, ror r4
 51c:	007d0002 	rsbseq	r0, sp, r2
 520:	00000474 	andeq	r0, r0, r4, ror r4
 524:	00000478 	andeq	r0, r0, r8, ror r4
 528:	0c7d0002 	ldcleq	0, cr0, [sp], #-8
 52c:	00000478 	andeq	r0, r0, r8, ror r4
 530:	00000558 	andeq	r0, r0, r8, asr r5
 534:	047b0002 	ldrbteq	r0, [fp], #-2
	...

Disassembly of section .debug_str:

00000000 <.debug_str>:
   0:	75625f5f 	strbvc	r5, [r2, #-3935]!	; 0xf5f
   4:	69746c69 	ldmdbvs	r4!, {r0, r3, r5, r6, sl, fp, sp, lr}^
   8:	61765f6e 	cmnvs	r6, lr, ror #30
   c:	73696c5f 	cmnvc	r9, #24320	; 0x5f00
  10:	69730074 	ldmdbvs	r3!, {r2, r4, r5, r6}^
  14:	656c706d 	strbvs	r7, [ip, #-109]!	; 0x6d
  18:	7274735f 	rsbsvc	r7, r4, #2080374785	; 0x7c000001
  1c:	6c756f74 	ldclvs	15, cr6, [r5], #-464	; 0xfffffe30
  20:	6c617600 	stclvs	6, cr7, [r1]
  24:	63006575 	movwvs	r6, #1397	; 0x575
  28:	746e756f 	strbtvc	r7, [lr], #-1391	; 0x56f
  2c:	696b7300 	stmdbvs	fp!, {r8, r9, ip, sp, lr}^
  30:	74615f70 	strbtvc	r5, [r1], #-3952	; 0xf70
  34:	5f00696f 	svcpl	0x0000696f
  38:	756f745f 	strbvc	r7, [pc, #-1119]!	; fffffbe1 <dst+0xbfff51dd>
  3c:	72657070 	rsbvc	r7, r5, #112	; 0x70
  40:	5c3a4400 	cfldrspl	mvf4, [sl]
  44:	7250794d 	subsvc	r7, r0, #1261568	; 0x134000
  48:	6172676f 	cmnvs	r2, pc, ror #14
  4c:	72615c6d 	rsbvc	r5, r1, #27904	; 0x6d00
  50:	34345f6d 	ldrtcc	r5, [r4], #-3949	; 0xf6d
  54:	315c3231 	cmpcc	ip, r1, lsr r2
  58:	50532e33 	subspl	r2, r3, r3, lsr lr
  5c:	41435f49 	cmpmi	r3, r9, asr #30
  60:	5f5f004e 	svcpl	0x005f004e
  64:	63756e67 	cmnvs	r5, #1648	; 0x670
  68:	5f61765f 	svcpl	0x0061765f
  6c:	7473696c 	ldrbtvc	r6, [r3], #-2412	; 0x96c
  70:	65727000 	ldrbvs	r7, [r2]!
  74:	69736963 	ldmdbvs	r3!, {r0, r1, r5, r6, r8, fp, sp, lr}^
  78:	75006e6f 	strvc	r6, [r0, #-3695]	; 0xe6f
  7c:	6769736e 	strbvs	r7, [r9, -lr, ror #6]!
  80:	2064656e 	rsbcs	r6, r4, lr, ror #10
  84:	72616863 	rsbvc	r6, r1, #6488064	; 0x630000
  88:	73616200 	cmnvc	r1, #0
  8c:	4e470065 	cdpmi	0, 4, cr0, cr7, cr5, {3}
  90:	20432055 	subcs	r2, r3, r5, asr r0
  94:	2e362e34 	mrccs	14, 1, r2, cr6, cr4, {1}
  98:	6f6c0032 	svcvs	0x006c0032
  9c:	7520676e 	strvc	r6, [r0, #-1902]!	; 0x76e
  a0:	6769736e 	strbvs	r7, [r9, -lr, ror #6]!
  a4:	2064656e 	rsbcs	r6, r4, lr, ror #10
  a8:	00746e69 	rsbseq	r6, r4, r9, ror #28
  ac:	706d6973 	rsbvc	r6, sp, r3, ror r9
  b0:	735f656c 	cmpvc	pc, #452984832	; 0x1b000000
  b4:	6f747274 	svcvs	0x00747274
  b8:	6f63006c 	svcvs	0x0063006c
  bc:	6e6f6d6d 	cdpvs	13, 6, cr6, cr15, cr13, {3}
  c0:	6372732f 	cmnvs	r2, #-1140850688	; 0xbc000000
  c4:	6972702f 	ldmdbvs	r2!, {r0, r1, r2, r3, r5, ip, sp, lr}^
  c8:	2e66746e 	cdpcs	4, 6, cr7, cr6, cr14, {3}
  cc:	6c660063 	stclvs	0, cr0, [r6], #-396	; 0xfffffe74
  d0:	00736761 	rsbseq	r6, r3, r1, ror #14
  d4:	6c617571 	cfstr64vs	mvdx7, [r1], #-452	; 0xfffffe3c
  d8:	65696669 	strbvs	r6, [r9, #-1641]!	; 0x669
  dc:	65720072 	ldrbvs	r0, [r2, #-114]!	; 0x72
  e0:	746c7573 	strbtvc	r7, [ip], #-1395	; 0x573
  e4:	70657200 	rsbvc	r7, r5, r0, lsl #4
  e8:	00746165 	rsbseq	r6, r4, r5, ror #2
  ec:	6e727473 	mrcvs	4, 3, r7, cr2, cr3, {3}
  f0:	006e656c 	rsbeq	r6, lr, ip, ror #10
  f4:	70646e65 	rsbvc	r6, r4, r5, ror #28
  f8:	74635f00 	strbtvc	r5, [r3], #-3840	; 0xf00
  fc:	00657079 	rsbeq	r7, r5, r9, ror r0
 100:	69676964 	stmdbvs	r7!, {r2, r5, r6, r8, fp, sp, lr}^
 104:	70007374 	andvc	r7, r0, r4, ror r3
 108:	746e6972 	strbtvc	r6, [lr], #-2418	; 0x972
 10c:	66667562 	strbtvs	r7, [r6], -r2, ror #10
 110:	66007265 	strvs	r7, [r0], -r5, ror #4
 114:	646c6569 	strbtvs	r6, [ip], #-1385	; 0x569
 118:	6469775f 	strbtvs	r7, [r9], #-1887	; 0x75f
 11c:	61006874 	tstvs	r0, r4, ror r8
 120:	00736772 	rsbseq	r6, r3, r2, ror r7
 124:	626d756e 	rsbvs	r7, sp, #461373440	; 0x1b800000
 128:	6c007265 	sfmvs	f7, 4, [r0], {101}	; 0x65
 12c:	20676e6f 	rsbcs	r6, r7, pc, ror #28
 130:	00746e69 	rsbseq	r6, r4, r9, ror #28
 134:	6e676973 	mcrvs	9, 3, r6, cr7, cr3, {3}
 138:	725f5f00 	subsvc	r5, pc, #0
 13c:	73007365 	movwvc	r7, #869	; 0x365
 140:	00657a69 	rsbeq	r7, r5, r9, ror #20
 144:	72707376 	rsbsvc	r7, r0, #-671088639	; 0xd8000001
 148:	66746e69 	ldrbtvs	r6, [r4], -r9, ror #28
 14c:	72617500 	rsbvc	r7, r1, #0
 150:	55003274 	strpl	r3, [r0, #-628]	; 0x274
 154:	50544e49 	subspl	r4, r4, r9, asr #28
 158:	49550032 	ldmdbmi	r5, {r1, r4, r5}^
 15c:	5053544e 	subspl	r5, r3, lr, asr #8
 160:	42550032 	subsmi	r0, r5, #50	; 0x32
 164:	56494452 			; <UNDEFINED> instruction: 0x56494452
 168:	73700032 	cmnvc	r0, #50	; 0x32
 16c:	55007274 	strpl	r7, [r0, #-628]	; 0x274
 170:	41545346 	cmpmi	r4, r6, asr #6
 174:	55003254 	strpl	r3, [r0, #-596]	; 0x254
 178:	54535254 	ldrbpl	r5, [r3], #-596	; 0x254
 17c:	00325441 	eorseq	r5, r2, r1, asr #8
 180:	74726175 	ldrbtvc	r6, [r2], #-373	; 0x175
 184:	696e695f 	stmdbvs	lr!, {r0, r1, r2, r3, r4, r6, r8, fp, sp, lr}^
 188:	61640074 	smcvs	16388	; 0x4004
 18c:	55006174 	strpl	r6, [r0, #-372]	; 0x174
 190:	4e4f4346 	cdpmi	3, 4, cr4, cr15, cr6, {2}
 194:	54550032 	ldrbpl	r0, [r5], #-50	; 0x32
 198:	00324858 	eorseq	r4, r2, r8, asr r8
 19c:	504e4f43 	subpl	r4, lr, r3, asr #30
 1a0:	55004e44 	strpl	r4, [r0, #-3652]	; 0xe44
 1a4:	324e4f43 	subcc	r4, lr, #268	; 0x10c
 1a8:	534d5500 	movtpl	r5, #54528	; 0xd500
 1ac:	32544154 	subscc	r4, r4, #21
 1b0:	4e495500 	cdpmi	5, 4, cr5, cr9, cr0, {0}
 1b4:	00324d54 	eorseq	r4, r2, r4, asr sp
 1b8:	63746567 	cmnvs	r4, #432013312	; 0x19c00000
 1bc:	00726168 	rsbseq	r6, r2, r8, ror #2
 1c0:	4f434c55 	svcmi	0x00434c55
 1c4:	6700324e 	strvs	r3, [r0, -lr, asr #4]
 1c8:	00316170 	eorseq	r6, r1, r0, ror r1
 1cc:	63747570 	cmnvs	r4, #469762048	; 0x1c000000
 1d0:	52455500 	subpl	r5, r5, #0
 1d4:	54415453 	strbpl	r5, [r1], #-1107	; 0x453
 1d8:	55500032 	ldrbpl	r0, [r0, #-50]	; 0x32
 1dc:	4e445044 	cdpmi	0, 4, cr5, cr4, cr4, {2}
 1e0:	6d6f6300 	stclvs	3, cr6, [pc]	; 1e8 <_start-0x40007e18>
 1e4:	2f6e6f6d 	svccs	0x006e6f6d
 1e8:	2f637273 	svccs	0x00637273
 1ec:	74726175 	ldrbtvc	r6, [r2], #-373	; 0x175
 1f0:	7000632e 	andvc	r6, r0, lr, lsr #6
 1f4:	00737475 	rsbseq	r7, r3, r5, ror r4
 1f8:	4f434d55 	svcmi	0x00434d55
 1fc:	5500324e 	strpl	r3, [r0, #-590]	; 0x24e
 200:	32485852 	subcc	r5, r8, #5373952	; 0x520000
 204:	52465500 	subpl	r5, r6, #0
 208:	41564341 	cmpmi	r6, r1, asr #6
 20c:	6d00324c 	sfmvs	f3, 4, [r0, #-304]	; 0xfffffed0
 210:	6c656479 	cfstrdvs	mvd6, [r5], #-484	; 0xfffffe1c
 214:	6d5f7961 	ldclvs	9, cr7, [pc, #-388]	; 98 <_start-0x40007f68>
 218:	53430073 	movtpl	r0, #12403	; 0x3073
 21c:	4745525f 	smlsldmi	r5, r5, pc, r2	; <UNPREDICTABLE>
 220:	43415000 	movtmi	r5, #4096	; 0x1000
 224:	5f54454b 	svcpl	0x0054454b
 228:	5f544e43 	svcpl	0x00544e43
 22c:	00474552 	subeq	r4, r7, r2, asr r5
 230:	5f495053 	svcpl	0x00495053
 234:	445f5854 	ldrbmi	r5, [pc], #-2132	; 23c <_start-0x40007dc4>
 238:	00415441 	subeq	r5, r1, r1, asr #8
 23c:	635f7872 	cmpvs	pc, #7471104	; 0x720000
 240:	746e756f 	strbtvc	r7, [lr], #-1391	; 0x56f
 244:	74007265 	strvc	r7, [r0], #-613	; 0x265
 248:	00656d69 	rsbeq	r6, r5, r9, ror #26
 24c:	2f727375 	svccs	0x00727375
 250:	6e69616d 	powvsez	f6, f1, #5.0
 254:	7300632e 	movwvc	r6, #814	; 0x32e
 258:	00326970 	eorseq	r6, r2, r0, ror r9
 25c:	45444f4d 	strbmi	r4, [r4, #-3917]	; 0xf4d
 260:	4746435f 	smlsldmi	r4, r6, pc, r3	; <UNPREDICTABLE>
 264:	5f6f6400 	svcpl	0x006f6400
 268:	00717269 	rsbseq	r7, r1, r9, ror #4
 26c:	45534552 	ldrbmi	r4, [r3, #-1362]	; 0x552
 270:	44455652 	strbmi	r5, [r5], #-1618	; 0x652
 274:	69616d00 	stmdbvs	r1!, {r8, sl, fp, sp, lr}^
 278:	5053006e 	subspl	r0, r3, lr, rrx
 27c:	4e495f49 	cdpmi	15, 4, cr5, cr9, cr9, {2}
 280:	4e455f54 	mcrmi	15, 2, r5, cr5, cr4, {2}
 284:	41575300 	cmpmi	r7, r0, lsl #6
 288:	46435f50 			; <UNDEFINED> instruction: 0x46435f50
 28c:	61430047 	cmpvs	r3, r7, asr #32
 290:	65735f6e 	ldrbvs	r5, [r3, #-3950]!	; 0xf6e
 294:	7300646e 	movwvc	r6, #1134	; 0x46e
 298:	5f74666f 	svcpl	0x0074666f
 29c:	65736572 	ldrbvs	r6, [r3, #-1394]!	; 0x572
 2a0:	50530074 	subspl	r0, r3, r4, ror r0
 2a4:	54535f49 	ldrbpl	r5, [r3], #-3913	; 0xf49
 2a8:	53555441 	cmppl	r5, #1090519040	; 0x41000000
 2ac:	4e455000 	cdpmi	0, 4, cr5, cr5, cr0, {0}
 2b0:	474e4944 	strbmi	r4, [lr, -r4, asr #18]
 2b4:	524c435f 	subpl	r4, ip, #2080374785	; 0x7c000001
 2b8:	4745525f 	smlsldmi	r5, r5, pc, r2	; <UNPREDICTABLE>
 2bc:	6e614300 	cdpvs	3, 6, cr4, cr1, cr0, {0}
 2c0:	6365725f 	cmnvs	r5, #-268435451	; 0xf0000005
 2c4:	65766965 	ldrbvs	r6, [r6, #-2405]!	; 0x965
 2c8:	5f424600 	svcpl	0x00424600
 2cc:	5f4b4c43 	svcpl	0x004b4c43
 2d0:	004c4553 	subeq	r4, ip, r3, asr r5
 2d4:	31637067 	cmncc	r3, r7, rrx
 2d8:	5f484300 	svcpl	0x00484300
 2dc:	00474643 	subeq	r4, r7, r3, asr #12
 2e0:	32787067 	rsbscc	r7, r8, #103	; 0x67
 2e4:	696e4900 	stmdbvs	lr!, {r8, fp, lr}^
 2e8:	61635f74 	smcvs	13812	; 0x35f4
 2ec:	5053006e 	subspl	r0, r3, lr, rrx
 2f0:	58525f49 	ldmdapl	r2, {r0, r3, r6, r8, r9, sl, fp, ip, lr}^
 2f4:	5441445f 	strbpl	r4, [r1], #-1119	; 0x45f
 2f8:	6c730041 	ldclvs	0, cr0, [r3], #-260	; 0xfffffefc
 2fc:	5f657661 	svcpl	0x00657661
 300:	61736964 	cmnvs	r3, r4, ror #18
 304:	00656c62 	rsbeq	r6, r5, r2, ror #24
 308:	74697277 	strbtvc	r7, [r9], #-631	; 0x277
 30c:	79625f65 	stmdbvc	r2!, {r0, r2, r5, r6, r8, r9, sl, fp, ip, lr}^
 310:	325f6574 	subscc	r6, pc, #486539264	; 0x1d000000
 314:	00353135 	eorseq	r3, r5, r5, lsr r1
 318:	2f727375 	svccs	0x00727375
 31c:	3270636d 	rsbscc	r6, r0, #-1275068415	; 0xb4000001
 320:	2e353135 	mrccs	1, 1, r3, cr5, cr5, {1}
 324:	78720063 	ldmdavc	r2!, {r0, r1, r5, r6}^
 328:	6675625f 			; <UNDEFINED> instruction: 0x6675625f
 32c:	65720066 	ldrbvs	r0, [r2, #-102]!	; 0x66
 330:	625f6461 	subsvs	r6, pc, #1627389952	; 0x61000000
 334:	5f657479 	svcpl	0x00657479
 338:	35313532 	ldrcc	r3, [r1, #-1330]!	; 0x532
 33c:	6c656400 	cfstrdvs	mvd6, [r5]
 340:	74007961 	strvc	r7, [r0], #-2401	; 0x961
 344:	73656d69 	cmnvc	r5, #6720	; 0x1a40
 348:	64646100 	strbtvs	r6, [r4], #-256	; 0x100
 34c:	65730072 	ldrbvs	r0, [r3, #-114]!	; 0x72
 350:	625f646e 	subsvs	r6, pc, #1845493760	; 0x6e000000
 354:	00657479 	rsbeq	r7, r5, r9, ror r4
 358:	625f7874 	subsvs	r7, pc, #7602176	; 0x740000
 35c:	00666675 	rsbeq	r6, r6, r5, ror r6
 360:	76616c73 			; <UNDEFINED> instruction: 0x76616c73
 364:	6e655f65 	cdpvs	15, 6, cr5, cr5, cr5, {3}
 368:	656c6261 	strbvs	r6, [ip, #-609]!	; 0x261
 36c:	616c6600 	cmnvs	ip, r0, lsl #12
 370:	64410067 	strbvs	r0, [r1], #-103	; 0x67
 374:	62007264 	andvs	r7, r0, #1073741830	; 0x40000006
 378:	6d5f7469 	cfldrdvs	mvd7, [pc, #-420]	; 1dc <_start-0x40007e24>
 37c:	6669646f 	strbtvs	r6, [r9], -pc, ror #8
 380:	35325f79 	ldrcc	r5, [r2, #-3961]!	; 0xf79
 384:	72003531 	andvc	r3, r0, #205520896	; 0xc400000
 388:	5f766365 	svcpl	0x00766365
 38c:	65747962 	ldrbvs	r7, [r4, #-2402]!	; 0x962
 390:	73616d00 	cmnvc	r1, #0
 394:	6573006b 	ldrbvs	r0, [r3, #-107]!	; 0x6b
 398:	725f646e 	subsvc	r6, pc, #1845493760	; 0x6e000000
 39c:	325f7165 	subscc	r7, pc, #1073741849	; 0x40000019
 3a0:	00353135 	eorseq	r3, r5, r5, lsr r1
 3a4:	65736572 	ldrbvs	r6, [r3, #-1394]!	; 0x572
 3a8:	35325f74 	ldrcc	r5, [r2, #-3956]!	; 0xf74
 3ac:	Address 0x000003ac is out of bounds.


Disassembly of section .debug_frame:

00000000 <.debug_frame>:
   0:	0000000c 	andeq	r0, r0, ip
   4:	ffffffff 			; <UNDEFINED> instruction: 0xffffffff
   8:	7c020001 	stcvc	0, cr0, [r2], {1}
   c:	000d0c0e 	andeq	r0, sp, lr, lsl #24
  10:	00000014 	andeq	r0, r0, r4, lsl r0
  14:	00000000 	andeq	r0, r0, r0
  18:	40008340 	andmi	r8, r0, r0, asr #6
  1c:	00000050 	andeq	r0, r0, r0, asr r0
  20:	8b040e42 	blhi	103930 <_start-0x3ff046d0>
  24:	0b0d4201 	bleq	350830 <_start-0x3fcb77d0>
  28:	00000018 	andeq	r0, r0, r8, lsl r0
  2c:	00000000 	andeq	r0, r0, r0
  30:	40008390 	mulmi	r0, r0, r3
  34:	000001a8 	andeq	r0, r0, r8, lsr #3
  38:	8e080e42 	cdphi	14, 0, cr0, cr8, cr2, {2}
  3c:	42028b01 	andmi	r8, r2, #1024	; 0x400
  40:	00040b0c 	andeq	r0, r4, ip, lsl #22
  44:	00000018 	andeq	r0, r0, r8, lsl r0
  48:	00000000 	andeq	r0, r0, r0
  4c:	40008538 	andmi	r8, r0, r8, lsr r5
  50:	00000070 	andeq	r0, r0, r0, ror r0
  54:	8e080e42 	cdphi	14, 0, cr0, cr8, cr2, {2}
  58:	42028b01 	andmi	r8, r2, #1024	; 0x400
  5c:	00040b0c 	andeq	r0, r4, ip, lsl #22
  60:	00000014 	andeq	r0, r0, r4, lsl r0
  64:	00000000 	andeq	r0, r0, r0
  68:	400085a8 	andmi	r8, r0, r8, lsr #11
  6c:	00000094 	muleq	r0, r4, r0
  70:	8b040e42 	blhi	103980 <_start-0x3ff04680>
  74:	0b0d4201 	bleq	350880 <_start-0x3fcb7780>
  78:	00000018 	andeq	r0, r0, r8, lsl r0
  7c:	00000000 	andeq	r0, r0, r0
  80:	4000863c 	andmi	r8, r0, ip, lsr r6
  84:	00000498 	muleq	r0, r8, r4
  88:	8e080e42 	cdphi	14, 0, cr0, cr8, cr2, {2}
  8c:	42028b01 	andmi	r8, r2, #1024	; 0x400
  90:	00040b0c 	andeq	r0, r4, ip, lsl #22
  94:	00000014 	andeq	r0, r0, r4, lsl r0
  98:	00000000 	andeq	r0, r0, r0
  9c:	40008ad4 	ldrdmi	r8, [r0], -r4
  a0:	00000080 	andeq	r0, r0, r0, lsl #1
  a4:	8b040e42 	blhi	1039b4 <_start-0x3ff0464c>
  a8:	0b0d4201 	bleq	3508b4 <_start-0x3fcb774c>
  ac:	00000018 	andeq	r0, r0, r8, lsl r0
  b0:	00000000 	andeq	r0, r0, r0
  b4:	40008b54 	andmi	r8, r0, r4, asr fp
  b8:	00000938 	andeq	r0, r0, r8, lsr r9
  bc:	8e080e42 	cdphi	14, 0, cr0, cr8, cr2, {2}
  c0:	42028b01 	andmi	r8, r2, #1024	; 0x400
  c4:	00040b0c 	andeq	r0, r4, ip, lsl #22
  c8:	00000020 	andeq	r0, r0, r0, lsr #32
  cc:	00000000 	andeq	r0, r0, r0
  d0:	4000948c 	andmi	r9, r0, ip, lsl #9
  d4:	00000050 	andeq	r0, r0, r0, asr r0
  d8:	830c0e42 	movwhi	r0, #52802	; 0xce42
  dc:	81028201 	tsthi	r2, r1, lsl #4
  e0:	140e4203 	strne	r4, [lr], #-515	; 0x203
  e4:	058b048e 	streq	r0, [fp, #1166]	; 0x48e
  e8:	100b0c42 	andne	r0, fp, r2, asr #24
  ec:	00000024 	andeq	r0, r0, r4, lsr #32
  f0:	00000000 	andeq	r0, r0, r0
  f4:	400094dc 	ldrdmi	r9, [r0], -ip
  f8:	00000058 	andeq	r0, r0, r8, asr r0
  fc:	83100e42 	tsthi	r0, #1056	; 0x420
 100:	81028201 	tsthi	r2, r1, lsl #4
 104:	42048003 	andmi	r8, r4, #3
 108:	058e180e 	streq	r1, [lr, #2062]	; 0x80e
 10c:	0c42068b 	mcrreq	6, 8, r0, r2, cr11
 110:	0000140b 	andeq	r1, r0, fp, lsl #8
 114:	0000000c 	andeq	r0, r0, ip
 118:	ffffffff 			; <UNDEFINED> instruction: 0xffffffff
 11c:	7c020001 	stcvc	0, cr0, [r2], {1}
 120:	000d0c0e 	andeq	r0, sp, lr, lsl #24
 124:	00000014 	andeq	r0, r0, r4, lsl r0
 128:	00000114 	andeq	r0, r0, r4, lsl r1
 12c:	40009534 	andmi	r9, r0, r4, lsr r5
 130:	00000064 	andeq	r0, r0, r4, rrx
 134:	8b040e42 	blhi	103a44 <_start-0x3ff045bc>
 138:	0b0d4201 	bleq	350944 <_start-0x3fcb76bc>
 13c:	00000018 	andeq	r0, r0, r8, lsl r0
 140:	00000114 	andeq	r0, r0, r4, lsl r1
 144:	40009598 	mulmi	r0, r8, r5
 148:	0000005c 	andeq	r0, r0, ip, asr r0
 14c:	8e080e42 	cdphi	14, 0, cr0, cr8, cr2, {2}
 150:	42028b01 	andmi	r8, r2, #1024	; 0x400
 154:	00040b0c 	andeq	r0, r4, ip, lsl #22
 158:	00000018 	andeq	r0, r0, r8, lsl r0
 15c:	00000114 	andeq	r0, r0, r4, lsl r1
 160:	400095f4 	strdmi	r9, [r0], -r4
 164:	0000004c 	andeq	r0, r0, ip, asr #32
 168:	8e080e42 	cdphi	14, 0, cr0, cr8, cr2, {2}
 16c:	42028b01 	andmi	r8, r2, #1024	; 0x400
 170:	00040b0c 	andeq	r0, r4, ip, lsl #22
 174:	00000014 	andeq	r0, r0, r4, lsl r0
 178:	00000114 	andeq	r0, r0, r4, lsl r1
 17c:	40009640 	andmi	r9, r0, r0, asr #12
 180:	00000048 	andeq	r0, r0, r8, asr #32
 184:	8b040e42 	blhi	103a94 <_start-0x3ff0456c>
 188:	0b0d4201 	bleq	350994 <_start-0x3fcb766c>
 18c:	0000000c 	andeq	r0, r0, ip
 190:	ffffffff 			; <UNDEFINED> instruction: 0xffffffff
 194:	7c020001 	stcvc	0, cr0, [r2], {1}
 198:	000d0c0e 	andeq	r0, sp, lr, lsl #24
 19c:	00000014 	andeq	r0, r0, r4, lsl r0
 1a0:	0000018c 	andeq	r0, r0, ip, lsl #3
 1a4:	400097cc 	andmi	r9, r0, ip, asr #15
 1a8:	00000014 	andeq	r0, r0, r4, lsl r0
 1ac:	8b040e42 	blhi	103abc <_start-0x3ff04544>
 1b0:	0b0d4201 	bleq	3509bc <_start-0x3fcb7644>
 1b4:	00000014 	andeq	r0, r0, r4, lsl r0
 1b8:	0000018c 	andeq	r0, r0, ip, lsl #3
 1bc:	400097e0 	andmi	r9, r0, r0, ror #15
 1c0:	00000098 	muleq	r0, r8, r0
 1c4:	8b040e42 	blhi	103ad4 <_start-0x3ff0452c>
 1c8:	0b0d4201 	bleq	3509d4 <_start-0x3fcb762c>
 1cc:	0000001c 	andeq	r0, r0, ip, lsl r0
 1d0:	0000018c 	andeq	r0, r0, ip, lsl #3
 1d4:	40009878 	andmi	r9, r0, r8, ror r8
 1d8:	00000264 	andeq	r0, r0, r4, ror #4
 1dc:	8e0c0e42 	cdphi	14, 0, cr0, cr12, cr2, {2}
 1e0:	84028b01 	strhi	r8, [r2], #-2817	; 0xb01
 1e4:	0b0c4203 	bleq	3109f8 <_start-0x3fcf7608>
 1e8:	00000004 	andeq	r0, r0, r4
 1ec:	0000000c 	andeq	r0, r0, ip
 1f0:	ffffffff 			; <UNDEFINED> instruction: 0xffffffff
 1f4:	7c020001 	stcvc	0, cr0, [r2], {1}
 1f8:	000d0c0e 	andeq	r0, sp, lr, lsl #24
 1fc:	00000014 	andeq	r0, r0, r4, lsl r0
 200:	000001ec 	andeq	r0, r0, ip, ror #3
 204:	40009adc 	ldrdmi	r9, [r0], -ip
 208:	00000070 	andeq	r0, r0, r0, ror r0
 20c:	8b040e42 	blhi	103b1c <_start-0x3ff044e4>
 210:	0b0d4201 	bleq	350a1c <_start-0x3fcb75e4>
 214:	00000018 	andeq	r0, r0, r8, lsl r0
 218:	000001ec 	andeq	r0, r0, ip, ror #3
 21c:	40009b4c 	andmi	r9, r0, ip, asr #22
 220:	00000034 	andeq	r0, r0, r4, lsr r0
 224:	8e080e42 	cdphi	14, 0, cr0, cr8, cr2, {2}
 228:	42028b01 	andmi	r8, r2, #1024	; 0x400
 22c:	00040b0c 	andeq	r0, r4, ip, lsl #22
 230:	00000018 	andeq	r0, r0, r8, lsl r0
 234:	000001ec 	andeq	r0, r0, ip, ror #3
 238:	40009b80 	andmi	r9, r0, r0, lsl #23
 23c:	00000034 	andeq	r0, r0, r4, lsr r0
 240:	8e080e42 	cdphi	14, 0, cr0, cr8, cr2, {2}
 244:	42028b01 	andmi	r8, r2, #1024	; 0x400
 248:	00040b0c 	andeq	r0, r4, ip, lsl #22
 24c:	00000018 	andeq	r0, r0, r8, lsl r0
 250:	000001ec 	andeq	r0, r0, ip, ror #3
 254:	40009bb4 			; <UNDEFINED> instruction: 0x40009bb4
 258:	00000078 	andeq	r0, r0, r8, ror r0
 25c:	8e080e42 	cdphi	14, 0, cr0, cr8, cr2, {2}
 260:	42028b01 	andmi	r8, r2, #1024	; 0x400
 264:	00040b0c 	andeq	r0, r4, ip, lsl #22
 268:	00000018 	andeq	r0, r0, r8, lsl r0
 26c:	000001ec 	andeq	r0, r0, ip, ror #3
 270:	40009c2c 	andmi	r9, r0, ip, lsr #24
 274:	00000068 	andeq	r0, r0, r8, rrx
 278:	8e080e42 	cdphi	14, 0, cr0, cr8, cr2, {2}
 27c:	42028b01 	andmi	r8, r2, #1024	; 0x400
 280:	00040b0c 	andeq	r0, r4, ip, lsl #22
 284:	00000018 	andeq	r0, r0, r8, lsl r0
 288:	000001ec 	andeq	r0, r0, ip, ror #3
 28c:	40009c94 	mulmi	r0, r4, ip
 290:	00000048 	andeq	r0, r0, r8, asr #32
 294:	8e080e42 	cdphi	14, 0, cr0, cr8, cr2, {2}
 298:	42028b01 	andmi	r8, r2, #1024	; 0x400
 29c:	00040b0c 	andeq	r0, r4, ip, lsl #22
 2a0:	00000018 	andeq	r0, r0, r8, lsl r0
 2a4:	000001ec 	andeq	r0, r0, ip, ror #3
 2a8:	40009cdc 	ldrdmi	r9, [r0], -ip
 2ac:	00000028 	andeq	r0, r0, r8, lsr #32
 2b0:	8e080e42 	cdphi	14, 0, cr0, cr8, cr2, {2}
 2b4:	42028b01 	andmi	r8, r2, #1024	; 0x400
 2b8:	00040b0c 	andeq	r0, r4, ip, lsl #22
 2bc:	00000018 	andeq	r0, r0, r8, lsl r0
 2c0:	000001ec 	andeq	r0, r0, ip, ror #3
 2c4:	40009d04 	andmi	r9, r0, r4, lsl #26
 2c8:	00000028 	andeq	r0, r0, r8, lsr #32
 2cc:	8e080e42 	cdphi	14, 0, cr0, cr8, cr2, {2}
 2d0:	42028b01 	andmi	r8, r2, #1024	; 0x400
 2d4:	00040b0c 	andeq	r0, r4, ip, lsl #22
 2d8:	00000018 	andeq	r0, r0, r8, lsl r0
 2dc:	000001ec 	andeq	r0, r0, ip, ror #3
 2e0:	40009d2c 	andmi	r9, r0, ip, lsr #26
 2e4:	00000064 	andeq	r0, r0, r4, rrx
 2e8:	8e080e42 	cdphi	14, 0, cr0, cr8, cr2, {2}
 2ec:	42028b01 	andmi	r8, r2, #1024	; 0x400
 2f0:	00040b0c 	andeq	r0, r4, ip, lsl #22
 2f4:	00000018 	andeq	r0, r0, r8, lsl r0
 2f8:	000001ec 	andeq	r0, r0, ip, ror #3
 2fc:	40009d90 	mulmi	r0, r0, sp
 300:	00000050 	andeq	r0, r0, r0, asr r0
 304:	8e080e42 	cdphi	14, 0, cr0, cr8, cr2, {2}
 308:	42028b01 	andmi	r8, r2, #1024	; 0x400
 30c:	00040b0c 	andeq	r0, r4, ip, lsl #22
 310:	00000018 	andeq	r0, r0, r8, lsl r0
 314:	000001ec 	andeq	r0, r0, ip, ror #3
 318:	40009de0 	andmi	r9, r0, r0, ror #27
 31c:	00000050 	andeq	r0, r0, r0, asr r0
 320:	8e080e42 	cdphi	14, 0, cr0, cr8, cr2, {2}
 324:	42028b01 	andmi	r8, r2, #1024	; 0x400
 328:	00040b0c 	andeq	r0, r4, ip, lsl #22
 32c:	00000018 	andeq	r0, r0, r8, lsl r0
 330:	000001ec 	andeq	r0, r0, ip, ror #3
 334:	40009e30 	andmi	r9, r0, r0, lsr lr
 338:	0000007c 	andeq	r0, r0, ip, ror r0
 33c:	8e080e42 	cdphi	14, 0, cr0, cr8, cr2, {2}
 340:	42028b01 	andmi	r8, r2, #1024	; 0x400
 344:	00040b0c 	andeq	r0, r4, ip, lsl #22
 348:	00000018 	andeq	r0, r0, r8, lsl r0
 34c:	000001ec 	andeq	r0, r0, ip, ror #3
 350:	40009eac 	andmi	r9, r0, ip, lsr #29
 354:	000000a0 	andeq	r0, r0, r0, lsr #1
 358:	8e080e42 	cdphi	14, 0, cr0, cr8, cr2, {2}
 35c:	42028b01 	andmi	r8, r2, #1024	; 0x400
 360:	00040b0c 	andeq	r0, r4, ip, lsl #22
 364:	0000001c 	andeq	r0, r0, ip, lsl r0
 368:	000001ec 	andeq	r0, r0, ip, ror #3
 36c:	40009f4c 	andmi	r9, r0, ip, asr #30
 370:	000000e8 	andeq	r0, r0, r8, ror #1
 374:	8e0c0e42 	cdphi	14, 0, cr0, cr12, cr2, {2}
 378:	84028b01 	strhi	r8, [r2], #-2817	; 0xb01
 37c:	0b0c4203 	bleq	310b90 <_start-0x3fcf7470>
 380:	00000004 	andeq	r0, r0, r4
