
rtc.elf:     file format elf32-littlearm


Disassembly of section .text:

40008000 <_start>:
40008000:	ea00000d 	b	4000803c <reset>
40008004:	e59ff014 	ldr	pc, [pc, #20]	; 40008020 <_undefined_instruction>
40008008:	e59ff014 	ldr	pc, [pc, #20]	; 40008024 <_software_interrupt>
4000800c:	e59ff014 	ldr	pc, [pc, #20]	; 40008028 <_prefetch_abort>
40008010:	e59ff014 	ldr	pc, [pc, #20]	; 4000802c <_data_abort>
40008014:	e59ff014 	ldr	pc, [pc, #20]	; 40008030 <_not_used>
40008018:	e59ff014 	ldr	pc, [pc, #20]	; 40008034 <_irq>
4000801c:	e59ff014 	ldr	pc, [pc, #20]	; 40008038 <_fiq>

40008020 <_undefined_instruction>:
40008020:	40008020 	andmi	r8, r0, r0, lsr #32

40008024 <_software_interrupt>:
40008024:	40008024 	andmi	r8, r0, r4, lsr #32

40008028 <_prefetch_abort>:
40008028:	40008028 	andmi	r8, r0, r8, lsr #32

4000802c <_data_abort>:
4000802c:	4000802c 	andmi	r8, r0, ip, lsr #32

40008030 <_not_used>:
40008030:	40008030 	andmi	r8, r0, r0, lsr r0

40008034 <_irq>:
40008034:	40008110 	andmi	r8, r0, r0, lsl r1

40008038 <_fiq>:
40008038:	40008038 	andmi	r8, r0, r8, lsr r0

4000803c <reset>:
4000803c:	e59f00e0 	ldr	r0, [pc, #224]	; 40008124 <stacktop+0x4>
40008040:	ee0c0f10 	mcr	15, 0, r0, cr12, cr0, {0}
40008044:	e10f0000 	mrs	r0, CPSR
40008048:	e3c0001f 	bic	r0, r0, #31
4000804c:	e38000d3 	orr	r0, r0, #211	; 0xd3
40008050:	e129f000 	msr	CPSR_fc, r0
40008054:	e3e0020f 	mvn	r0, #-268435456	; 0xf0000000
40008058:	ee010f50 	mcr	15, 0, r0, cr1, cr0, {2}
4000805c:	e3a00000 	mov	r0, #0
40008060:	ee080f17 	mcr	15, 0, r0, cr8, cr7, {0}
40008064:	ee070f15 	mcr	15, 0, r0, cr7, cr5, {0}
40008068:	e3a03101 	mov	r3, #1073741824	; 0x40000000
4000806c:	eee83a10 	vmsr	fpexc, r3
40008070:	ee110f10 	mrc	15, 0, r0, cr1, cr0, {0}
40008074:	e3c00a02 	bic	r0, r0, #8192	; 0x2000
40008078:	e3c00007 	bic	r0, r0, #7
4000807c:	e3800a01 	orr	r0, r0, #4096	; 0x1000
40008080:	e3800002 	orr	r0, r0, #2
40008084:	e3800b02 	orr	r0, r0, #2048	; 0x800
40008088:	ee010f10 	mcr	15, 0, r0, cr1, cr0, {0}
4000808c:	e59f0094 	ldr	r0, [pc, #148]	; 40008128 <stacktop+0x8>
40008090:	e5901000 	ldr	r1, [r0]
40008094:	e3c1180f 	bic	r1, r1, #983040	; 0xf0000
40008098:	e3811801 	orr	r1, r1, #65536	; 0x10000
4000809c:	e5801000 	str	r1, [r0]
400080a0:	e59f0084 	ldr	r0, [pc, #132]	; 4000812c <stacktop+0xc>
400080a4:	e5901000 	ldr	r1, [r0]
400080a8:	e3c11c03 	bic	r1, r1, #768	; 0x300
400080ac:	e5801000 	str	r1, [r0]
400080b0:	e59f0078 	ldr	r0, [pc, #120]	; 40008130 <stacktop+0x10>
400080b4:	e5901000 	ldr	r1, [r0]
400080b8:	e3811010 	orr	r1, r1, #16
400080bc:	e5801000 	str	r1, [r0]

400080c0 <init_stack>:
400080c0:	e59f0058 	ldr	r0, [pc, #88]	; 40008120 <stacktop>
400080c4:	e1a0d000 	mov	sp, r0
400080c8:	e2400c02 	sub	r0, r0, #512	; 0x200
400080cc:	e329f0d2 	msr	CPSR_fc, #210	; 0xd2
400080d0:	e1a0d000 	mov	sp, r0
400080d4:	e2400c02 	sub	r0, r0, #512	; 0x200
400080d8:	e329f0d1 	msr	CPSR_fc, #209	; 0xd1
400080dc:	e1a0d000 	mov	sp, r0
400080e0:	e2400000 	sub	r0, r0, #0
400080e4:	e329f0d7 	msr	CPSR_fc, #215	; 0xd7
400080e8:	e1a0d000 	mov	sp, r0
400080ec:	e2400000 	sub	r0, r0, #0
400080f0:	e329f0db 	msr	CPSR_fc, #219	; 0xdb
400080f4:	e1a0d000 	mov	sp, r0
400080f8:	e2400000 	sub	r0, r0, #0
400080fc:	e329f010 	msr	CPSR_fc, #16
40008100:	e1a0d000 	mov	sp, r0
40008104:	ea00056b 	b	400096b8 <main>
40008108:	e1a00000 	nop			; (mov r0, r0)
4000810c:	e1a00000 	nop			; (mov r0, r0)

40008110 <irq_handler>:
40008110:	e24ee004 	sub	lr, lr, #4
40008114:	e92d5fff 	push	{r0, r1, r2, r3, r4, r5, r6, r7, r8, r9, sl, fp, ip, lr}
40008118:	eb000519 	bl	40009584 <do_irq>
4000811c:	e8fd9fff 	ldm	sp!, {r0, r1, r2, r3, r4, r5, r6, r7, r8, r9, sl, fp, ip, pc}^

40008120 <stacktop>:
40008120:	4000a030 	andmi	sl, r0, r0, lsr r0
40008124:	40008000 	andmi	r8, r0, r0
40008128:	114001e0 	smlalttne	r0, r0, r0, r1	; <UNPREDICTABLE>
4000812c:	114001e8 	smlalttne	r0, r0, r8, r1	; <UNPREDICTABLE>
40008130:	114001e4 	smlalttne	r0, r0, r4, r1	; <UNPREDICTABLE>
40008134:	e1a00000 	nop			; (mov r0, r0)
40008138:	e1a00000 	nop			; (mov r0, r0)
4000813c:	e1a00000 	nop			; (mov r0, r0)

40008140 <__toupper>:
40008140:	e52db004 	push	{fp}		; (str fp, [sp, #-4]!)
40008144:	e28db000 	add	fp, sp, #0
40008148:	e24dd004 	sub	sp, sp, #4
4000814c:	e1a03000 	mov	r3, r0
40008150:	e54b3004 	strb	r3, [fp, #-4]
40008154:	e55b3004 	ldrb	r3, [fp, #-4]
40008158:	e59f202c 	ldr	r2, [pc, #44]	; 4000818c <__toupper+0x4c>
4000815c:	e7d23003 	ldrb	r3, [r2, r3]
40008160:	e2033002 	and	r3, r3, #2
40008164:	e3530000 	cmp	r3, #0
40008168:	0a000002 	beq	40008178 <__toupper+0x38>
4000816c:	e55b3004 	ldrb	r3, [fp, #-4]
40008170:	e2433020 	sub	r3, r3, #32
40008174:	e54b3004 	strb	r3, [fp, #-4]
40008178:	e55b3004 	ldrb	r3, [fp, #-4]
4000817c:	e1a00003 	mov	r0, r3
40008180:	e28bd000 	add	sp, fp, #0
40008184:	e8bd0800 	pop	{fp}
40008188:	e12fff1e 	bx	lr
4000818c:	4000a030 	andmi	sl, r0, r0, lsr r0

40008190 <simple_strtoul>:
40008190:	e92d4800 	push	{fp, lr}
40008194:	e28db004 	add	fp, sp, #4
40008198:	e24dd014 	sub	sp, sp, #20
4000819c:	e50b0010 	str	r0, [fp, #-16]
400081a0:	e50b1014 	str	r1, [fp, #-20]
400081a4:	e50b2018 	str	r2, [fp, #-24]
400081a8:	e3a03000 	mov	r3, #0
400081ac:	e50b3008 	str	r3, [fp, #-8]
400081b0:	e51b3010 	ldr	r3, [fp, #-16]
400081b4:	e5d33000 	ldrb	r3, [r3]
400081b8:	e3530030 	cmp	r3, #48	; 0x30
400081bc:	1a000018 	bne	40008224 <simple_strtoul+0x94>
400081c0:	e51b3010 	ldr	r3, [fp, #-16]
400081c4:	e2833001 	add	r3, r3, #1
400081c8:	e50b3010 	str	r3, [fp, #-16]
400081cc:	e51b3010 	ldr	r3, [fp, #-16]
400081d0:	e5d33000 	ldrb	r3, [r3]
400081d4:	e3530078 	cmp	r3, #120	; 0x78
400081d8:	1a00000c 	bne	40008210 <simple_strtoul+0x80>
400081dc:	e51b3010 	ldr	r3, [fp, #-16]
400081e0:	e2833001 	add	r3, r3, #1
400081e4:	e5d33000 	ldrb	r3, [r3]
400081e8:	e59f2144 	ldr	r2, [pc, #324]	; 40008334 <simple_strtoul+0x1a4>
400081ec:	e7d23003 	ldrb	r3, [r2, r3]
400081f0:	e2033044 	and	r3, r3, #68	; 0x44
400081f4:	e3530000 	cmp	r3, #0
400081f8:	0a000004 	beq	40008210 <simple_strtoul+0x80>
400081fc:	e3a03010 	mov	r3, #16
40008200:	e50b3018 	str	r3, [fp, #-24]
40008204:	e51b3010 	ldr	r3, [fp, #-16]
40008208:	e2833001 	add	r3, r3, #1
4000820c:	e50b3010 	str	r3, [fp, #-16]
40008210:	e51b3018 	ldr	r3, [fp, #-24]
40008214:	e3530000 	cmp	r3, #0
40008218:	1a000001 	bne	40008224 <simple_strtoul+0x94>
4000821c:	e3a03008 	mov	r3, #8
40008220:	e50b3018 	str	r3, [fp, #-24]
40008224:	e51b3018 	ldr	r3, [fp, #-24]
40008228:	e3530000 	cmp	r3, #0
4000822c:	1a00000c 	bne	40008264 <simple_strtoul+0xd4>
40008230:	e3a0300a 	mov	r3, #10
40008234:	e50b3018 	str	r3, [fp, #-24]
40008238:	ea000009 	b	40008264 <simple_strtoul+0xd4>
4000823c:	e51b3008 	ldr	r3, [fp, #-8]
40008240:	e51b2018 	ldr	r2, [fp, #-24]
40008244:	e0020293 	mul	r2, r3, r2
40008248:	e51b300c 	ldr	r3, [fp, #-12]
4000824c:	e0823003 	add	r3, r2, r3
40008250:	e50b3008 	str	r3, [fp, #-8]
40008254:	e51b3010 	ldr	r3, [fp, #-16]
40008258:	e2833001 	add	r3, r3, #1
4000825c:	e50b3010 	str	r3, [fp, #-16]
40008260:	ea000000 	b	40008268 <simple_strtoul+0xd8>
40008264:	e1a00000 	nop			; (mov r0, r0)
40008268:	e51b3010 	ldr	r3, [fp, #-16]
4000826c:	e5d33000 	ldrb	r3, [r3]
40008270:	e59f20bc 	ldr	r2, [pc, #188]	; 40008334 <simple_strtoul+0x1a4>
40008274:	e7d23003 	ldrb	r3, [r2, r3]
40008278:	e2033044 	and	r3, r3, #68	; 0x44
4000827c:	e3530000 	cmp	r3, #0
40008280:	0a000020 	beq	40008308 <simple_strtoul+0x178>
40008284:	e51b3010 	ldr	r3, [fp, #-16]
40008288:	e5d33000 	ldrb	r3, [r3]
4000828c:	e59f20a0 	ldr	r2, [pc, #160]	; 40008334 <simple_strtoul+0x1a4>
40008290:	e7d23003 	ldrb	r3, [r2, r3]
40008294:	e2033004 	and	r3, r3, #4
40008298:	e3530000 	cmp	r3, #0
4000829c:	0a000003 	beq	400082b0 <simple_strtoul+0x120>
400082a0:	e51b3010 	ldr	r3, [fp, #-16]
400082a4:	e5d33000 	ldrb	r3, [r3]
400082a8:	e2433030 	sub	r3, r3, #48	; 0x30
400082ac:	ea000010 	b	400082f4 <simple_strtoul+0x164>
400082b0:	e51b3010 	ldr	r3, [fp, #-16]
400082b4:	e5d33000 	ldrb	r3, [r3]
400082b8:	e59f2074 	ldr	r2, [pc, #116]	; 40008334 <simple_strtoul+0x1a4>
400082bc:	e7d23003 	ldrb	r3, [r2, r3]
400082c0:	e2033002 	and	r3, r3, #2
400082c4:	e3530000 	cmp	r3, #0
400082c8:	0a000006 	beq	400082e8 <simple_strtoul+0x158>
400082cc:	e51b3010 	ldr	r3, [fp, #-16]
400082d0:	e5d33000 	ldrb	r3, [r3]
400082d4:	e1a00003 	mov	r0, r3
400082d8:	ebffff98 	bl	40008140 <__toupper>
400082dc:	e1a03000 	mov	r3, r0
400082e0:	e2433037 	sub	r3, r3, #55	; 0x37
400082e4:	ea000002 	b	400082f4 <simple_strtoul+0x164>
400082e8:	e51b3010 	ldr	r3, [fp, #-16]
400082ec:	e5d33000 	ldrb	r3, [r3]
400082f0:	e2433037 	sub	r3, r3, #55	; 0x37
400082f4:	e50b300c 	str	r3, [fp, #-12]
400082f8:	e51b200c 	ldr	r2, [fp, #-12]
400082fc:	e51b3018 	ldr	r3, [fp, #-24]
40008300:	e1520003 	cmp	r2, r3
40008304:	3affffcc 	bcc	4000823c <simple_strtoul+0xac>
40008308:	e51b3014 	ldr	r3, [fp, #-20]
4000830c:	e3530000 	cmp	r3, #0
40008310:	0a000002 	beq	40008320 <simple_strtoul+0x190>
40008314:	e51b3014 	ldr	r3, [fp, #-20]
40008318:	e51b2010 	ldr	r2, [fp, #-16]
4000831c:	e5832000 	str	r2, [r3]
40008320:	e51b3008 	ldr	r3, [fp, #-8]
40008324:	e1a00003 	mov	r0, r3
40008328:	e24bd004 	sub	sp, fp, #4
4000832c:	e8bd4800 	pop	{fp, lr}
40008330:	e12fff1e 	bx	lr
40008334:	4000a030 	andmi	sl, r0, r0, lsr r0

40008338 <simple_strtol>:
40008338:	e92d4800 	push	{fp, lr}
4000833c:	e28db004 	add	fp, sp, #4
40008340:	e24dd00c 	sub	sp, sp, #12
40008344:	e50b0008 	str	r0, [fp, #-8]
40008348:	e50b100c 	str	r1, [fp, #-12]
4000834c:	e50b2010 	str	r2, [fp, #-16]
40008350:	e51b3008 	ldr	r3, [fp, #-8]
40008354:	e5d33000 	ldrb	r3, [r3]
40008358:	e353002d 	cmp	r3, #45	; 0x2d
4000835c:	1a000008 	bne	40008384 <simple_strtol+0x4c>
40008360:	e51b3008 	ldr	r3, [fp, #-8]
40008364:	e2833001 	add	r3, r3, #1
40008368:	e1a00003 	mov	r0, r3
4000836c:	e51b100c 	ldr	r1, [fp, #-12]
40008370:	e51b2010 	ldr	r2, [fp, #-16]
40008374:	ebffff85 	bl	40008190 <simple_strtoul>
40008378:	e1a03000 	mov	r3, r0
4000837c:	e2633000 	rsb	r3, r3, #0
40008380:	ea000004 	b	40008398 <simple_strtol+0x60>
40008384:	e51b0008 	ldr	r0, [fp, #-8]
40008388:	e51b100c 	ldr	r1, [fp, #-12]
4000838c:	e51b2010 	ldr	r2, [fp, #-16]
40008390:	ebffff7e 	bl	40008190 <simple_strtoul>
40008394:	e1a03000 	mov	r3, r0
40008398:	e1a00003 	mov	r0, r3
4000839c:	e24bd004 	sub	sp, fp, #4
400083a0:	e8bd4800 	pop	{fp, lr}
400083a4:	e12fff1e 	bx	lr

400083a8 <skip_atoi>:
400083a8:	e52db004 	push	{fp}		; (str fp, [sp, #-4]!)
400083ac:	e28db000 	add	fp, sp, #0
400083b0:	e24dd008 	sub	sp, sp, #8
400083b4:	e50b0008 	str	r0, [fp, #-8]
400083b8:	e3a03000 	mov	r3, #0
400083bc:	e50b3004 	str	r3, [fp, #-4]
400083c0:	ea00000e 	b	40008400 <skip_atoi+0x58>
400083c4:	e51b2004 	ldr	r2, [fp, #-4]
400083c8:	e1a03002 	mov	r3, r2
400083cc:	e1a03103 	lsl	r3, r3, #2
400083d0:	e0833002 	add	r3, r3, r2
400083d4:	e1a03083 	lsl	r3, r3, #1
400083d8:	e1a01003 	mov	r1, r3
400083dc:	e51b3008 	ldr	r3, [fp, #-8]
400083e0:	e5933000 	ldr	r3, [r3]
400083e4:	e5d32000 	ldrb	r2, [r3]
400083e8:	e0812002 	add	r2, r1, r2
400083ec:	e2422030 	sub	r2, r2, #48	; 0x30
400083f0:	e50b2004 	str	r2, [fp, #-4]
400083f4:	e2832001 	add	r2, r3, #1
400083f8:	e51b3008 	ldr	r3, [fp, #-8]
400083fc:	e5832000 	str	r2, [r3]
40008400:	e51b3008 	ldr	r3, [fp, #-8]
40008404:	e5933000 	ldr	r3, [r3]
40008408:	e5d33000 	ldrb	r3, [r3]
4000840c:	e353002f 	cmp	r3, #47	; 0x2f
40008410:	9a000004 	bls	40008428 <skip_atoi+0x80>
40008414:	e51b3008 	ldr	r3, [fp, #-8]
40008418:	e5933000 	ldr	r3, [r3]
4000841c:	e5d33000 	ldrb	r3, [r3]
40008420:	e3530039 	cmp	r3, #57	; 0x39
40008424:	9affffe6 	bls	400083c4 <skip_atoi+0x1c>
40008428:	e51b3004 	ldr	r3, [fp, #-4]
4000842c:	e1a00003 	mov	r0, r3
40008430:	e28bd000 	add	sp, fp, #0
40008434:	e8bd0800 	pop	{fp}
40008438:	e12fff1e 	bx	lr

4000843c <number>:
4000843c:	e92d4800 	push	{fp, lr}
40008440:	e28db004 	add	fp, sp, #4
40008444:	e24dd068 	sub	sp, sp, #104	; 0x68
40008448:	e50b0060 	str	r0, [fp, #-96]	; 0x60
4000844c:	e50b1064 	str	r1, [fp, #-100]	; 0x64
40008450:	e50b2068 	str	r2, [fp, #-104]	; 0x68
40008454:	e50b306c 	str	r3, [fp, #-108]	; 0x6c
40008458:	e59f346c 	ldr	r3, [pc, #1132]	; 400088cc <number+0x490>
4000845c:	e50b300c 	str	r3, [fp, #-12]
40008460:	e59b3008 	ldr	r3, [fp, #8]
40008464:	e2033040 	and	r3, r3, #64	; 0x40
40008468:	e3530000 	cmp	r3, #0
4000846c:	0a000001 	beq	40008478 <number+0x3c>
40008470:	e59f3458 	ldr	r3, [pc, #1112]	; 400088d0 <number+0x494>
40008474:	e50b300c 	str	r3, [fp, #-12]
40008478:	e59b3008 	ldr	r3, [fp, #8]
4000847c:	e2033010 	and	r3, r3, #16
40008480:	e3530000 	cmp	r3, #0
40008484:	0a000002 	beq	40008494 <number+0x58>
40008488:	e59b3008 	ldr	r3, [fp, #8]
4000848c:	e3c33001 	bic	r3, r3, #1
40008490:	e58b3008 	str	r3, [fp, #8]
40008494:	e51b3068 	ldr	r3, [fp, #-104]	; 0x68
40008498:	e3530001 	cmp	r3, #1
4000849c:	9a000002 	bls	400084ac <number+0x70>
400084a0:	e51b3068 	ldr	r3, [fp, #-104]	; 0x68
400084a4:	e3530024 	cmp	r3, #36	; 0x24
400084a8:	9a000001 	bls	400084b4 <number+0x78>
400084ac:	e3a03000 	mov	r3, #0
400084b0:	ea000101 	b	400088bc <number+0x480>
400084b4:	e59b3008 	ldr	r3, [fp, #8]
400084b8:	e2033001 	and	r3, r3, #1
400084bc:	e20330ff 	and	r3, r3, #255	; 0xff
400084c0:	e3530000 	cmp	r3, #0
400084c4:	0a000001 	beq	400084d0 <number+0x94>
400084c8:	e3a03030 	mov	r3, #48	; 0x30
400084cc:	ea000000 	b	400084d4 <number+0x98>
400084d0:	e3a03020 	mov	r3, #32
400084d4:	e54b3011 	strb	r3, [fp, #-17]
400084d8:	e3a03000 	mov	r3, #0
400084dc:	e54b3005 	strb	r3, [fp, #-5]
400084e0:	e59b3008 	ldr	r3, [fp, #8]
400084e4:	e2033002 	and	r3, r3, #2
400084e8:	e3530000 	cmp	r3, #0
400084ec:	0a00001e 	beq	4000856c <number+0x130>
400084f0:	e51b3064 	ldr	r3, [fp, #-100]	; 0x64
400084f4:	e3530000 	cmp	r3, #0
400084f8:	aa000008 	bge	40008520 <number+0xe4>
400084fc:	e3a0302d 	mov	r3, #45	; 0x2d
40008500:	e54b3005 	strb	r3, [fp, #-5]
40008504:	e51b3064 	ldr	r3, [fp, #-100]	; 0x64
40008508:	e2633000 	rsb	r3, r3, #0
4000850c:	e50b3064 	str	r3, [fp, #-100]	; 0x64
40008510:	e51b306c 	ldr	r3, [fp, #-108]	; 0x6c
40008514:	e2433001 	sub	r3, r3, #1
40008518:	e50b306c 	str	r3, [fp, #-108]	; 0x6c
4000851c:	ea000012 	b	4000856c <number+0x130>
40008520:	e59b3008 	ldr	r3, [fp, #8]
40008524:	e2033004 	and	r3, r3, #4
40008528:	e3530000 	cmp	r3, #0
4000852c:	0a000005 	beq	40008548 <number+0x10c>
40008530:	e3a0302b 	mov	r3, #43	; 0x2b
40008534:	e54b3005 	strb	r3, [fp, #-5]
40008538:	e51b306c 	ldr	r3, [fp, #-108]	; 0x6c
4000853c:	e2433001 	sub	r3, r3, #1
40008540:	e50b306c 	str	r3, [fp, #-108]	; 0x6c
40008544:	ea000008 	b	4000856c <number+0x130>
40008548:	e59b3008 	ldr	r3, [fp, #8]
4000854c:	e2033008 	and	r3, r3, #8
40008550:	e3530000 	cmp	r3, #0
40008554:	0a000004 	beq	4000856c <number+0x130>
40008558:	e3a03020 	mov	r3, #32
4000855c:	e54b3005 	strb	r3, [fp, #-5]
40008560:	e51b306c 	ldr	r3, [fp, #-108]	; 0x6c
40008564:	e2433001 	sub	r3, r3, #1
40008568:	e50b306c 	str	r3, [fp, #-108]	; 0x6c
4000856c:	e59b3008 	ldr	r3, [fp, #8]
40008570:	e2033020 	and	r3, r3, #32
40008574:	e3530000 	cmp	r3, #0
40008578:	0a00000c 	beq	400085b0 <number+0x174>
4000857c:	e51b3068 	ldr	r3, [fp, #-104]	; 0x68
40008580:	e3530010 	cmp	r3, #16
40008584:	1a000003 	bne	40008598 <number+0x15c>
40008588:	e51b306c 	ldr	r3, [fp, #-108]	; 0x6c
4000858c:	e2433002 	sub	r3, r3, #2
40008590:	e50b306c 	str	r3, [fp, #-108]	; 0x6c
40008594:	ea000005 	b	400085b0 <number+0x174>
40008598:	e51b3068 	ldr	r3, [fp, #-104]	; 0x68
4000859c:	e3530008 	cmp	r3, #8
400085a0:	1a000002 	bne	400085b0 <number+0x174>
400085a4:	e51b306c 	ldr	r3, [fp, #-108]	; 0x6c
400085a8:	e2433001 	sub	r3, r3, #1
400085ac:	e50b306c 	str	r3, [fp, #-108]	; 0x6c
400085b0:	e3a03000 	mov	r3, #0
400085b4:	e50b3010 	str	r3, [fp, #-16]
400085b8:	e51b3064 	ldr	r3, [fp, #-100]	; 0x64
400085bc:	e3530000 	cmp	r3, #0
400085c0:	1a000027 	bne	40008664 <number+0x228>
400085c4:	e3e03057 	mvn	r3, #87	; 0x57
400085c8:	e51b2010 	ldr	r2, [fp, #-16]
400085cc:	e24b0004 	sub	r0, fp, #4
400085d0:	e0802002 	add	r2, r0, r2
400085d4:	e0823003 	add	r3, r2, r3
400085d8:	e3a02030 	mov	r2, #48	; 0x30
400085dc:	e5c32000 	strb	r2, [r3]
400085e0:	e51b3010 	ldr	r3, [fp, #-16]
400085e4:	e2833001 	add	r3, r3, #1
400085e8:	e50b3010 	str	r3, [fp, #-16]
400085ec:	ea00001f 	b	40008670 <number+0x234>
400085f0:	e51b2010 	ldr	r2, [fp, #-16]
400085f4:	e59b3004 	ldr	r3, [fp, #4]
400085f8:	e1520003 	cmp	r2, r3
400085fc:	da000018 	ble	40008664 <number+0x228>
40008600:	e51b3064 	ldr	r3, [fp, #-100]	; 0x64
40008604:	e1a00003 	mov	r0, r3
40008608:	e51b1068 	ldr	r1, [fp, #-104]	; 0x68
4000860c:	eb0003b0 	bl	400094d4 <__umodsi3>
40008610:	e1a03000 	mov	r3, r0
40008614:	e50b3018 	str	r3, [fp, #-24]
40008618:	e51b3064 	ldr	r3, [fp, #-100]	; 0x64
4000861c:	e1a00003 	mov	r0, r3
40008620:	e51b1068 	ldr	r1, [fp, #-104]	; 0x68
40008624:	eb000385 	bl	40009440 <__udivsi3>
40008628:	e1a03000 	mov	r3, r0
4000862c:	e50b3064 	str	r3, [fp, #-100]	; 0x64
40008630:	e51b3018 	ldr	r3, [fp, #-24]
40008634:	e51b200c 	ldr	r2, [fp, #-12]
40008638:	e0823003 	add	r3, r2, r3
4000863c:	e5d32000 	ldrb	r2, [r3]
40008640:	e3e03057 	mvn	r3, #87	; 0x57
40008644:	e51b1010 	ldr	r1, [fp, #-16]
40008648:	e24b0004 	sub	r0, fp, #4
4000864c:	e0801001 	add	r1, r0, r1
40008650:	e0813003 	add	r3, r1, r3
40008654:	e5c32000 	strb	r2, [r3]
40008658:	e51b3010 	ldr	r3, [fp, #-16]
4000865c:	e2833001 	add	r3, r3, #1
40008660:	e50b3010 	str	r3, [fp, #-16]
40008664:	e51b3064 	ldr	r3, [fp, #-100]	; 0x64
40008668:	e3530000 	cmp	r3, #0
4000866c:	1affffdf 	bne	400085f0 <number+0x1b4>
40008670:	e51b3010 	ldr	r3, [fp, #-16]
40008674:	e58b3004 	str	r3, [fp, #4]
40008678:	e51b206c 	ldr	r2, [fp, #-108]	; 0x6c
4000867c:	e59b3004 	ldr	r3, [fp, #4]
40008680:	e0633002 	rsb	r3, r3, r2
40008684:	e50b306c 	str	r3, [fp, #-108]	; 0x6c
40008688:	e59b3008 	ldr	r3, [fp, #8]
4000868c:	e2033011 	and	r3, r3, #17
40008690:	e3530000 	cmp	r3, #0
40008694:	1a000010 	bne	400086dc <number+0x2a0>
40008698:	ea000005 	b	400086b4 <number+0x278>
4000869c:	e51b3060 	ldr	r3, [fp, #-96]	; 0x60
400086a0:	e3a02020 	mov	r2, #32
400086a4:	e5c32000 	strb	r2, [r3]
400086a8:	e51b3060 	ldr	r3, [fp, #-96]	; 0x60
400086ac:	e2833001 	add	r3, r3, #1
400086b0:	e50b3060 	str	r3, [fp, #-96]	; 0x60
400086b4:	e51b306c 	ldr	r3, [fp, #-108]	; 0x6c
400086b8:	e3530000 	cmp	r3, #0
400086bc:	d3a03000 	movle	r3, #0
400086c0:	c3a03001 	movgt	r3, #1
400086c4:	e20330ff 	and	r3, r3, #255	; 0xff
400086c8:	e51b206c 	ldr	r2, [fp, #-108]	; 0x6c
400086cc:	e2422001 	sub	r2, r2, #1
400086d0:	e50b206c 	str	r2, [fp, #-108]	; 0x6c
400086d4:	e3530000 	cmp	r3, #0
400086d8:	1affffef 	bne	4000869c <number+0x260>
400086dc:	e55b3005 	ldrb	r3, [fp, #-5]
400086e0:	e3530000 	cmp	r3, #0
400086e4:	0a000005 	beq	40008700 <number+0x2c4>
400086e8:	e51b3060 	ldr	r3, [fp, #-96]	; 0x60
400086ec:	e55b2005 	ldrb	r2, [fp, #-5]
400086f0:	e5c32000 	strb	r2, [r3]
400086f4:	e51b3060 	ldr	r3, [fp, #-96]	; 0x60
400086f8:	e2833001 	add	r3, r3, #1
400086fc:	e50b3060 	str	r3, [fp, #-96]	; 0x60
40008700:	e59b3008 	ldr	r3, [fp, #8]
40008704:	e2033020 	and	r3, r3, #32
40008708:	e3530000 	cmp	r3, #0
4000870c:	0a000019 	beq	40008778 <number+0x33c>
40008710:	e51b3068 	ldr	r3, [fp, #-104]	; 0x68
40008714:	e3530008 	cmp	r3, #8
40008718:	1a000006 	bne	40008738 <number+0x2fc>
4000871c:	e51b3060 	ldr	r3, [fp, #-96]	; 0x60
40008720:	e3a02030 	mov	r2, #48	; 0x30
40008724:	e5c32000 	strb	r2, [r3]
40008728:	e51b3060 	ldr	r3, [fp, #-96]	; 0x60
4000872c:	e2833001 	add	r3, r3, #1
40008730:	e50b3060 	str	r3, [fp, #-96]	; 0x60
40008734:	ea00000f 	b	40008778 <number+0x33c>
40008738:	e51b3068 	ldr	r3, [fp, #-104]	; 0x68
4000873c:	e3530010 	cmp	r3, #16
40008740:	1a00000c 	bne	40008778 <number+0x33c>
40008744:	e51b3060 	ldr	r3, [fp, #-96]	; 0x60
40008748:	e3a02030 	mov	r2, #48	; 0x30
4000874c:	e5c32000 	strb	r2, [r3]
40008750:	e51b3060 	ldr	r3, [fp, #-96]	; 0x60
40008754:	e2833001 	add	r3, r3, #1
40008758:	e50b3060 	str	r3, [fp, #-96]	; 0x60
4000875c:	e51b300c 	ldr	r3, [fp, #-12]
40008760:	e5d32021 	ldrb	r2, [r3, #33]	; 0x21
40008764:	e51b3060 	ldr	r3, [fp, #-96]	; 0x60
40008768:	e5c32000 	strb	r2, [r3]
4000876c:	e51b3060 	ldr	r3, [fp, #-96]	; 0x60
40008770:	e2833001 	add	r3, r3, #1
40008774:	e50b3060 	str	r3, [fp, #-96]	; 0x60
40008778:	e59b3008 	ldr	r3, [fp, #8]
4000877c:	e2033010 	and	r3, r3, #16
40008780:	e3530000 	cmp	r3, #0
40008784:	1a000018 	bne	400087ec <number+0x3b0>
40008788:	ea000005 	b	400087a4 <number+0x368>
4000878c:	e51b3060 	ldr	r3, [fp, #-96]	; 0x60
40008790:	e55b2011 	ldrb	r2, [fp, #-17]
40008794:	e5c32000 	strb	r2, [r3]
40008798:	e51b3060 	ldr	r3, [fp, #-96]	; 0x60
4000879c:	e2833001 	add	r3, r3, #1
400087a0:	e50b3060 	str	r3, [fp, #-96]	; 0x60
400087a4:	e51b306c 	ldr	r3, [fp, #-108]	; 0x6c
400087a8:	e3530000 	cmp	r3, #0
400087ac:	d3a03000 	movle	r3, #0
400087b0:	c3a03001 	movgt	r3, #1
400087b4:	e20330ff 	and	r3, r3, #255	; 0xff
400087b8:	e51b206c 	ldr	r2, [fp, #-108]	; 0x6c
400087bc:	e2422001 	sub	r2, r2, #1
400087c0:	e50b206c 	str	r2, [fp, #-108]	; 0x6c
400087c4:	e3530000 	cmp	r3, #0
400087c8:	1affffef 	bne	4000878c <number+0x350>
400087cc:	ea000006 	b	400087ec <number+0x3b0>
400087d0:	e51b3060 	ldr	r3, [fp, #-96]	; 0x60
400087d4:	e3a02030 	mov	r2, #48	; 0x30
400087d8:	e5c32000 	strb	r2, [r3]
400087dc:	e51b3060 	ldr	r3, [fp, #-96]	; 0x60
400087e0:	e2833001 	add	r3, r3, #1
400087e4:	e50b3060 	str	r3, [fp, #-96]	; 0x60
400087e8:	ea000000 	b	400087f0 <number+0x3b4>
400087ec:	e1a00000 	nop			; (mov r0, r0)
400087f0:	e59b2004 	ldr	r2, [fp, #4]
400087f4:	e51b3010 	ldr	r3, [fp, #-16]
400087f8:	e1520003 	cmp	r2, r3
400087fc:	d3a03000 	movle	r3, #0
40008800:	c3a03001 	movgt	r3, #1
40008804:	e20330ff 	and	r3, r3, #255	; 0xff
40008808:	e59b2004 	ldr	r2, [fp, #4]
4000880c:	e2422001 	sub	r2, r2, #1
40008810:	e58b2004 	str	r2, [fp, #4]
40008814:	e3530000 	cmp	r3, #0
40008818:	1affffec 	bne	400087d0 <number+0x394>
4000881c:	ea00000a 	b	4000884c <number+0x410>
40008820:	e3e03057 	mvn	r3, #87	; 0x57
40008824:	e51b2010 	ldr	r2, [fp, #-16]
40008828:	e24b1004 	sub	r1, fp, #4
4000882c:	e0812002 	add	r2, r1, r2
40008830:	e0823003 	add	r3, r2, r3
40008834:	e5d32000 	ldrb	r2, [r3]
40008838:	e51b3060 	ldr	r3, [fp, #-96]	; 0x60
4000883c:	e5c32000 	strb	r2, [r3]
40008840:	e51b3060 	ldr	r3, [fp, #-96]	; 0x60
40008844:	e2833001 	add	r3, r3, #1
40008848:	e50b3060 	str	r3, [fp, #-96]	; 0x60
4000884c:	e51b3010 	ldr	r3, [fp, #-16]
40008850:	e3530000 	cmp	r3, #0
40008854:	d3a03000 	movle	r3, #0
40008858:	c3a03001 	movgt	r3, #1
4000885c:	e20330ff 	and	r3, r3, #255	; 0xff
40008860:	e51b2010 	ldr	r2, [fp, #-16]
40008864:	e2422001 	sub	r2, r2, #1
40008868:	e50b2010 	str	r2, [fp, #-16]
4000886c:	e3530000 	cmp	r3, #0
40008870:	1affffea 	bne	40008820 <number+0x3e4>
40008874:	ea000005 	b	40008890 <number+0x454>
40008878:	e51b3060 	ldr	r3, [fp, #-96]	; 0x60
4000887c:	e3a02020 	mov	r2, #32
40008880:	e5c32000 	strb	r2, [r3]
40008884:	e51b3060 	ldr	r3, [fp, #-96]	; 0x60
40008888:	e2833001 	add	r3, r3, #1
4000888c:	e50b3060 	str	r3, [fp, #-96]	; 0x60
40008890:	e51b306c 	ldr	r3, [fp, #-108]	; 0x6c
40008894:	e3530000 	cmp	r3, #0
40008898:	d3a03000 	movle	r3, #0
4000889c:	c3a03001 	movgt	r3, #1
400088a0:	e20330ff 	and	r3, r3, #255	; 0xff
400088a4:	e51b206c 	ldr	r2, [fp, #-108]	; 0x6c
400088a8:	e2422001 	sub	r2, r2, #1
400088ac:	e50b206c 	str	r2, [fp, #-108]	; 0x6c
400088b0:	e3530000 	cmp	r3, #0
400088b4:	1affffef 	bne	40008878 <number+0x43c>
400088b8:	e51b3060 	ldr	r3, [fp, #-96]	; 0x60
400088bc:	e1a00003 	mov	r0, r3
400088c0:	e24bd004 	sub	sp, fp, #4
400088c4:	e8bd4800 	pop	{fp, lr}
400088c8:	e12fff1e 	bx	lr
400088cc:	4000977c 	andmi	r9, r0, ip, ror r7
400088d0:	400097a4 	andmi	r9, r0, r4, lsr #15

400088d4 <strnlen>:
400088d4:	e52db004 	push	{fp}		; (str fp, [sp, #-4]!)
400088d8:	e28db000 	add	fp, sp, #0
400088dc:	e24dd00c 	sub	sp, sp, #12
400088e0:	e50b0008 	str	r0, [fp, #-8]
400088e4:	e50b100c 	str	r1, [fp, #-12]
400088e8:	e51b3008 	ldr	r3, [fp, #-8]
400088ec:	e50b3004 	str	r3, [fp, #-4]
400088f0:	ea000002 	b	40008900 <strnlen+0x2c>
400088f4:	e51b3004 	ldr	r3, [fp, #-4]
400088f8:	e2833001 	add	r3, r3, #1
400088fc:	e50b3004 	str	r3, [fp, #-4]
40008900:	e51b300c 	ldr	r3, [fp, #-12]
40008904:	e3530000 	cmp	r3, #0
40008908:	03a03000 	moveq	r3, #0
4000890c:	13a03001 	movne	r3, #1
40008910:	e20330ff 	and	r3, r3, #255	; 0xff
40008914:	e51b200c 	ldr	r2, [fp, #-12]
40008918:	e2422001 	sub	r2, r2, #1
4000891c:	e50b200c 	str	r2, [fp, #-12]
40008920:	e3530000 	cmp	r3, #0
40008924:	0a000003 	beq	40008938 <strnlen+0x64>
40008928:	e51b3004 	ldr	r3, [fp, #-4]
4000892c:	e5d33000 	ldrb	r3, [r3]
40008930:	e3530000 	cmp	r3, #0
40008934:	1affffee 	bne	400088f4 <strnlen+0x20>
40008938:	e51b2004 	ldr	r2, [fp, #-4]
4000893c:	e51b3008 	ldr	r3, [fp, #-8]
40008940:	e0633002 	rsb	r3, r3, r2
40008944:	e1a00003 	mov	r0, r3
40008948:	e28bd000 	add	sp, fp, #0
4000894c:	e8bd0800 	pop	{fp}
40008950:	e12fff1e 	bx	lr

40008954 <vsprintf>:
40008954:	e92d4800 	push	{fp, lr}
40008958:	e28db004 	add	fp, sp, #4
4000895c:	e24dd044 	sub	sp, sp, #68	; 0x44
40008960:	e50b0038 	str	r0, [fp, #-56]	; 0x38
40008964:	e50b103c 	str	r1, [fp, #-60]	; 0x3c
40008968:	e50b2040 	str	r2, [fp, #-64]	; 0x40
4000896c:	e51b3038 	ldr	r3, [fp, #-56]	; 0x38
40008970:	e50b3014 	str	r3, [fp, #-20]
40008974:	ea000235 	b	40009250 <vsprintf+0x8fc>
40008978:	e51b303c 	ldr	r3, [fp, #-60]	; 0x3c
4000897c:	e5d33000 	ldrb	r3, [r3]
40008980:	e3530025 	cmp	r3, #37	; 0x25
40008984:	0a000007 	beq	400089a8 <vsprintf+0x54>
40008988:	e51b303c 	ldr	r3, [fp, #-60]	; 0x3c
4000898c:	e5d32000 	ldrb	r2, [r3]
40008990:	e51b3014 	ldr	r3, [fp, #-20]
40008994:	e5c32000 	strb	r2, [r3]
40008998:	e51b3014 	ldr	r3, [fp, #-20]
4000899c:	e2833001 	add	r3, r3, #1
400089a0:	e50b3014 	str	r3, [fp, #-20]
400089a4:	ea000226 	b	40009244 <vsprintf+0x8f0>
400089a8:	e3a03000 	mov	r3, #0
400089ac:	e50b301c 	str	r3, [fp, #-28]
400089b0:	e51b303c 	ldr	r3, [fp, #-60]	; 0x3c
400089b4:	e2833001 	add	r3, r3, #1
400089b8:	e50b303c 	str	r3, [fp, #-60]	; 0x3c
400089bc:	e51b303c 	ldr	r3, [fp, #-60]	; 0x3c
400089c0:	e5d33000 	ldrb	r3, [r3]
400089c4:	e2433020 	sub	r3, r3, #32
400089c8:	e3530010 	cmp	r3, #16
400089cc:	979ff103 	ldrls	pc, [pc, r3, lsl #2]
400089d0:	ea000024 	b	40008a68 <vsprintf+0x114>
400089d4:	40008a38 	andmi	r8, r0, r8, lsr sl
400089d8:	40008a68 	andmi	r8, r0, r8, ror #20
400089dc:	40008a68 	andmi	r8, r0, r8, ror #20
400089e0:	40008a48 	andmi	r8, r0, r8, asr #20
400089e4:	40008a68 	andmi	r8, r0, r8, ror #20
400089e8:	40008a68 	andmi	r8, r0, r8, ror #20
400089ec:	40008a68 	andmi	r8, r0, r8, ror #20
400089f0:	40008a68 	andmi	r8, r0, r8, ror #20
400089f4:	40008a68 	andmi	r8, r0, r8, ror #20
400089f8:	40008a68 	andmi	r8, r0, r8, ror #20
400089fc:	40008a68 	andmi	r8, r0, r8, ror #20
40008a00:	40008a28 	andmi	r8, r0, r8, lsr #20
40008a04:	40008a68 	andmi	r8, r0, r8, ror #20
40008a08:	40008a18 	andmi	r8, r0, r8, lsl sl
40008a0c:	40008a68 	andmi	r8, r0, r8, ror #20
40008a10:	40008a68 	andmi	r8, r0, r8, ror #20
40008a14:	40008a58 	andmi	r8, r0, r8, asr sl
40008a18:	e51b301c 	ldr	r3, [fp, #-28]
40008a1c:	e3833010 	orr	r3, r3, #16
40008a20:	e50b301c 	str	r3, [fp, #-28]
40008a24:	eaffffe1 	b	400089b0 <vsprintf+0x5c>
40008a28:	e51b301c 	ldr	r3, [fp, #-28]
40008a2c:	e3833004 	orr	r3, r3, #4
40008a30:	e50b301c 	str	r3, [fp, #-28]
40008a34:	eaffffdd 	b	400089b0 <vsprintf+0x5c>
40008a38:	e51b301c 	ldr	r3, [fp, #-28]
40008a3c:	e3833008 	orr	r3, r3, #8
40008a40:	e50b301c 	str	r3, [fp, #-28]
40008a44:	eaffffd9 	b	400089b0 <vsprintf+0x5c>
40008a48:	e51b301c 	ldr	r3, [fp, #-28]
40008a4c:	e3833020 	orr	r3, r3, #32
40008a50:	e50b301c 	str	r3, [fp, #-28]
40008a54:	eaffffd5 	b	400089b0 <vsprintf+0x5c>
40008a58:	e51b301c 	ldr	r3, [fp, #-28]
40008a5c:	e3833001 	orr	r3, r3, #1
40008a60:	e50b301c 	str	r3, [fp, #-28]
40008a64:	eaffffd1 	b	400089b0 <vsprintf+0x5c>
40008a68:	e3e03000 	mvn	r3, #0
40008a6c:	e50b3020 	str	r3, [fp, #-32]
40008a70:	e51b303c 	ldr	r3, [fp, #-60]	; 0x3c
40008a74:	e5d33000 	ldrb	r3, [r3]
40008a78:	e353002f 	cmp	r3, #47	; 0x2f
40008a7c:	9a000008 	bls	40008aa4 <vsprintf+0x150>
40008a80:	e51b303c 	ldr	r3, [fp, #-60]	; 0x3c
40008a84:	e5d33000 	ldrb	r3, [r3]
40008a88:	e3530039 	cmp	r3, #57	; 0x39
40008a8c:	8a000004 	bhi	40008aa4 <vsprintf+0x150>
40008a90:	e24b303c 	sub	r3, fp, #60	; 0x3c
40008a94:	e1a00003 	mov	r0, r3
40008a98:	ebfffe42 	bl	400083a8 <skip_atoi>
40008a9c:	e50b0020 	str	r0, [fp, #-32]
40008aa0:	ea000014 	b	40008af8 <vsprintf+0x1a4>
40008aa4:	e51b303c 	ldr	r3, [fp, #-60]	; 0x3c
40008aa8:	e5d33000 	ldrb	r3, [r3]
40008aac:	e353002a 	cmp	r3, #42	; 0x2a
40008ab0:	1a000010 	bne	40008af8 <vsprintf+0x1a4>
40008ab4:	e51b303c 	ldr	r3, [fp, #-60]	; 0x3c
40008ab8:	e2833001 	add	r3, r3, #1
40008abc:	e50b303c 	str	r3, [fp, #-60]	; 0x3c
40008ac0:	e51b3040 	ldr	r3, [fp, #-64]	; 0x40
40008ac4:	e2832004 	add	r2, r3, #4
40008ac8:	e50b2040 	str	r2, [fp, #-64]	; 0x40
40008acc:	e5933000 	ldr	r3, [r3]
40008ad0:	e50b3020 	str	r3, [fp, #-32]
40008ad4:	e51b3020 	ldr	r3, [fp, #-32]
40008ad8:	e3530000 	cmp	r3, #0
40008adc:	aa000005 	bge	40008af8 <vsprintf+0x1a4>
40008ae0:	e51b3020 	ldr	r3, [fp, #-32]
40008ae4:	e2633000 	rsb	r3, r3, #0
40008ae8:	e50b3020 	str	r3, [fp, #-32]
40008aec:	e51b301c 	ldr	r3, [fp, #-28]
40008af0:	e3833010 	orr	r3, r3, #16
40008af4:	e50b301c 	str	r3, [fp, #-28]
40008af8:	e3e03000 	mvn	r3, #0
40008afc:	e50b3024 	str	r3, [fp, #-36]	; 0x24
40008b00:	e51b303c 	ldr	r3, [fp, #-60]	; 0x3c
40008b04:	e5d33000 	ldrb	r3, [r3]
40008b08:	e353002e 	cmp	r3, #46	; 0x2e
40008b0c:	1a000020 	bne	40008b94 <vsprintf+0x240>
40008b10:	e51b303c 	ldr	r3, [fp, #-60]	; 0x3c
40008b14:	e2833001 	add	r3, r3, #1
40008b18:	e50b303c 	str	r3, [fp, #-60]	; 0x3c
40008b1c:	e51b303c 	ldr	r3, [fp, #-60]	; 0x3c
40008b20:	e5d33000 	ldrb	r3, [r3]
40008b24:	e353002f 	cmp	r3, #47	; 0x2f
40008b28:	9a000008 	bls	40008b50 <vsprintf+0x1fc>
40008b2c:	e51b303c 	ldr	r3, [fp, #-60]	; 0x3c
40008b30:	e5d33000 	ldrb	r3, [r3]
40008b34:	e3530039 	cmp	r3, #57	; 0x39
40008b38:	8a000004 	bhi	40008b50 <vsprintf+0x1fc>
40008b3c:	e24b303c 	sub	r3, fp, #60	; 0x3c
40008b40:	e1a00003 	mov	r0, r3
40008b44:	ebfffe17 	bl	400083a8 <skip_atoi>
40008b48:	e50b0024 	str	r0, [fp, #-36]	; 0x24
40008b4c:	ea00000b 	b	40008b80 <vsprintf+0x22c>
40008b50:	e51b303c 	ldr	r3, [fp, #-60]	; 0x3c
40008b54:	e5d33000 	ldrb	r3, [r3]
40008b58:	e353002a 	cmp	r3, #42	; 0x2a
40008b5c:	1a000007 	bne	40008b80 <vsprintf+0x22c>
40008b60:	e51b303c 	ldr	r3, [fp, #-60]	; 0x3c
40008b64:	e2833001 	add	r3, r3, #1
40008b68:	e50b303c 	str	r3, [fp, #-60]	; 0x3c
40008b6c:	e51b3040 	ldr	r3, [fp, #-64]	; 0x40
40008b70:	e2832004 	add	r2, r3, #4
40008b74:	e50b2040 	str	r2, [fp, #-64]	; 0x40
40008b78:	e5933000 	ldr	r3, [r3]
40008b7c:	e50b3024 	str	r3, [fp, #-36]	; 0x24
40008b80:	e51b3024 	ldr	r3, [fp, #-36]	; 0x24
40008b84:	e3530000 	cmp	r3, #0
40008b88:	aa000001 	bge	40008b94 <vsprintf+0x240>
40008b8c:	e3a03000 	mov	r3, #0
40008b90:	e50b3024 	str	r3, [fp, #-36]	; 0x24
40008b94:	e3e03000 	mvn	r3, #0
40008b98:	e50b3028 	str	r3, [fp, #-40]	; 0x28
40008b9c:	e51b303c 	ldr	r3, [fp, #-60]	; 0x3c
40008ba0:	e5d33000 	ldrb	r3, [r3]
40008ba4:	e3530068 	cmp	r3, #104	; 0x68
40008ba8:	0a000017 	beq	40008c0c <vsprintf+0x2b8>
40008bac:	e51b303c 	ldr	r3, [fp, #-60]	; 0x3c
40008bb0:	e5d33000 	ldrb	r3, [r3]
40008bb4:	e353006c 	cmp	r3, #108	; 0x6c
40008bb8:	0a000013 	beq	40008c0c <vsprintf+0x2b8>
40008bbc:	e51b303c 	ldr	r3, [fp, #-60]	; 0x3c
40008bc0:	e5d33000 	ldrb	r3, [r3]
40008bc4:	e353004c 	cmp	r3, #76	; 0x4c
40008bc8:	0a00000f 	beq	40008c0c <vsprintf+0x2b8>
40008bcc:	e51b303c 	ldr	r3, [fp, #-60]	; 0x3c
40008bd0:	e5d33000 	ldrb	r3, [r3]
40008bd4:	e353005a 	cmp	r3, #90	; 0x5a
40008bd8:	0a00000b 	beq	40008c0c <vsprintf+0x2b8>
40008bdc:	e51b303c 	ldr	r3, [fp, #-60]	; 0x3c
40008be0:	e5d33000 	ldrb	r3, [r3]
40008be4:	e353007a 	cmp	r3, #122	; 0x7a
40008be8:	0a000007 	beq	40008c0c <vsprintf+0x2b8>
40008bec:	e51b303c 	ldr	r3, [fp, #-60]	; 0x3c
40008bf0:	e5d33000 	ldrb	r3, [r3]
40008bf4:	e3530074 	cmp	r3, #116	; 0x74
40008bf8:	0a000003 	beq	40008c0c <vsprintf+0x2b8>
40008bfc:	e51b303c 	ldr	r3, [fp, #-60]	; 0x3c
40008c00:	e5d33000 	ldrb	r3, [r3]
40008c04:	e3530071 	cmp	r3, #113	; 0x71
40008c08:	1a000012 	bne	40008c58 <vsprintf+0x304>
40008c0c:	e51b303c 	ldr	r3, [fp, #-60]	; 0x3c
40008c10:	e5d33000 	ldrb	r3, [r3]
40008c14:	e50b3028 	str	r3, [fp, #-40]	; 0x28
40008c18:	e51b3028 	ldr	r3, [fp, #-40]	; 0x28
40008c1c:	e353006c 	cmp	r3, #108	; 0x6c
40008c20:	1a000009 	bne	40008c4c <vsprintf+0x2f8>
40008c24:	e51b303c 	ldr	r3, [fp, #-60]	; 0x3c
40008c28:	e2833001 	add	r3, r3, #1
40008c2c:	e5d33000 	ldrb	r3, [r3]
40008c30:	e353006c 	cmp	r3, #108	; 0x6c
40008c34:	1a000004 	bne	40008c4c <vsprintf+0x2f8>
40008c38:	e3a03071 	mov	r3, #113	; 0x71
40008c3c:	e50b3028 	str	r3, [fp, #-40]	; 0x28
40008c40:	e51b303c 	ldr	r3, [fp, #-60]	; 0x3c
40008c44:	e2833001 	add	r3, r3, #1
40008c48:	e50b303c 	str	r3, [fp, #-60]	; 0x3c
40008c4c:	e51b303c 	ldr	r3, [fp, #-60]	; 0x3c
40008c50:	e2833001 	add	r3, r3, #1
40008c54:	e50b303c 	str	r3, [fp, #-60]	; 0x3c
40008c58:	e3a0300a 	mov	r3, #10
40008c5c:	e50b3010 	str	r3, [fp, #-16]
40008c60:	e51b303c 	ldr	r3, [fp, #-60]	; 0x3c
40008c64:	e5d33000 	ldrb	r3, [r3]
40008c68:	e2433025 	sub	r3, r3, #37	; 0x25
40008c6c:	e3530053 	cmp	r3, #83	; 0x53
40008c70:	979ff103 	ldrls	pc, [pc, r3, lsl #2]
40008c74:	ea00010d 	b	400090b0 <vsprintf+0x75c>
40008c78:	40009060 	andmi	r9, r0, r0, rrx
40008c7c:	400090b0 	strhmi	r9, [r0], -r0
40008c80:	400090b0 	strhmi	r9, [r0], -r0
40008c84:	400090b0 	strhmi	r9, [r0], -r0
40008c88:	400090b0 	strhmi	r9, [r0], -r0
40008c8c:	400090b0 	strhmi	r9, [r0], -r0
40008c90:	400090b0 	strhmi	r9, [r0], -r0
40008c94:	400090b0 	strhmi	r9, [r0], -r0
40008c98:	400090b0 	strhmi	r9, [r0], -r0
40008c9c:	400090b0 	strhmi	r9, [r0], -r0
40008ca0:	400090b0 	strhmi	r9, [r0], -r0
40008ca4:	400090b0 	strhmi	r9, [r0], -r0
40008ca8:	400090b0 	strhmi	r9, [r0], -r0
40008cac:	400090b0 	strhmi	r9, [r0], -r0
40008cb0:	400090b0 	strhmi	r9, [r0], -r0
40008cb4:	400090b0 	strhmi	r9, [r0], -r0
40008cb8:	400090b0 	strhmi	r9, [r0], -r0
40008cbc:	400090b0 	strhmi	r9, [r0], -r0
40008cc0:	400090b0 	strhmi	r9, [r0], -r0
40008cc4:	400090b0 	strhmi	r9, [r0], -r0
40008cc8:	400090b0 	strhmi	r9, [r0], -r0
40008ccc:	400090b0 	strhmi	r9, [r0], -r0
40008cd0:	400090b0 	strhmi	r9, [r0], -r0
40008cd4:	400090b0 	strhmi	r9, [r0], -r0
40008cd8:	400090b0 	strhmi	r9, [r0], -r0
40008cdc:	400090b0 	strhmi	r9, [r0], -r0
40008ce0:	400090b0 	strhmi	r9, [r0], -r0
40008ce4:	400090b0 	strhmi	r9, [r0], -r0
40008ce8:	400090b0 	strhmi	r9, [r0], -r0
40008cec:	400090b0 	strhmi	r9, [r0], -r0
40008cf0:	400090b0 	strhmi	r9, [r0], -r0
40008cf4:	400090b0 	strhmi	r9, [r0], -r0
40008cf8:	400090b0 	strhmi	r9, [r0], -r0
40008cfc:	400090b0 	strhmi	r9, [r0], -r0
40008d00:	400090b0 	strhmi	r9, [r0], -r0
40008d04:	400090b0 	strhmi	r9, [r0], -r0
40008d08:	400090b0 	strhmi	r9, [r0], -r0
40008d0c:	400090b0 	strhmi	r9, [r0], -r0
40008d10:	400090b0 	strhmi	r9, [r0], -r0
40008d14:	400090b0 	strhmi	r9, [r0], -r0
40008d18:	400090b0 	strhmi	r9, [r0], -r0
40008d1c:	400090b0 	strhmi	r9, [r0], -r0
40008d20:	400090b0 	strhmi	r9, [r0], -r0
40008d24:	400090b0 	strhmi	r9, [r0], -r0
40008d28:	400090b0 	strhmi	r9, [r0], -r0
40008d2c:	400090b0 	strhmi	r9, [r0], -r0
40008d30:	400090b0 	strhmi	r9, [r0], -r0
40008d34:	400090b0 	strhmi	r9, [r0], -r0
40008d38:	400090b0 	strhmi	r9, [r0], -r0
40008d3c:	400090b0 	strhmi	r9, [r0], -r0
40008d40:	400090b0 	strhmi	r9, [r0], -r0
40008d44:	40009088 	andmi	r9, r0, r8, lsl #1
40008d48:	400090b0 	strhmi	r9, [r0], -r0
40008d4c:	400090b0 	strhmi	r9, [r0], -r0
40008d50:	400090b0 	strhmi	r9, [r0], -r0
40008d54:	400090b0 	strhmi	r9, [r0], -r0
40008d58:	400090b0 	strhmi	r9, [r0], -r0
40008d5c:	400090b0 	strhmi	r9, [r0], -r0
40008d60:	400090b0 	strhmi	r9, [r0], -r0
40008d64:	400090b0 	strhmi	r9, [r0], -r0
40008d68:	400090b0 	strhmi	r9, [r0], -r0
40008d6c:	400090b0 	strhmi	r9, [r0], -r0
40008d70:	40008dc8 	andmi	r8, r0, r8, asr #27
40008d74:	400090a0 	andmi	r9, r0, r0, lsr #1
40008d78:	400090b0 	strhmi	r9, [r0], -r0
40008d7c:	400090b0 	strhmi	r9, [r0], -r0
40008d80:	400090b0 	strhmi	r9, [r0], -r0
40008d84:	400090b0 	strhmi	r9, [r0], -r0
40008d88:	400090a0 	andmi	r9, r0, r0, lsr #1
40008d8c:	400090b0 	strhmi	r9, [r0], -r0
40008d90:	400090b0 	strhmi	r9, [r0], -r0
40008d94:	400090b0 	strhmi	r9, [r0], -r0
40008d98:	400090b0 	strhmi	r9, [r0], -r0
40008d9c:	40008ffc 	strdmi	r8, [r0], -ip
40008da0:	4000907c 	andmi	r9, r0, ip, ror r0
40008da4:	40008fa0 	andmi	r8, r0, r0, lsr #31
40008da8:	400090b0 	strhmi	r9, [r0], -r0
40008dac:	400090b0 	strhmi	r9, [r0], -r0
40008db0:	40008e6c 	andmi	r8, r0, ip, ror #28
40008db4:	400090b0 	strhmi	r9, [r0], -r0
40008db8:	40009108 	andmi	r9, r0, r8, lsl #2
40008dbc:	400090b0 	strhmi	r9, [r0], -r0
40008dc0:	400090b0 	strhmi	r9, [r0], -r0
40008dc4:	40009094 	mulmi	r0, r4, r0
40008dc8:	e51b301c 	ldr	r3, [fp, #-28]
40008dcc:	e2033010 	and	r3, r3, #16
40008dd0:	e3530000 	cmp	r3, #0
40008dd4:	1a00000c 	bne	40008e0c <vsprintf+0x4b8>
40008dd8:	ea000005 	b	40008df4 <vsprintf+0x4a0>
40008ddc:	e51b3014 	ldr	r3, [fp, #-20]
40008de0:	e3a02020 	mov	r2, #32
40008de4:	e5c32000 	strb	r2, [r3]
40008de8:	e51b3014 	ldr	r3, [fp, #-20]
40008dec:	e2833001 	add	r3, r3, #1
40008df0:	e50b3014 	str	r3, [fp, #-20]
40008df4:	e51b3020 	ldr	r3, [fp, #-32]
40008df8:	e2433001 	sub	r3, r3, #1
40008dfc:	e50b3020 	str	r3, [fp, #-32]
40008e00:	e51b3020 	ldr	r3, [fp, #-32]
40008e04:	e3530000 	cmp	r3, #0
40008e08:	cafffff3 	bgt	40008ddc <vsprintf+0x488>
40008e0c:	e51b3040 	ldr	r3, [fp, #-64]	; 0x40
40008e10:	e2832004 	add	r2, r3, #4
40008e14:	e50b2040 	str	r2, [fp, #-64]	; 0x40
40008e18:	e5933000 	ldr	r3, [r3]
40008e1c:	e20320ff 	and	r2, r3, #255	; 0xff
40008e20:	e51b3014 	ldr	r3, [fp, #-20]
40008e24:	e5c32000 	strb	r2, [r3]
40008e28:	e51b3014 	ldr	r3, [fp, #-20]
40008e2c:	e2833001 	add	r3, r3, #1
40008e30:	e50b3014 	str	r3, [fp, #-20]
40008e34:	ea000005 	b	40008e50 <vsprintf+0x4fc>
40008e38:	e51b3014 	ldr	r3, [fp, #-20]
40008e3c:	e3a02020 	mov	r2, #32
40008e40:	e5c32000 	strb	r2, [r3]
40008e44:	e51b3014 	ldr	r3, [fp, #-20]
40008e48:	e2833001 	add	r3, r3, #1
40008e4c:	e50b3014 	str	r3, [fp, #-20]
40008e50:	e51b3020 	ldr	r3, [fp, #-32]
40008e54:	e2433001 	sub	r3, r3, #1
40008e58:	e50b3020 	str	r3, [fp, #-32]
40008e5c:	e51b3020 	ldr	r3, [fp, #-32]
40008e60:	e3530000 	cmp	r3, #0
40008e64:	cafffff3 	bgt	40008e38 <vsprintf+0x4e4>
40008e68:	ea0000f5 	b	40009244 <vsprintf+0x8f0>
40008e6c:	e51b3040 	ldr	r3, [fp, #-64]	; 0x40
40008e70:	e2832004 	add	r2, r3, #4
40008e74:	e50b2040 	str	r2, [fp, #-64]	; 0x40
40008e78:	e5933000 	ldr	r3, [r3]
40008e7c:	e50b3018 	str	r3, [fp, #-24]
40008e80:	e51b3018 	ldr	r3, [fp, #-24]
40008e84:	e3530000 	cmp	r3, #0
40008e88:	1a000001 	bne	40008e94 <vsprintf+0x540>
40008e8c:	e59f33f4 	ldr	r3, [pc, #1012]	; 40009288 <vsprintf+0x934>
40008e90:	e50b3018 	str	r3, [fp, #-24]
40008e94:	e51b3024 	ldr	r3, [fp, #-36]	; 0x24
40008e98:	e51b0018 	ldr	r0, [fp, #-24]
40008e9c:	e1a01003 	mov	r1, r3
40008ea0:	ebfffe8b 	bl	400088d4 <strnlen>
40008ea4:	e1a03000 	mov	r3, r0
40008ea8:	e50b302c 	str	r3, [fp, #-44]	; 0x2c
40008eac:	e51b301c 	ldr	r3, [fp, #-28]
40008eb0:	e2033010 	and	r3, r3, #16
40008eb4:	e3530000 	cmp	r3, #0
40008eb8:	1a000011 	bne	40008f04 <vsprintf+0x5b0>
40008ebc:	ea000005 	b	40008ed8 <vsprintf+0x584>
40008ec0:	e51b3014 	ldr	r3, [fp, #-20]
40008ec4:	e3a02020 	mov	r2, #32
40008ec8:	e5c32000 	strb	r2, [r3]
40008ecc:	e51b3014 	ldr	r3, [fp, #-20]
40008ed0:	e2833001 	add	r3, r3, #1
40008ed4:	e50b3014 	str	r3, [fp, #-20]
40008ed8:	e51b2020 	ldr	r2, [fp, #-32]
40008edc:	e51b302c 	ldr	r3, [fp, #-44]	; 0x2c
40008ee0:	e1520003 	cmp	r2, r3
40008ee4:	d3a03000 	movle	r3, #0
40008ee8:	c3a03001 	movgt	r3, #1
40008eec:	e20330ff 	and	r3, r3, #255	; 0xff
40008ef0:	e51b2020 	ldr	r2, [fp, #-32]
40008ef4:	e2422001 	sub	r2, r2, #1
40008ef8:	e50b2020 	str	r2, [fp, #-32]
40008efc:	e3530000 	cmp	r3, #0
40008f00:	1affffee 	bne	40008ec0 <vsprintf+0x56c>
40008f04:	e3a03000 	mov	r3, #0
40008f08:	e50b300c 	str	r3, [fp, #-12]
40008f0c:	ea00000c 	b	40008f44 <vsprintf+0x5f0>
40008f10:	e51b3018 	ldr	r3, [fp, #-24]
40008f14:	e5d32000 	ldrb	r2, [r3]
40008f18:	e51b3014 	ldr	r3, [fp, #-20]
40008f1c:	e5c32000 	strb	r2, [r3]
40008f20:	e51b3014 	ldr	r3, [fp, #-20]
40008f24:	e2833001 	add	r3, r3, #1
40008f28:	e50b3014 	str	r3, [fp, #-20]
40008f2c:	e51b3018 	ldr	r3, [fp, #-24]
40008f30:	e2833001 	add	r3, r3, #1
40008f34:	e50b3018 	str	r3, [fp, #-24]
40008f38:	e51b300c 	ldr	r3, [fp, #-12]
40008f3c:	e2833001 	add	r3, r3, #1
40008f40:	e50b300c 	str	r3, [fp, #-12]
40008f44:	e51b200c 	ldr	r2, [fp, #-12]
40008f48:	e51b302c 	ldr	r3, [fp, #-44]	; 0x2c
40008f4c:	e1520003 	cmp	r2, r3
40008f50:	baffffee 	blt	40008f10 <vsprintf+0x5bc>
40008f54:	ea000005 	b	40008f70 <vsprintf+0x61c>
40008f58:	e51b3014 	ldr	r3, [fp, #-20]
40008f5c:	e3a02020 	mov	r2, #32
40008f60:	e5c32000 	strb	r2, [r3]
40008f64:	e51b3014 	ldr	r3, [fp, #-20]
40008f68:	e2833001 	add	r3, r3, #1
40008f6c:	e50b3014 	str	r3, [fp, #-20]
40008f70:	e51b2020 	ldr	r2, [fp, #-32]
40008f74:	e51b302c 	ldr	r3, [fp, #-44]	; 0x2c
40008f78:	e1520003 	cmp	r2, r3
40008f7c:	d3a03000 	movle	r3, #0
40008f80:	c3a03001 	movgt	r3, #1
40008f84:	e20330ff 	and	r3, r3, #255	; 0xff
40008f88:	e51b2020 	ldr	r2, [fp, #-32]
40008f8c:	e2422001 	sub	r2, r2, #1
40008f90:	e50b2020 	str	r2, [fp, #-32]
40008f94:	e3530000 	cmp	r3, #0
40008f98:	1affffee 	bne	40008f58 <vsprintf+0x604>
40008f9c:	ea0000a8 	b	40009244 <vsprintf+0x8f0>
40008fa0:	e51b3020 	ldr	r3, [fp, #-32]
40008fa4:	e3730001 	cmn	r3, #1
40008fa8:	1a000004 	bne	40008fc0 <vsprintf+0x66c>
40008fac:	e3a03008 	mov	r3, #8
40008fb0:	e50b3020 	str	r3, [fp, #-32]
40008fb4:	e51b301c 	ldr	r3, [fp, #-28]
40008fb8:	e3833001 	orr	r3, r3, #1
40008fbc:	e50b301c 	str	r3, [fp, #-28]
40008fc0:	e51b3040 	ldr	r3, [fp, #-64]	; 0x40
40008fc4:	e2832004 	add	r2, r3, #4
40008fc8:	e50b2040 	str	r2, [fp, #-64]	; 0x40
40008fcc:	e5933000 	ldr	r3, [r3]
40008fd0:	e51b2024 	ldr	r2, [fp, #-36]	; 0x24
40008fd4:	e58d2000 	str	r2, [sp]
40008fd8:	e51b201c 	ldr	r2, [fp, #-28]
40008fdc:	e58d2004 	str	r2, [sp, #4]
40008fe0:	e51b0014 	ldr	r0, [fp, #-20]
40008fe4:	e1a01003 	mov	r1, r3
40008fe8:	e3a02010 	mov	r2, #16
40008fec:	e51b3020 	ldr	r3, [fp, #-32]
40008ff0:	ebfffd11 	bl	4000843c <number>
40008ff4:	e50b0014 	str	r0, [fp, #-20]
40008ff8:	ea000091 	b	40009244 <vsprintf+0x8f0>
40008ffc:	e51b3028 	ldr	r3, [fp, #-40]	; 0x28
40009000:	e353006c 	cmp	r3, #108	; 0x6c
40009004:	1a00000a 	bne	40009034 <vsprintf+0x6e0>
40009008:	e51b3040 	ldr	r3, [fp, #-64]	; 0x40
4000900c:	e2832004 	add	r2, r3, #4
40009010:	e50b2040 	str	r2, [fp, #-64]	; 0x40
40009014:	e5933000 	ldr	r3, [r3]
40009018:	e50b3030 	str	r3, [fp, #-48]	; 0x30
4000901c:	e51b2014 	ldr	r2, [fp, #-20]
40009020:	e51b3038 	ldr	r3, [fp, #-56]	; 0x38
40009024:	e0632002 	rsb	r2, r3, r2
40009028:	e51b3030 	ldr	r3, [fp, #-48]	; 0x30
4000902c:	e5832000 	str	r2, [r3]
40009030:	ea000083 	b	40009244 <vsprintf+0x8f0>
40009034:	e51b3040 	ldr	r3, [fp, #-64]	; 0x40
40009038:	e2832004 	add	r2, r3, #4
4000903c:	e50b2040 	str	r2, [fp, #-64]	; 0x40
40009040:	e5933000 	ldr	r3, [r3]
40009044:	e50b3034 	str	r3, [fp, #-52]	; 0x34
40009048:	e51b2014 	ldr	r2, [fp, #-20]
4000904c:	e51b3038 	ldr	r3, [fp, #-56]	; 0x38
40009050:	e0632002 	rsb	r2, r3, r2
40009054:	e51b3034 	ldr	r3, [fp, #-52]	; 0x34
40009058:	e5832000 	str	r2, [r3]
4000905c:	ea000078 	b	40009244 <vsprintf+0x8f0>
40009060:	e51b3014 	ldr	r3, [fp, #-20]
40009064:	e3a02025 	mov	r2, #37	; 0x25
40009068:	e5c32000 	strb	r2, [r3]
4000906c:	e51b3014 	ldr	r3, [fp, #-20]
40009070:	e2833001 	add	r3, r3, #1
40009074:	e50b3014 	str	r3, [fp, #-20]
40009078:	ea000071 	b	40009244 <vsprintf+0x8f0>
4000907c:	e3a03008 	mov	r3, #8
40009080:	e50b3010 	str	r3, [fp, #-16]
40009084:	ea000020 	b	4000910c <vsprintf+0x7b8>
40009088:	e51b301c 	ldr	r3, [fp, #-28]
4000908c:	e3833040 	orr	r3, r3, #64	; 0x40
40009090:	e50b301c 	str	r3, [fp, #-28]
40009094:	e3a03010 	mov	r3, #16
40009098:	e50b3010 	str	r3, [fp, #-16]
4000909c:	ea00001a 	b	4000910c <vsprintf+0x7b8>
400090a0:	e51b301c 	ldr	r3, [fp, #-28]
400090a4:	e3833002 	orr	r3, r3, #2
400090a8:	e50b301c 	str	r3, [fp, #-28]
400090ac:	ea000015 	b	40009108 <vsprintf+0x7b4>
400090b0:	e51b3014 	ldr	r3, [fp, #-20]
400090b4:	e3a02025 	mov	r2, #37	; 0x25
400090b8:	e5c32000 	strb	r2, [r3]
400090bc:	e51b3014 	ldr	r3, [fp, #-20]
400090c0:	e2833001 	add	r3, r3, #1
400090c4:	e50b3014 	str	r3, [fp, #-20]
400090c8:	e51b303c 	ldr	r3, [fp, #-60]	; 0x3c
400090cc:	e5d33000 	ldrb	r3, [r3]
400090d0:	e3530000 	cmp	r3, #0
400090d4:	0a000007 	beq	400090f8 <vsprintf+0x7a4>
400090d8:	e51b303c 	ldr	r3, [fp, #-60]	; 0x3c
400090dc:	e5d32000 	ldrb	r2, [r3]
400090e0:	e51b3014 	ldr	r3, [fp, #-20]
400090e4:	e5c32000 	strb	r2, [r3]
400090e8:	e51b3014 	ldr	r3, [fp, #-20]
400090ec:	e2833001 	add	r3, r3, #1
400090f0:	e50b3014 	str	r3, [fp, #-20]
400090f4:	ea000052 	b	40009244 <vsprintf+0x8f0>
400090f8:	e51b303c 	ldr	r3, [fp, #-60]	; 0x3c
400090fc:	e2433001 	sub	r3, r3, #1
40009100:	e50b303c 	str	r3, [fp, #-60]	; 0x3c
40009104:	ea00004e 	b	40009244 <vsprintf+0x8f0>
40009108:	e1a00000 	nop			; (mov r0, r0)
4000910c:	e51b3028 	ldr	r3, [fp, #-40]	; 0x28
40009110:	e353006c 	cmp	r3, #108	; 0x6c
40009114:	1a000005 	bne	40009130 <vsprintf+0x7dc>
40009118:	e51b3040 	ldr	r3, [fp, #-64]	; 0x40
4000911c:	e2832004 	add	r2, r3, #4
40009120:	e50b2040 	str	r2, [fp, #-64]	; 0x40
40009124:	e5933000 	ldr	r3, [r3]
40009128:	e50b3008 	str	r3, [fp, #-8]
4000912c:	ea000038 	b	40009214 <vsprintf+0x8c0>
40009130:	e51b3028 	ldr	r3, [fp, #-40]	; 0x28
40009134:	e353005a 	cmp	r3, #90	; 0x5a
40009138:	0a000002 	beq	40009148 <vsprintf+0x7f4>
4000913c:	e51b3028 	ldr	r3, [fp, #-40]	; 0x28
40009140:	e353007a 	cmp	r3, #122	; 0x7a
40009144:	1a000005 	bne	40009160 <vsprintf+0x80c>
40009148:	e51b3040 	ldr	r3, [fp, #-64]	; 0x40
4000914c:	e2832004 	add	r2, r3, #4
40009150:	e50b2040 	str	r2, [fp, #-64]	; 0x40
40009154:	e5933000 	ldr	r3, [r3]
40009158:	e50b3008 	str	r3, [fp, #-8]
4000915c:	ea00002c 	b	40009214 <vsprintf+0x8c0>
40009160:	e51b3028 	ldr	r3, [fp, #-40]	; 0x28
40009164:	e3530074 	cmp	r3, #116	; 0x74
40009168:	1a000005 	bne	40009184 <vsprintf+0x830>
4000916c:	e51b3040 	ldr	r3, [fp, #-64]	; 0x40
40009170:	e2832004 	add	r2, r3, #4
40009174:	e50b2040 	str	r2, [fp, #-64]	; 0x40
40009178:	e5933000 	ldr	r3, [r3]
4000917c:	e50b3008 	str	r3, [fp, #-8]
40009180:	ea000023 	b	40009214 <vsprintf+0x8c0>
40009184:	e51b3028 	ldr	r3, [fp, #-40]	; 0x28
40009188:	e3530068 	cmp	r3, #104	; 0x68
4000918c:	1a000011 	bne	400091d8 <vsprintf+0x884>
40009190:	e51b3040 	ldr	r3, [fp, #-64]	; 0x40
40009194:	e2832004 	add	r2, r3, #4
40009198:	e50b2040 	str	r2, [fp, #-64]	; 0x40
4000919c:	e5933000 	ldr	r3, [r3]
400091a0:	e1a03803 	lsl	r3, r3, #16
400091a4:	e1a03823 	lsr	r3, r3, #16
400091a8:	e50b3008 	str	r3, [fp, #-8]
400091ac:	e51b301c 	ldr	r3, [fp, #-28]
400091b0:	e2033002 	and	r3, r3, #2
400091b4:	e3530000 	cmp	r3, #0
400091b8:	0a000015 	beq	40009214 <vsprintf+0x8c0>
400091bc:	e51b3008 	ldr	r3, [fp, #-8]
400091c0:	e1a03803 	lsl	r3, r3, #16
400091c4:	e1a03823 	lsr	r3, r3, #16
400091c8:	e1a03803 	lsl	r3, r3, #16
400091cc:	e1a03843 	asr	r3, r3, #16
400091d0:	e50b3008 	str	r3, [fp, #-8]
400091d4:	ea00000e 	b	40009214 <vsprintf+0x8c0>
400091d8:	e51b301c 	ldr	r3, [fp, #-28]
400091dc:	e2033002 	and	r3, r3, #2
400091e0:	e3530000 	cmp	r3, #0
400091e4:	0a000005 	beq	40009200 <vsprintf+0x8ac>
400091e8:	e51b3040 	ldr	r3, [fp, #-64]	; 0x40
400091ec:	e2832004 	add	r2, r3, #4
400091f0:	e50b2040 	str	r2, [fp, #-64]	; 0x40
400091f4:	e5933000 	ldr	r3, [r3]
400091f8:	e50b3008 	str	r3, [fp, #-8]
400091fc:	ea000004 	b	40009214 <vsprintf+0x8c0>
40009200:	e51b3040 	ldr	r3, [fp, #-64]	; 0x40
40009204:	e2832004 	add	r2, r3, #4
40009208:	e50b2040 	str	r2, [fp, #-64]	; 0x40
4000920c:	e5933000 	ldr	r3, [r3]
40009210:	e50b3008 	str	r3, [fp, #-8]
40009214:	e51b2008 	ldr	r2, [fp, #-8]
40009218:	e51b3010 	ldr	r3, [fp, #-16]
4000921c:	e51b1024 	ldr	r1, [fp, #-36]	; 0x24
40009220:	e58d1000 	str	r1, [sp]
40009224:	e51b101c 	ldr	r1, [fp, #-28]
40009228:	e58d1004 	str	r1, [sp, #4]
4000922c:	e51b0014 	ldr	r0, [fp, #-20]
40009230:	e1a01002 	mov	r1, r2
40009234:	e1a02003 	mov	r2, r3
40009238:	e51b3020 	ldr	r3, [fp, #-32]
4000923c:	ebfffc7e 	bl	4000843c <number>
40009240:	e50b0014 	str	r0, [fp, #-20]
40009244:	e51b303c 	ldr	r3, [fp, #-60]	; 0x3c
40009248:	e2833001 	add	r3, r3, #1
4000924c:	e50b303c 	str	r3, [fp, #-60]	; 0x3c
40009250:	e51b303c 	ldr	r3, [fp, #-60]	; 0x3c
40009254:	e5d33000 	ldrb	r3, [r3]
40009258:	e3530000 	cmp	r3, #0
4000925c:	1afffdc5 	bne	40008978 <vsprintf+0x24>
40009260:	e51b3014 	ldr	r3, [fp, #-20]
40009264:	e3a02000 	mov	r2, #0
40009268:	e5c32000 	strb	r2, [r3]
4000926c:	e51b2014 	ldr	r2, [fp, #-20]
40009270:	e51b3038 	ldr	r3, [fp, #-56]	; 0x38
40009274:	e0633002 	rsb	r3, r3, r2
40009278:	e1a00003 	mov	r0, r3
4000927c:	e24bd004 	sub	sp, fp, #4
40009280:	e8bd4800 	pop	{fp, lr}
40009284:	e12fff1e 	bx	lr
40009288:	400097cc 	andmi	r9, r0, ip, asr #15

4000928c <sprintf>:
4000928c:	e92d000e 	push	{r1, r2, r3}
40009290:	e92d4800 	push	{fp, lr}
40009294:	e28db004 	add	fp, sp, #4
40009298:	e24dd00c 	sub	sp, sp, #12
4000929c:	e50b0010 	str	r0, [fp, #-16]
400092a0:	e28b2008 	add	r2, fp, #8
400092a4:	e24b300c 	sub	r3, fp, #12
400092a8:	e5832000 	str	r2, [r3]
400092ac:	e51b300c 	ldr	r3, [fp, #-12]
400092b0:	e51b0010 	ldr	r0, [fp, #-16]
400092b4:	e59b1004 	ldr	r1, [fp, #4]
400092b8:	e1a02003 	mov	r2, r3
400092bc:	ebfffda4 	bl	40008954 <vsprintf>
400092c0:	e50b0008 	str	r0, [fp, #-8]
400092c4:	e51b3008 	ldr	r3, [fp, #-8]
400092c8:	e1a00003 	mov	r0, r3
400092cc:	e24bd004 	sub	sp, fp, #4
400092d0:	e8bd4800 	pop	{fp, lr}
400092d4:	e28dd00c 	add	sp, sp, #12
400092d8:	e12fff1e 	bx	lr

400092dc <printf>:
400092dc:	e92d000f 	push	{r0, r1, r2, r3}
400092e0:	e92d4800 	push	{fp, lr}
400092e4:	e28db004 	add	fp, sp, #4
400092e8:	e24dd06c 	sub	sp, sp, #108	; 0x6c
400092ec:	e28b2008 	add	r2, fp, #8
400092f0:	e24b300c 	sub	r3, fp, #12
400092f4:	e5832000 	str	r2, [r3]
400092f8:	e51b300c 	ldr	r3, [fp, #-12]
400092fc:	e24b2070 	sub	r2, fp, #112	; 0x70
40009300:	e1a00002 	mov	r0, r2
40009304:	e59b1004 	ldr	r1, [fp, #4]
40009308:	e1a02003 	mov	r2, r3
4000930c:	ebfffd90 	bl	40008954 <vsprintf>
40009310:	e1a03000 	mov	r3, r0
40009314:	e50b3008 	str	r3, [fp, #-8]
40009318:	e24b3070 	sub	r3, fp, #112	; 0x70
4000931c:	e1a00003 	mov	r0, r3
40009320:	eb000033 	bl	400093f4 <puts>
40009324:	e24bd004 	sub	sp, fp, #4
40009328:	e8bd4800 	pop	{fp, lr}
4000932c:	e28dd010 	add	sp, sp, #16
40009330:	e12fff1e 	bx	lr

40009334 <uart_init>:
40009334:	e52db004 	push	{fp}		; (str fp, [sp, #-4]!)
40009338:	e28db000 	add	fp, sp, #0
4000933c:	e59f304c 	ldr	r3, [pc, #76]	; 40009390 <uart_init+0x5c>
40009340:	e59f2048 	ldr	r2, [pc, #72]	; 40009390 <uart_init+0x5c>
40009344:	e5922000 	ldr	r2, [r2]
40009348:	e3c220ff 	bic	r2, r2, #255	; 0xff
4000934c:	e3822022 	orr	r2, r2, #34	; 0x22
40009350:	e5832000 	str	r2, [r3]
40009354:	e59f3038 	ldr	r3, [pc, #56]	; 40009394 <uart_init+0x60>
40009358:	e3a02003 	mov	r2, #3
4000935c:	e5832000 	str	r2, [r3]
40009360:	e59f302c 	ldr	r3, [pc, #44]	; 40009394 <uart_init+0x60>
40009364:	e3a02005 	mov	r2, #5
40009368:	e5832004 	str	r2, [r3, #4]
4000936c:	e59f3020 	ldr	r3, [pc, #32]	; 40009394 <uart_init+0x60>
40009370:	e3a02035 	mov	r2, #53	; 0x35
40009374:	e5832028 	str	r2, [r3, #40]	; 0x28
40009378:	e59f3014 	ldr	r3, [pc, #20]	; 40009394 <uart_init+0x60>
4000937c:	e3a02005 	mov	r2, #5
40009380:	e583202c 	str	r2, [r3, #44]	; 0x2c
40009384:	e28bd000 	add	sp, fp, #0
40009388:	e8bd0800 	pop	{fp}
4000938c:	e12fff1e 	bx	lr
40009390:	11400020 	cmpne	r0, r0, lsr #32
40009394:	13820000 	orrne	r0, r2, #0

40009398 <putc>:
40009398:	e92d4800 	push	{fp, lr}
4000939c:	e28db004 	add	fp, sp, #4
400093a0:	e24dd004 	sub	sp, sp, #4
400093a4:	e1a03000 	mov	r3, r0
400093a8:	e54b3008 	strb	r3, [fp, #-8]
400093ac:	e1a00000 	nop			; (mov r0, r0)
400093b0:	e59f3038 	ldr	r3, [pc, #56]	; 400093f0 <putc+0x58>
400093b4:	e5933010 	ldr	r3, [r3, #16]
400093b8:	e2033002 	and	r3, r3, #2
400093bc:	e3530000 	cmp	r3, #0
400093c0:	0afffffa 	beq	400093b0 <putc+0x18>
400093c4:	e59f3024 	ldr	r3, [pc, #36]	; 400093f0 <putc+0x58>
400093c8:	e55b2008 	ldrb	r2, [fp, #-8]
400093cc:	e5832020 	str	r2, [r3, #32]
400093d0:	e55b3008 	ldrb	r3, [fp, #-8]
400093d4:	e353000a 	cmp	r3, #10
400093d8:	1a000001 	bne	400093e4 <putc+0x4c>
400093dc:	e3a0000d 	mov	r0, #13
400093e0:	ebffffec 	bl	40009398 <putc>
400093e4:	e24bd004 	sub	sp, fp, #4
400093e8:	e8bd4800 	pop	{fp, lr}
400093ec:	e12fff1e 	bx	lr
400093f0:	13820000 	orrne	r0, r2, #0

400093f4 <puts>:
400093f4:	e92d4800 	push	{fp, lr}
400093f8:	e28db004 	add	fp, sp, #4
400093fc:	e24dd004 	sub	sp, sp, #4
40009400:	e50b0008 	str	r0, [fp, #-8]
40009404:	ea000006 	b	40009424 <puts+0x30>
40009408:	e51b3008 	ldr	r3, [fp, #-8]
4000940c:	e5d33000 	ldrb	r3, [r3]
40009410:	e51b2008 	ldr	r2, [fp, #-8]
40009414:	e2822001 	add	r2, r2, #1
40009418:	e50b2008 	str	r2, [fp, #-8]
4000941c:	e1a00003 	mov	r0, r3
40009420:	ebffffdc 	bl	40009398 <putc>
40009424:	e51b3008 	ldr	r3, [fp, #-8]
40009428:	e5d33000 	ldrb	r3, [r3]
4000942c:	e3530000 	cmp	r3, #0
40009430:	1afffff4 	bne	40009408 <puts+0x14>
40009434:	e24bd004 	sub	sp, fp, #4
40009438:	e8bd4800 	pop	{fp, lr}
4000943c:	e12fff1e 	bx	lr

40009440 <__udivsi3>:
40009440:	e3510000 	cmp	r1, #0
40009444:	0a00001f 	beq	400094c8 <Ldiv0>
40009448:	e3a03001 	mov	r3, #1
4000944c:	e3a02000 	mov	r2, #0
40009450:	e1500001 	cmp	r0, r1
40009454:	3a000019 	bcc	400094c0 <Lgot_result>

40009458 <Loop1>:
40009458:	e3510201 	cmp	r1, #268435456	; 0x10000000
4000945c:	31510000 	cmpcc	r1, r0
40009460:	31a01201 	lslcc	r1, r1, #4
40009464:	31a03203 	lslcc	r3, r3, #4
40009468:	3afffffa 	bcc	40009458 <Loop1>

4000946c <Lbignum>:
4000946c:	e3510102 	cmp	r1, #-2147483648	; 0x80000000
40009470:	31510000 	cmpcc	r1, r0
40009474:	31a01081 	lslcc	r1, r1, #1
40009478:	31a03083 	lslcc	r3, r3, #1
4000947c:	3afffffa 	bcc	4000946c <Lbignum>

40009480 <Loop3>:
40009480:	e1500001 	cmp	r0, r1
40009484:	20400001 	subcs	r0, r0, r1
40009488:	21822003 	orrcs	r2, r2, r3
4000948c:	e15000a1 	cmp	r0, r1, lsr #1
40009490:	204000a1 	subcs	r0, r0, r1, lsr #1
40009494:	218220a3 	orrcs	r2, r2, r3, lsr #1
40009498:	e1500121 	cmp	r0, r1, lsr #2
4000949c:	20400121 	subcs	r0, r0, r1, lsr #2
400094a0:	21822123 	orrcs	r2, r2, r3, lsr #2
400094a4:	e15001a1 	cmp	r0, r1, lsr #3
400094a8:	204001a1 	subcs	r0, r0, r1, lsr #3
400094ac:	218221a3 	orrcs	r2, r2, r3, lsr #3
400094b0:	e3500000 	cmp	r0, #0
400094b4:	11b03223 	lsrsne	r3, r3, #4
400094b8:	11a01221 	lsrne	r1, r1, #4
400094bc:	1affffef 	bne	40009480 <Loop3>

400094c0 <Lgot_result>:
400094c0:	e1a00002 	mov	r0, r2
400094c4:	e1a0f00e 	mov	pc, lr

400094c8 <Ldiv0>:
400094c8:	e52de004 	push	{lr}		; (str lr, [sp, #-4]!)
400094cc:	e3a00000 	mov	r0, #0
400094d0:	e8bd8000 	pop	{pc}

400094d4 <__umodsi3>:
400094d4:	e3510000 	cmp	r1, #0
400094d8:	0a000026 	beq	40009578 <Ldiv0>
400094dc:	e3a03001 	mov	r3, #1
400094e0:	e1500001 	cmp	r0, r1
400094e4:	31a0f00e 	movcc	pc, lr

400094e8 <Loop1>:
400094e8:	e3510201 	cmp	r1, #268435456	; 0x10000000
400094ec:	31510000 	cmpcc	r1, r0
400094f0:	31a01201 	lslcc	r1, r1, #4
400094f4:	31a03203 	lslcc	r3, r3, #4
400094f8:	3afffffa 	bcc	400094e8 <Loop1>

400094fc <Lbignum>:
400094fc:	e3510102 	cmp	r1, #-2147483648	; 0x80000000
40009500:	31510000 	cmpcc	r1, r0
40009504:	31a01081 	lslcc	r1, r1, #1
40009508:	31a03083 	lslcc	r3, r3, #1
4000950c:	3afffffa 	bcc	400094fc <Lbignum>

40009510 <Loop3>:
40009510:	e3a02000 	mov	r2, #0
40009514:	e1500001 	cmp	r0, r1
40009518:	20400001 	subcs	r0, r0, r1
4000951c:	e15000a1 	cmp	r0, r1, lsr #1
40009520:	204000a1 	subcs	r0, r0, r1, lsr #1
40009524:	218220e3 	orrcs	r2, r2, r3, ror #1
40009528:	e1500121 	cmp	r0, r1, lsr #2
4000952c:	20400121 	subcs	r0, r0, r1, lsr #2
40009530:	21822163 	orrcs	r2, r2, r3, ror #2
40009534:	e15001a1 	cmp	r0, r1, lsr #3
40009538:	204001a1 	subcs	r0, r0, r1, lsr #3
4000953c:	218221e3 	orrcs	r2, r2, r3, ror #3
40009540:	e1a0c003 	mov	ip, r3
40009544:	e3500000 	cmp	r0, #0
40009548:	11b03223 	lsrsne	r3, r3, #4
4000954c:	11a01221 	lsrne	r1, r1, #4
40009550:	1affffee 	bne	40009510 <Loop3>
40009554:	e212220e 	ands	r2, r2, #-536870912	; 0xe0000000
40009558:	01a0f00e 	moveq	pc, lr
4000955c:	e11201ec 	tst	r2, ip, ror #3
40009560:	108001a1 	addne	r0, r0, r1, lsr #3
40009564:	e112016c 	tst	r2, ip, ror #2
40009568:	10800121 	addne	r0, r0, r1, lsr #2
4000956c:	e11200ec 	tst	r2, ip, ror #1
40009570:	108000a1 	addne	r0, r0, r1, lsr #1
40009574:	e1a0f00e 	mov	pc, lr

40009578 <Ldiv0>:
40009578:	e52de004 	push	{lr}		; (str lr, [sp, #-4]!)
4000957c:	e3a00000 	mov	r0, #0
40009580:	e8bd8000 	pop	{pc}

40009584 <do_irq>:
40009584:	e52db004 	push	{fp}		; (str fp, [sp, #-4]!)
40009588:	e28db000 	add	fp, sp, #0
4000958c:	e28bd000 	add	sp, fp, #0
40009590:	e8bd0800 	pop	{fp}
40009594:	e12fff1e 	bx	lr

40009598 <mydelay_ms>:
40009598:	e52db004 	push	{fp}		; (str fp, [sp, #-4]!)
4000959c:	e28db000 	add	fp, sp, #0
400095a0:	e24dd00c 	sub	sp, sp, #12
400095a4:	e50b000c 	str	r0, [fp, #-12]
400095a8:	ea000012 	b	400095f8 <mydelay_ms+0x60>
400095ac:	e3a03000 	mov	r3, #0
400095b0:	e50b3004 	str	r3, [fp, #-4]
400095b4:	ea00000c 	b	400095ec <mydelay_ms+0x54>
400095b8:	e3a03000 	mov	r3, #0
400095bc:	e50b3008 	str	r3, [fp, #-8]
400095c0:	ea000002 	b	400095d0 <mydelay_ms+0x38>
400095c4:	e51b3008 	ldr	r3, [fp, #-8]
400095c8:	e2833001 	add	r3, r3, #1
400095cc:	e50b3008 	str	r3, [fp, #-8]
400095d0:	e51b2008 	ldr	r2, [fp, #-8]
400095d4:	e59f3050 	ldr	r3, [pc, #80]	; 4000962c <mydelay_ms+0x94>
400095d8:	e1520003 	cmp	r2, r3
400095dc:	dafffff8 	ble	400095c4 <mydelay_ms+0x2c>
400095e0:	e51b3004 	ldr	r3, [fp, #-4]
400095e4:	e2833001 	add	r3, r3, #1
400095e8:	e50b3004 	str	r3, [fp, #-4]
400095ec:	e51b3004 	ldr	r3, [fp, #-4]
400095f0:	e3530004 	cmp	r3, #4
400095f4:	daffffef 	ble	400095b8 <mydelay_ms+0x20>
400095f8:	e51b300c 	ldr	r3, [fp, #-12]
400095fc:	e3530000 	cmp	r3, #0
40009600:	03a03000 	moveq	r3, #0
40009604:	13a03001 	movne	r3, #1
40009608:	e20330ff 	and	r3, r3, #255	; 0xff
4000960c:	e51b200c 	ldr	r2, [fp, #-12]
40009610:	e2422001 	sub	r2, r2, #1
40009614:	e50b200c 	str	r2, [fp, #-12]
40009618:	e3530000 	cmp	r3, #0
4000961c:	1affffe2 	bne	400095ac <mydelay_ms+0x14>
40009620:	e28bd000 	add	sp, fp, #0
40009624:	e8bd0800 	pop	{fp}
40009628:	e12fff1e 	bx	lr
4000962c:	00000201 	andeq	r0, r0, r1, lsl #4

40009630 <RTC_init>:
40009630:	e52db004 	push	{fp}		; (str fp, [sp, #-4]!)
40009634:	e28db000 	add	fp, sp, #0
40009638:	e59f3070 	ldr	r3, [pc, #112]	; 400096b0 <RTC_init+0x80>
4000963c:	e3a02001 	mov	r2, #1
40009640:	e5832000 	str	r2, [r3]
40009644:	e59f3068 	ldr	r3, [pc, #104]	; 400096b4 <RTC_init+0x84>
40009648:	e3a02011 	mov	r2, #17
4000964c:	e5832000 	str	r2, [r3]
40009650:	e59f305c 	ldr	r3, [pc, #92]	; 400096b4 <RTC_init+0x84>
40009654:	e3a02011 	mov	r2, #17
40009658:	e5832004 	str	r2, [r3, #4]
4000965c:	e59f3050 	ldr	r3, [pc, #80]	; 400096b4 <RTC_init+0x84>
40009660:	e3a02011 	mov	r2, #17
40009664:	e5832008 	str	r2, [r3, #8]
40009668:	e59f3044 	ldr	r3, [pc, #68]	; 400096b4 <RTC_init+0x84>
4000966c:	e3a02011 	mov	r2, #17
40009670:	e5832010 	str	r2, [r3, #16]
40009674:	e59f3038 	ldr	r3, [pc, #56]	; 400096b4 <RTC_init+0x84>
40009678:	e3a02011 	mov	r2, #17
4000967c:	e583200c 	str	r2, [r3, #12]
40009680:	e59f302c 	ldr	r3, [pc, #44]	; 400096b4 <RTC_init+0x84>
40009684:	e3a02011 	mov	r2, #17
40009688:	e5832014 	str	r2, [r3, #20]
4000968c:	e59f3020 	ldr	r3, [pc, #32]	; 400096b4 <RTC_init+0x84>
40009690:	e3a02011 	mov	r2, #17
40009694:	e5832018 	str	r2, [r3, #24]
40009698:	e59f3010 	ldr	r3, [pc, #16]	; 400096b0 <RTC_init+0x80>
4000969c:	e3a02000 	mov	r2, #0
400096a0:	e5832000 	str	r2, [r3]
400096a4:	e28bd000 	add	sp, fp, #0
400096a8:	e8bd0800 	pop	{fp}
400096ac:	e12fff1e 	bx	lr
400096b0:	10070040 	andne	r0, r7, r0, asr #32
400096b4:	10070070 	andne	r0, r7, r0, ror r0

400096b8 <main>:
400096b8:	e92d4800 	push	{fp, lr}
400096bc:	e28db004 	add	fp, sp, #4
400096c0:	e24dd004 	sub	sp, sp, #4
400096c4:	e59f309c 	ldr	r3, [pc, #156]	; 40009768 <main+0xb0>
400096c8:	e3a02201 	mov	r2, #268435456	; 0x10000000
400096cc:	e5832000 	str	r2, [r3]
400096d0:	ebffff17 	bl	40009334 <uart_init>
400096d4:	ebffffd5 	bl	40009630 <RTC_init>
400096d8:	e59f008c 	ldr	r0, [pc, #140]	; 4000976c <main+0xb4>
400096dc:	ebfffefe 	bl	400092dc <printf>
400096e0:	e59f3080 	ldr	r3, [pc, #128]	; 40009768 <main+0xb0>
400096e4:	e59f207c 	ldr	r2, [pc, #124]	; 40009768 <main+0xb0>
400096e8:	e5922004 	ldr	r2, [r2, #4]
400096ec:	e3822080 	orr	r2, r2, #128	; 0x80
400096f0:	e5832004 	str	r2, [r3, #4]
400096f4:	e3a00f7d 	mov	r0, #500	; 0x1f4
400096f8:	ebffffa6 	bl	40009598 <mydelay_ms>
400096fc:	e59f306c 	ldr	r3, [pc, #108]	; 40009770 <main+0xb8>
40009700:	e5931018 	ldr	r1, [r3, #24]
40009704:	e59f3064 	ldr	r3, [pc, #100]	; 40009770 <main+0xb8>
40009708:	e5932014 	ldr	r2, [r3, #20]
4000970c:	e59f305c 	ldr	r3, [pc, #92]	; 40009770 <main+0xb8>
40009710:	e5933010 	ldr	r3, [r3, #16]
40009714:	e59f0054 	ldr	r0, [pc, #84]	; 40009770 <main+0xb8>
40009718:	e590000c 	ldr	r0, [r0, #12]
4000971c:	e58d0000 	str	r0, [sp]
40009720:	e59f004c 	ldr	r0, [pc, #76]	; 40009774 <main+0xbc>
40009724:	ebfffeec 	bl	400092dc <printf>
40009728:	e59f3040 	ldr	r3, [pc, #64]	; 40009770 <main+0xb8>
4000972c:	e5931008 	ldr	r1, [r3, #8]
40009730:	e59f3038 	ldr	r3, [pc, #56]	; 40009770 <main+0xb8>
40009734:	e5932004 	ldr	r2, [r3, #4]
40009738:	e59f3030 	ldr	r3, [pc, #48]	; 40009770 <main+0xb8>
4000973c:	e5933000 	ldr	r3, [r3]
40009740:	e59f0030 	ldr	r0, [pc, #48]	; 40009778 <main+0xc0>
40009744:	ebfffee4 	bl	400092dc <printf>
40009748:	e59f3018 	ldr	r3, [pc, #24]	; 40009768 <main+0xb0>
4000974c:	e59f2014 	ldr	r2, [pc, #20]	; 40009768 <main+0xb0>
40009750:	e5922004 	ldr	r2, [r2, #4]
40009754:	e3c22080 	bic	r2, r2, #128	; 0x80
40009758:	e5832004 	str	r2, [r3, #4]
4000975c:	e3a00f7d 	mov	r0, #500	; 0x1f4
40009760:	ebffff8c 	bl	40009598 <mydelay_ms>
40009764:	eaffffdd 	b	400096e0 <main+0x28>
40009768:	11000c40 	tstne	r0, r0, asr #24
4000976c:	400097d4 	ldrdmi	r9, [r0], -r4
40009770:	10070070 	andne	r0, r7, r0, ror r0
40009774:	400097ec 	andmi	r9, r0, ip, ror #15
40009778:	40009814 	andmi	r9, r0, r4, lsl r8

Disassembly of section .rodata:

4000977c <.rodata>:
4000977c:	33323130 	teqcc	r2, #12
40009780:	37363534 			; <UNDEFINED> instruction: 0x37363534
40009784:	62613938 	rsbvs	r3, r1, #917504	; 0xe0000
40009788:	66656463 	strbtvs	r6, [r5], -r3, ror #8
4000978c:	6a696867 	bvs	41a63930 <_ctype+0x1a59900>
40009790:	6e6d6c6b 	cdpvs	12, 6, cr6, cr13, cr11, {3}
40009794:	7271706f 	rsbsvc	r7, r1, #111	; 0x6f
40009798:	76757473 			; <UNDEFINED> instruction: 0x76757473
4000979c:	7a797877 	bvc	41e67980 <_ctype+0x1e5d950>
400097a0:	00000000 	andeq	r0, r0, r0
400097a4:	33323130 	teqcc	r2, #12
400097a8:	37363534 			; <UNDEFINED> instruction: 0x37363534
400097ac:	42413938 	submi	r3, r1, #917504	; 0xe0000
400097b0:	46454443 	strbmi	r4, [r5], -r3, asr #8
400097b4:	4a494847 	bmi	4125b8d8 <_ctype+0x12518a8>
400097b8:	4e4d4c4b 	cdpmi	12, 4, cr4, cr13, cr11, {2}
400097bc:	5251504f 	subspl	r5, r1, #79	; 0x4f
400097c0:	56555453 			; <UNDEFINED> instruction: 0x56555453
400097c4:	5a595857 	bpl	4165f928 <_ctype+0x16558f8>
400097c8:	00000000 	andeq	r0, r0, r0
400097cc:	4c554e3c 	mrrcmi	14, 3, r4, r5, cr12
400097d0:	00003e4c 	andeq	r3, r0, ip, asr #28
400097d4:	2a2a2a0a 	bcs	40a94004 <_ctype+0xa89fd4>
400097d8:	202a2a2a 	eorcs	r2, sl, sl, lsr #20
400097dc:	20435452 	subcs	r5, r3, r2, asr r4
400097e0:	2a2a2a2a 	bcs	40a94090 <_ctype+0xa8a060>
400097e4:	202a2a2a 	eorcs	r2, sl, sl, lsr #20
400097e8:	0000000a 	andeq	r0, r0, sl
400097ec:	72616579 	rsbvc	r6, r1, #507510784	; 0x1e400000
400097f0:	25303220 	ldrcs	r3, [r0, #-544]!	; 0x220
400097f4:	203a2078 	eorscs	r2, sl, r8, ror r0
400097f8:	746e6f6d 	strbtvc	r6, [lr], #-3949	; 0xf6d
400097fc:	78252068 	stmdavc	r5!, {r3, r5, r6, sp}
40009800:	64203a20 	strtvs	r3, [r0], #-2592	; 0xa20
40009804:	20657461 	rsbcs	r7, r5, r1, ror #8
40009808:	3a207825 	bcc	408278a4 <_ctype+0x81d874>
4000980c:	20796164 	rsbscs	r6, r9, r4, ror #2
40009810:	00207825 	eoreq	r7, r0, r5, lsr #16
40009814:	72756f68 	rsbsvc	r6, r5, #416	; 0x1a0
40009818:	20782520 	rsbscs	r2, r8, r0, lsr #10
4000981c:	696d203a 	stmdbvs	sp!, {r1, r3, r4, r5, sp}^
40009820:	7825206e 	stmdavc	r5!, {r1, r2, r3, r5, r6, sp}
40009824:	73203a20 	teqvc	r0, #131072	; 0x20000
40009828:	25206365 	strcs	r6, [r0, #-869]!	; 0x365
4000982c:	00000a78 	andeq	r0, r0, r8, ror sl

Disassembly of section .data:

40009830 <stack>:
	...

4000a030 <_ctype>:
4000a030:	08080808 	stmdaeq	r8, {r3, fp}
4000a034:	08080808 	stmdaeq	r8, {r3, fp}
4000a038:	28282808 	stmdacs	r8!, {r3, fp, sp}
4000a03c:	08082828 	stmdaeq	r8, {r3, r5, fp, sp}
4000a040:	08080808 	stmdaeq	r8, {r3, fp}
4000a044:	08080808 	stmdaeq	r8, {r3, fp}
4000a048:	08080808 	stmdaeq	r8, {r3, fp}
4000a04c:	08080808 	stmdaeq	r8, {r3, fp}
4000a050:	101010a0 	andsne	r1, r0, r0, lsr #1
4000a054:	10101010 	andsne	r1, r0, r0, lsl r0
4000a058:	10101010 	andsne	r1, r0, r0, lsl r0
4000a05c:	10101010 	andsne	r1, r0, r0, lsl r0
4000a060:	04040404 	streq	r0, [r4], #-1028	; 0x404
4000a064:	04040404 	streq	r0, [r4], #-1028	; 0x404
4000a068:	10100404 	andsne	r0, r0, r4, lsl #8
4000a06c:	10101010 	andsne	r1, r0, r0, lsl r0
4000a070:	41414110 	cmpmi	r1, r0, lsl r1
4000a074:	01414141 	cmpeq	r1, r1, asr #2
4000a078:	01010101 	tsteq	r1, r1, lsl #2
4000a07c:	01010101 	tsteq	r1, r1, lsl #2
4000a080:	01010101 	tsteq	r1, r1, lsl #2
4000a084:	01010101 	tsteq	r1, r1, lsl #2
4000a088:	10010101 	andne	r0, r1, r1, lsl #2
4000a08c:	10101010 	andsne	r1, r0, r0, lsl r0
4000a090:	42424210 	submi	r4, r2, #1
4000a094:	02424242 	subeq	r4, r2, #536870916	; 0x20000004
4000a098:	02020202 	andeq	r0, r2, #536870912	; 0x20000000
4000a09c:	02020202 	andeq	r0, r2, #536870912	; 0x20000000
4000a0a0:	02020202 	andeq	r0, r2, #536870912	; 0x20000000
4000a0a4:	02020202 	andeq	r0, r2, #536870912	; 0x20000000
4000a0a8:	10020202 	andne	r0, r2, r2, lsl #4
4000a0ac:	08101010 	ldmdaeq	r0, {r4, ip}
	...
4000a0d0:	101010a0 	andsne	r1, r0, r0, lsr #1
4000a0d4:	10101010 	andsne	r1, r0, r0, lsl r0
4000a0d8:	10101010 	andsne	r1, r0, r0, lsl r0
4000a0dc:	10101010 	andsne	r1, r0, r0, lsl r0
4000a0e0:	10101010 	andsne	r1, r0, r0, lsl r0
4000a0e4:	10101010 	andsne	r1, r0, r0, lsl r0
4000a0e8:	10101010 	andsne	r1, r0, r0, lsl r0
4000a0ec:	10101010 	andsne	r1, r0, r0, lsl r0
4000a0f0:	01010101 	tsteq	r1, r1, lsl #2
4000a0f4:	01010101 	tsteq	r1, r1, lsl #2
4000a0f8:	01010101 	tsteq	r1, r1, lsl #2
4000a0fc:	01010101 	tsteq	r1, r1, lsl #2
4000a100:	01010101 	tsteq	r1, r1, lsl #2
4000a104:	10010101 	andne	r0, r1, r1, lsl #2
4000a108:	01010101 	tsteq	r1, r1, lsl #2
4000a10c:	02010101 	andeq	r0, r1, #1073741824	; 0x40000000
4000a110:	02020202 	andeq	r0, r2, #536870912	; 0x20000000
4000a114:	02020202 	andeq	r0, r2, #536870912	; 0x20000000
4000a118:	02020202 	andeq	r0, r2, #536870912	; 0x20000000
4000a11c:	02020202 	andeq	r0, r2, #536870912	; 0x20000000
4000a120:	02020202 	andeq	r0, r2, #536870912	; 0x20000000
4000a124:	10020202 	andne	r0, r2, r2, lsl #4
4000a128:	02020202 	andeq	r0, r2, #536870912	; 0x20000000
4000a12c:	02020202 	andeq	r0, r2, #536870912	; 0x20000000

Disassembly of section .ARM.attributes:

00000000 <.ARM.attributes>:
   0:	00000f41 	andeq	r0, r0, r1, asr #30
   4:	61656100 	cmnvs	r5, r0, lsl #2
   8:	01006962 	tsteq	r0, r2, ror #18
   c:	00000005 	andeq	r0, r0, r5

Disassembly of section .comment:

00000000 <.comment>:
   0:	3a434347 	bcc	10d0d24 <_start-0x3ef372dc>
   4:	4e472820 	cdpmi	8, 4, cr2, cr7, cr0, {1}
   8:	34202955 	strtcc	r2, [r0], #-2389	; 0x955
   c:	322e362e 	eorcc	r3, lr, #48234496	; 0x2e00000
	...

Disassembly of section .debug_line:

00000000 <.debug_line>:
   0:	00000079 	andeq	r0, r0, r9, ror r0
   4:	00240002 	eoreq	r0, r4, r2
   8:	01020000 	mrseq	r0, (UNDEF: 2)
   c:	000d0efb 	strdeq	r0, [sp], -fp
  10:	01010101 	tsteq	r1, r1, lsl #2
  14:	01000000 	mrseq	r0, (UNDEF: 0)
  18:	73010000 	movwvc	r0, #4096	; 0x1000
  1c:	74726174 	ldrbtvc	r6, [r2], #-372	; 0x174
  20:	74730000 	ldrbtvc	r0, [r3]
  24:	2e747261 	cdpcs	2, 7, cr7, cr4, cr1, {3}
  28:	00010053 	andeq	r0, r1, r3, asr r0
  2c:	05000000 	streq	r0, [r0]
  30:	00800002 	addeq	r0, r0, r2
  34:	2f2f1540 	svccs	0x002f1540
  38:	2f2f2f2f 	svccs	0x002f2f2f
  3c:	f20d032f 	vcgt.s8	d0, d13, d31
  40:	2f2f302f 	svccs	0x002f302f
  44:	342f302f 	strtcc	r3, [pc], #-47	; 4c <_start-0x40007fb4>
  48:	2f322f2f 	svccs	0x00322f2f
  4c:	2f2f2f33 	svccs	0x002f2f33
  50:	322f2f2f 	eorcc	r2, pc, #188	; 0xbc
  54:	2f2f2f2f 	svccs	0x002f2f2f
  58:	2f2f2f30 	svccs	0x002f2f30
  5c:	2f2f2f30 	svccs	0x002f2f30
  60:	302f3131 	eorcc	r3, pc, r1, lsr r1	; <UNPREDICTABLE>
  64:	2f302f2f 	svccs	0x00302f2f
  68:	2f2f302f 	svccs	0x002f302f
  6c:	302f2f30 	eorcc	r2, pc, r0, lsr pc	; <UNPREDICTABLE>
  70:	0a03302f 	beq	cc134 <_start-0x3ff3becc>
  74:	2f2f2f66 	svccs	0x002f2f66
  78:	01000c02 	tsteq	r0, r2, lsl #24
  7c:	00025301 	andeq	r5, r2, r1, lsl #6
  80:	52000200 	andpl	r0, r0, #0
  84:	02000000 	andeq	r0, r0, #0
  88:	0d0efb01 	vstreq	d15, [lr, #-4]
  8c:	01010100 	mrseq	r0, (UNDEF: 17)
  90:	00000001 	andeq	r0, r0, r1
  94:	01000001 	tsteq	r0, r1
  98:	6f632f2e 	svcvs	0x00632f2e
  9c:	6e6f6d6d 	cdpvs	13, 6, cr6, cr15, cr13, {3}
  a0:	636e692f 	cmnvs	lr, #770048	; 0xbc000
  a4:	6564756c 	strbvs	r7, [r4, #-1388]!	; 0x56c
  a8:	6d6f6300 	stclvs	3, cr6, [pc]	; b0 <_start-0x40007f50>
  ac:	2f6e6f6d 	svccs	0x006e6f6d
  b0:	00637273 	rsbeq	r7, r3, r3, ror r2
  b4:	79746300 	ldmdbvc	r4!, {r8, r9, sp, lr}^
  b8:	682e6570 	stmdavs	lr!, {r4, r5, r6, r8, sl, sp, lr}
  bc:	00000100 	andeq	r0, r0, r0, lsl #2
  c0:	6e697270 	mcrvs	2, 3, r7, cr9, cr0, {3}
  c4:	632e6674 	teqvs	lr, #121634816	; 0x7400000
  c8:	00000200 	andeq	r0, r0, r0, lsl #4
  cc:	61647473 	smcvs	18243	; 0x4743
  d0:	682e6772 	stmdavs	lr!, {r1, r4, r5, r6, r8, r9, sl, sp, lr}
  d4:	00000100 	andeq	r0, r0, r0, lsl #2
  d8:	02050000 	andeq	r0, r5, #0
  dc:	40008140 	andmi	r8, r0, r0, asr #2
  e0:	0100c403 	tsteq	r0, r3, lsl #8
  e4:	2f67bb9f 	svccs	0x0067bb9f
  e8:	bf030204 	svclt	0x00030204
  ec:	4cbb9e7f 	ldcmi	14, cr9, [fp], #508	; 0x1fc
  f0:	02006783 	andeq	r6, r0, #34340864	; 0x20c0000
  f4:	82060104 	andhi	r0, r6, #1
  f8:	684bf306 	stmdavs	fp, {r1, r2, r8, r9, ip, sp, lr, pc}^
  fc:	4c674d67 	stclmi	13, cr4, [r7], #-412	; 0xfffffe64
 100:	007fbb30 	rsbseq	fp, pc, r0, lsr fp	; <UNPREDICTABLE>
 104:	06010402 	streq	r0, [r1], -r2, lsl #8
 108:	0402002e 	streq	r0, [r2], #-46	; 0x2e
 10c:	0200d602 	andeq	sp, r0, #2097152	; 0x200000
 110:	00d60104 	sbcseq	r0, r6, r4, lsl #2
 114:	82020402 	andhi	r0, r2, #33554432	; 0x2000000
 118:	0200d706 	andeq	sp, r0, #1572864	; 0x180000
 11c:	d6060304 	strle	r0, [r6], -r4, lsl #6
 120:	05040200 	streq	r0, [r4, #-512]	; 0x200
 124:	67a36506 	strvs	r6, [r3, r6, lsl #10]!
 128:	bba12f67 	bllt	fe84becc <_ctype+0xbe841e9c>
 12c:	9f210883 	svcls	0x00210883
 130:	83822403 	orrhi	r2, r2, #50331648	; 0x3000000
 134:	02002f4c 	andeq	r2, r0, #304	; 0x130
 138:	c7080104 	strgt	r0, [r8, -r4, lsl #2]
 13c:	02040200 	andeq	r0, r4, #0
 140:	a0069e06 	andge	r9, r6, r6, lsl #28
 144:	8220032f 	eorhi	r0, r0, #-1140850688	; 0xbc000000
 148:	4b834dd8 	blmi	fe0d38b0 <_ctype+0xbe0c9880>
 14c:	02006783 	andeq	r6, r0, #34340864	; 0x20c0000
 150:	66060104 	strvs	r0, [r6], -r4, lsl #2
 154:	004b6706 	subeq	r6, fp, r6, lsl #14
 158:	06010402 	streq	r0, [r1], -r2, lsl #8
 15c:	0402009e 	streq	r0, [r2], #-158	; 0x9e
 160:	02004a02 	andeq	r4, r0, #8192	; 0x2000
 164:	002e0304 	eoreq	r0, lr, r4, lsl #6
 168:	06030402 	streq	r0, [r3], -r2, lsl #8
 16c:	0402002f 	streq	r0, [r2], #-47	; 0x2f
 170:	67834b03 	strvs	r4, [r3, r3, lsl #22]
 174:	8383674b 	orrhi	r6, r3, #19660800	; 0x12c0000
 178:	4b83834b 	blmi	fe0e0eac <_ctype+0xbe0d6e7c>
 17c:	83678369 	cmnhi	r7, #-1543503871	; 0xa4000001
 180:	674b6867 	strbvs	r6, [fp, -r7, ror #16]
 184:	00835a08 	addeq	r5, r3, r8, lsl #20
 188:	02010402 	andeq	r0, r1, #33554432	; 0x2000000
 18c:	4b691032 	blmi	1a4425c <_start-0x3e5c3da4>
 190:	002f8383 	eoreq	r8, pc, r3, lsl #7
 194:	b9010402 	stmdblt	r1, {r1, sl}
 198:	bb673e08 	bllt	19cf9c0 <_start-0x3e638640>
 19c:	67d76783 	ldrbvs	r6, [r7, r3, lsl #15]
 1a0:	2f83d9bb 	svccs	0x0083d9bb
 1a4:	01040200 	mrseq	r0, R12_usr
 1a8:	2f3e08b9 	svccs	0x003e08b9
 1ac:	040200d5 	streq	r0, [r2], #-213	; 0xd5
 1b0:	062e0601 	strteq	r0, [lr], -r1, lsl #12
 1b4:	002f5a08 	eoreq	r5, pc, r8, lsl #20
 1b8:	08010402 	stmdaeq	r1, {r1, sl}
 1bc:	2f3e0857 	svccs	0x003e0857
 1c0:	01040200 	mrseq	r0, R12_usr
 1c4:	2f3e08b9 	svccs	0x003e08b9
 1c8:	0200a1bf 	andeq	sl, r0, #-1073741777	; 0xc000002f
 1cc:	66060104 	strvs	r0, [r6], -r4, lsl #2
 1d0:	02040200 	andeq	r0, r4, #0
 1d4:	84069008 	strhi	r9, [r6], #-8
 1d8:	12038467 	andne	r8, r3, #1728053248	; 0x67000000
 1dc:	d78367ba 			; <UNDEFINED> instruction: 0xd78367ba
 1e0:	02674c32 	rsbeq	r4, r7, #12800	; 0x3200
 1e4:	8383132e 	orrhi	r1, r3, #-1207959552	; 0xb8000000
 1e8:	4b868383 	blmi	fe1a0ffc <_ctype+0xbe196fcc>
 1ec:	01040200 	mrseq	r0, R12_usr
 1f0:	83068206 	movwhi	r8, #25094	; 0x6206
 1f4:	9f68839f 	svcls	0x0068839f
 1f8:	4b6b6767 	blmi	1ad9f9c <_start-0x3e52e064>
 1fc:	02006783 	andeq	r6, r0, #34340864	; 0x20c0000
 200:	82060104 	andhi	r0, r6, #1
 204:	839f8306 	orrshi	r8, pc, #402653184	; 0x18000000
 208:	4e67a068 	cdpmi	0, 6, cr10, cr7, cr8, {3}
 20c:	0402004b 	streq	r0, [r2], #-75	; 0x4b
 210:	00820601 	addeq	r0, r2, r1, lsl #12
 214:	06010402 	streq	r0, [r1], -r2, lsl #8
 218:	040200f3 	streq	r0, [r2], #-243	; 0xf3
 21c:	004b4901 	subeq	r4, fp, r1, lsl #18
 220:	06010402 	streq	r0, [r1], -r2, lsl #8
 224:	04020082 	streq	r0, [r2], #-130	; 0x82
 228:	00830601 	addeq	r0, r3, r1, lsl #12
 22c:	49010402 	stmdbmi	r1, {r1, sl}
 230:	0200674c 	andeq	r6, r0, #19922944	; 0x1300000
 234:	66060104 	strvs	r0, [r6], -r4, lsl #2
 238:	684b9f06 	stmdavs	fp, {r1, r2, r8, r9, sl, fp, ip, pc}^
 23c:	b4024c6a 	strlt	r4, [r2], #-3178	; 0xc6a
 240:	2f831401 	svccs	0x00831401
 244:	01040200 	mrseq	r0, R12_usr
 248:	3d08bcb9 	stccc	12, cr11, [r8, #-740]	; 0xfffffd1c
 24c:	0402002f 	streq	r0, [r2], #-47	; 0x2f
 250:	31bcb901 			; <UNDEFINED> instruction: 0x31bcb901
 254:	bc4c679f 	mcrrlt	7, 9, r6, ip, cr15
 258:	02002f83 	andeq	r2, r0, #524	; 0x20c
 25c:	08b90104 	ldmeq	r9!, {r2, r8}
 260:	0402005a 	streq	r0, [r2], #-90	; 0x5a
 264:	02006702 	andeq	r6, r0, #524288	; 0x80000
 268:	3b080204 	blcc	200a80 <_start-0x3fe07580>
 26c:	01040200 	mrseq	r0, R12_usr
 270:	84066606 	strhi	r6, [r6], #-1542	; 0x606
 274:	0402002f 	streq	r0, [r2], #-47	; 0x2f
 278:	5a08b901 	bpl	22e684 <_start-0x3fdd997c>
 27c:	694b6731 	stmdbvs	fp, {r0, r4, r5, r8, r9, sl, sp, lr}^
 280:	323f0881 	eorscc	r0, pc, #8454144	; 0x810000
 284:	2ba39f67 	blcs	fe8e8028 <_ctype+0xbe8ddff8>
 288:	bb31a09f 	bllt	c6850c <_start-0x3f39faf4>
 28c:	68314b32 	ldmdavs	r1!, {r1, r4, r5, r8, r9, fp, lr}
 290:	3168324b 	cmncc	r8, fp, asr #4
 294:	2dd983bb 	ldclcs	3, cr8, [r9, #748]	; 0x2ec
 298:	2e780367 	cdpcs	3, 7, cr0, cr8, cr7, {3}
 29c:	672e0f03 	strvs	r0, [lr, -r3, lsl #30]!
 2a0:	040200bb 	streq	r0, [r2], #-187	; 0xbb
 2a4:	06660601 	strbteq	r0, [r6], -r1, lsl #12
 2a8:	bb67bb67 	bllt	19ef04c <_start-0x3e618fb4>
 2ac:	d783d767 	strle	sp, [r3, r7, ror #14]
 2b0:	039fbc83 	orrseq	fp, pc, #33536	; 0x8300
 2b4:	74087ee2 	strvc	r7, [r8], #-3810	; 0xee2
 2b8:	01040200 	mrseq	r0, R12_usr
 2bc:	03066606 	movweq	r6, #26118	; 0x6606
 2c0:	678201a0 	strvs	r0, [r2, r0, lsr #3]
 2c4:	67a2a167 	strvs	sl, [r2, r7, ror #2]!
 2c8:	86a12fbc 			; <UNDEFINED> instruction: 0x86a12fbc
 2cc:	0267f46b 	rsbeq	pc, r7, #1795162112	; 0x6b000000
 2d0:	01010008 	tsteq	r1, r8
 2d4:	00000079 	andeq	r0, r0, r9, ror r0
 2d8:	004a0002 	subeq	r0, sl, r2
 2dc:	01020000 	mrseq	r0, (UNDEF: 2)
 2e0:	000d0efb 	strdeq	r0, [sp], -fp
 2e4:	01010101 	tsteq	r1, r1, lsl #2
 2e8:	01000000 	mrseq	r0, (UNDEF: 0)
 2ec:	63010000 	movwvs	r0, #4096	; 0x1000
 2f0:	6f6d6d6f 	svcvs	0x006d6d6f
 2f4:	72732f6e 	rsbsvc	r2, r3, #440	; 0x1b8
 2f8:	2f2e0063 	svccs	0x002e0063
 2fc:	6d6d6f63 	stclvs	15, cr6, [sp, #-396]!	; 0xfffffe74
 300:	692f6e6f 	stmdbvs	pc!, {r0, r1, r2, r3, r5, r6, r9, sl, fp, sp, lr}	; <UNPREDICTABLE>
 304:	756c636e 	strbvc	r6, [ip, #-878]!	; 0x36e
 308:	00006564 	andeq	r6, r0, r4, ror #10
 30c:	74726175 	ldrbtvc	r6, [r2], #-373	; 0x175
 310:	0100632e 	tsteq	r0, lr, lsr #6
 314:	78650000 	stmdavc	r5!, {}^	; <UNPREDICTABLE>
 318:	736f6e79 	cmnvc	pc, #1936	; 0x790
 31c:	3134345f 	teqcc	r4, pc, asr r4
 320:	00682e32 	rsbeq	r2, r8, r2, lsr lr
 324:	00000002 	andeq	r0, r0, r2
 328:	34020500 	strcc	r0, [r2], #-1280	; 0x500
 32c:	15400093 	strbne	r0, [r0, #-147]	; 0x93
 330:	6867bc4d 	stmdavs	r7!, {r0, r2, r3, r6, sl, fp, ip, sp, pc}^
 334:	9fa16767 	svcls	0x00a16767
 338:	01040200 	mrseq	r0, R12_usr
 33c:	9f062e06 	svcls	0x00062e06
 340:	844b6767 	strbhi	r6, [fp], #-1895	; 0x767
 344:	02002f83 	andeq	r2, r0, #524	; 0x20c
 348:	84d50104 	ldrbhi	r0, [r5], #260	; 0x104
 34c:	01000602 	tsteq	r0, r2, lsl #12
 350:	00006501 	andeq	r6, r0, r1, lsl #10
 354:	2c000200 	sfmcs	f0, 4, [r0], {0}
 358:	02000000 	andeq	r0, r0, #0
 35c:	0d0efb01 	vstreq	d15, [lr, #-4]
 360:	01010100 	mrseq	r0, (UNDEF: 17)
 364:	00000001 	andeq	r0, r0, r1
 368:	01000001 	tsteq	r0, r1
 36c:	6d6d6f63 	stclvs	15, cr6, [sp, #-396]!	; 0xfffffe74
 370:	732f6e6f 	teqvc	pc, #1776	; 0x6f0
 374:	00006372 	andeq	r6, r0, r2, ror r3
 378:	6964755f 	stmdbvs	r4!, {r0, r1, r2, r3, r4, r6, r8, sl, ip, sp, lr}^
 37c:	33697376 	cmncc	r9, #-671088639	; 0xd8000001
 380:	0100532e 	tsteq	r0, lr, lsr #6
 384:	00000000 	andeq	r0, r0, r0
 388:	94400205 	strbls	r0, [r0], #-517	; 0x205
 38c:	11034000 	mrsne	r4, (UNDEF: 3)
 390:	2f2f2f01 	svccs	0x002f2f01
 394:	2f342f2f 	svccs	0x00342f2f
 398:	322f2f2f 	eorcc	r2, pc, #188	; 0xbc
 39c:	2f2f2f2f 	svccs	0x002f2f2f
 3a0:	2f2f2f34 	svccs	0x002f2f34
 3a4:	2f2f2f2f 	svccs	0x002f2f2f
 3a8:	2f2f2f2f 	svccs	0x002f2f2f
 3ac:	2f2f2f2f 	svccs	0x002f2f2f
 3b0:	30302f30 	eorscc	r2, r0, r0, lsr pc
 3b4:	0002022f 	andeq	r0, r2, pc, lsr #4
 3b8:	006c0101 	rsbeq	r0, ip, r1, lsl #2
 3bc:	00020000 	andeq	r0, r2, r0
 3c0:	0000002c 	andeq	r0, r0, ip, lsr #32
 3c4:	0efb0102 	cdpeq	1, 15, cr0, cr11, cr2, {0}
 3c8:	0101000d 	tsteq	r1, sp
 3cc:	00000101 	andeq	r0, r0, r1, lsl #2
 3d0:	00000100 	andeq	r0, r0, r0, lsl #2
 3d4:	6d6f6301 	stclvs	3, cr6, [pc, #-4]!	; 3d8 <_start-0x40007c28>
 3d8:	2f6e6f6d 	svccs	0x006e6f6d
 3dc:	00637273 	rsbeq	r7, r3, r3, ror r2
 3e0:	6d755f00 	ldclvs	15, cr5, [r5]
 3e4:	6973646f 	ldmdbvs	r3!, {r0, r1, r2, r3, r5, r6, sl, sp, lr}^
 3e8:	00532e33 	subseq	r2, r3, r3, lsr lr
 3ec:	00000001 	andeq	r0, r0, r1
 3f0:	d4020500 	strle	r0, [r2], #-1280	; 0x500
 3f4:	03400094 	movteq	r0, #148	; 0x94
 3f8:	2f2f0112 	svccs	0x002f0112
 3fc:	2f342f2f 	svccs	0x00342f2f
 400:	322f2f2f 	eorcc	r2, pc, #188	; 0xbc
 404:	2f2f2f2f 	svccs	0x002f2f2f
 408:	2f2f2f33 	svccs	0x002f2f33
 40c:	2f2f2f2f 	svccs	0x002f2f2f
 410:	2f2f2f2f 	svccs	0x002f2f2f
 414:	2f2f2f2f 	svccs	0x002f2f2f
 418:	2f2f352f 	svccs	0x002f352f
 41c:	2f2f2f2f 	svccs	0x002f2f2f
 420:	30302f2f 	eorscc	r2, r0, pc, lsr #30
 424:	0002022f 	andeq	r0, r2, pc, lsr #4
 428:	00c90101 	sbceq	r0, r9, r1, lsl #2
 42c:	00020000 	andeq	r0, r2, r0
 430:	0000003f 	andeq	r0, r0, pc, lsr r0
 434:	0efb0102 	cdpeq	1, 15, cr0, cr11, cr2, {0}
 438:	0101000d 	tsteq	r1, sp
 43c:	00000101 	andeq	r0, r0, r1, lsl #2
 440:	00000100 	andeq	r0, r0, r0, lsl #2
 444:	632f2e01 	teqvs	pc, #16
 448:	6f6d6d6f 	svcvs	0x006d6d6f
 44c:	6e692f6e 	cdpvs	15, 6, cr2, cr9, cr14, {3}
 450:	64756c63 	ldrbtvs	r6, [r5], #-3171	; 0xc63
 454:	6d000065 	stcvs	0, cr0, [r0, #-404]	; 0xfffffe6c
 458:	2e6e6961 	cdpcs	9, 6, cr6, cr14, cr1, {3}
 45c:	00000063 	andeq	r0, r0, r3, rrx
 460:	79786500 	ldmdbvc	r8!, {r8, sl, sp, lr}^
 464:	5f736f6e 	svcpl	0x00736f6e
 468:	32313434 	eorscc	r3, r1, #872415232	; 0x34000000
 46c:	0100682e 	tsteq	r0, lr, lsr #16
 470:	00000000 	andeq	r0, r0, r0
 474:	95840205 	strls	r0, [r4, #517]	; 0x205
 478:	0f034000 	svceq	0x00034000
 47c:	09034c01 	stmdbeq	r3, {r0, sl, fp, lr}
 480:	67308466 	ldrvs	r8, [r0, -r6, ror #8]!
 484:	02040200 	andeq	r0, r4, #0
 488:	02006606 	andeq	r6, r0, #6291456	; 0x600000
 48c:	06660104 	strbteq	r0, [r6], -r4, lsl #2
 490:	04020081 	streq	r0, [r2], #-129	; 0x81
 494:	00660601 	rsbeq	r0, r6, r1, lsl #12
 498:	06010402 	streq	r0, [r1], -r2, lsl #8
 49c:	8a410864 	bhi	1042634 <_start-0x3efc59cc>
 4a0:	6767684b 	strbvs	r6, [r7, -fp, asr #16]!
 4a4:	67676767 	strbvs	r6, [r7, -r7, ror #14]!
 4a8:	09036868 	stmdbeq	r3, {r3, r5, r6, fp, sp, lr}
 4ac:	3067679e 	mlscc	r7, lr, r7, r6
 4b0:	04020030 	streq	r0, [r2], #-48	; 0x30
 4b4:	02004f01 	andeq	r4, r0, #4
 4b8:	009f0104 	addseq	r0, pc, r4, lsl #2
 4bc:	4c010402 	cfstrsmi	mvf0, [r1], {2}
 4c0:	01040200 	mrseq	r0, R12_usr
 4c4:	0402004b 	streq	r0, [r2], #-75	; 0x4b
 4c8:	02002d01 	andeq	r2, r0, #64	; 0x40
 4cc:	00300104 	eorseq	r0, r0, r4, lsl #2
 4d0:	2c010402 	cfstrscs	mvf0, [r1], {2}
 4d4:	01040200 	mrseq	r0, R12_usr
 4d8:	04020031 	streq	r0, [r2], #-49	; 0x31
 4dc:	02002b01 	andeq	r2, r0, #1024	; 0x400
 4e0:	00870104 	addeq	r0, r7, r4, lsl #2
 4e4:	f4010402 	vst3.8	{d0-d2}, [r1], r2
 4e8:	01040200 	mrseq	r0, R12_usr
 4ec:	0402009f 	streq	r0, [r2], #-159	; 0x9f
 4f0:	0c024b01 	stceq	11, cr4, [r2], {1}
 4f4:	Address 0x000004f4 is out of bounds.


Disassembly of section .debug_info:

00000000 <.debug_info>:
   0:	0000004c 	andeq	r0, r0, ip, asr #32
   4:	00000002 	andeq	r0, r0, r2
   8:	01040000 	mrseq	r0, (UNDEF: 4)
   c:	00000000 	andeq	r0, r0, r0
  10:	40008000 	andmi	r8, r0, r0
  14:	40008134 	andmi	r8, r0, r4, lsr r1
  18:	72617473 	rsbvc	r7, r1, #1929379840	; 0x73000000
  1c:	74732f74 	ldrbtvc	r2, [r3], #-3956	; 0xf74
  20:	2e747261 	cdpcs	2, 7, cr7, cr4, cr1, {3}
  24:	3a440053 	bcc	1100178 <_start-0x3ef07e88>
  28:	50794d5c 	rsbspl	r4, r9, ip, asr sp
  2c:	72676f72 	rsbvc	r6, r7, #456	; 0x1c8
  30:	615c6d61 	cmpvs	ip, r1, ror #26
  34:	345f6d72 	ldrbcc	r6, [pc], #-3442	; 3c <_start-0x40007fc4>
  38:	5c323134 	ldfpls	f3, [r2], #-208	; 0xffffff30
  3c:	54522e34 	ldrbpl	r2, [r2], #-3636	; 0xe34
  40:	4e470043 	cdpmi	0, 4, cr0, cr7, cr3, {2}
  44:	53412055 	movtpl	r2, #4181	; 0x1055
  48:	322e3220 	eorcc	r3, lr, #2
  4c:	80010031 	andhi	r0, r1, r1, lsr r0
  50:	000004be 			; <UNDEFINED> instruction: 0x000004be
  54:	00140002 	andseq	r0, r4, r2
  58:	01040000 	mrseq	r0, (UNDEF: 4)
  5c:	00000089 	andeq	r0, r0, r9, lsl #1
  60:	0000b501 	andeq	fp, r0, r1, lsl #10
  64:	00003700 	andeq	r3, r0, r0, lsl #14
  68:	00814000 	addeq	r4, r1, r0
  6c:	00933440 	addseq	r3, r3, r0, asr #8
  70:	00007d40 	andeq	r7, r0, r0, asr #26
  74:	005d0200 	subseq	r0, sp, r0, lsl #4
  78:	28030000 	stmdacs	r3, {}	; <UNPREDICTABLE>
  7c:	00000030 	andeq	r0, r0, r0, lsr r0
  80:	00000403 	andeq	r0, r0, r3, lsl #8
  84:	64020000 	strvs	r0, [r2]
  88:	03000000 	movweq	r0, #0
  8c:	00002566 	andeq	r2, r0, r6, ror #10
  90:	00530400 	subseq	r0, r3, r0, lsl #8
  94:	44010000 	strmi	r0, [r1]
  98:	00006a01 	andeq	r6, r0, r1, lsl #20
  9c:	00814000 	addeq	r4, r1, r0
  a0:	00819040 	addeq	r9, r1, r0, asr #32
  a4:	00000040 	andeq	r0, r0, r0, asr #32
  a8:	00006a00 	andeq	r6, r0, r0, lsl #20
  ac:	00630500 	rsbeq	r0, r3, r0, lsl #10
  b0:	006a4401 	rsbeq	r4, sl, r1, lsl #8
  b4:	91020000 	mrsls	r0, (UNDEF: 2)
  b8:	01060078 	tsteq	r6, r8, ror r0
  bc:	00007608 	andeq	r7, r0, r8, lsl #12
  c0:	12010700 	andne	r0, r1, #0
  c4:	02000000 	andeq	r0, r0, #0
  c8:	00d40107 	sbcseq	r0, r4, r7, lsl #2
  cc:	81900000 	orrshi	r0, r0, r0
  d0:	83384000 	teqhi	r8, #0
  d4:	002c4000 	eoreq	r4, ip, r0
  d8:	00d40000 	sbcseq	r0, r4, r0
  dc:	63050000 	movwvs	r0, #20480	; 0x5000
  e0:	07020070 	smlsdxeq	r2, r0, r0, r0
  e4:	000000db 	ldrdeq	r0, [r0], -fp
  e8:	086c9102 	stmdaeq	ip!, {r1, r8, ip, pc}^
  ec:	000000ef 	andeq	r0, r0, pc, ror #1
  f0:	00ed0702 	rsceq	r0, sp, r2, lsl #14
  f4:	91020000 	mrsls	r0, (UNDEF: 2)
  f8:	00840868 	addeq	r0, r4, r8, ror #16
  fc:	07020000 	streq	r0, [r2, -r0]
 100:	000000f9 	strdeq	r0, [r0], -r9
 104:	09649102 	stmdbeq	r4!, {r1, r8, ip, pc}^
 108:	000000d9 	ldrdeq	r0, [r0], -r9
 10c:	00d40902 	sbcseq	r0, r4, r2, lsl #18
 110:	91020000 	mrsls	r0, (UNDEF: 2)
 114:	00210974 	eoreq	r0, r1, r4, ror r9
 118:	09020000 	stmdbeq	r2, {}	; <UNPREDICTABLE>
 11c:	000000d4 	ldrdeq	r0, [r0], -r4
 120:	00709102 	rsbseq	r9, r0, r2, lsl #2
 124:	95070406 	strls	r0, [r7, #-1030]	; 0x406
 128:	0a000000 	beq	130 <_start-0x40007ed0>
 12c:	0000e104 	andeq	lr, r0, r4, lsl #2
 130:	00e60b00 	rsceq	r0, r6, r0, lsl #22
 134:	01060000 	mrseq	r0, (UNDEF: 6)
 138:	00007f08 	andeq	r7, r0, r8, lsl #30
 13c:	f3040a00 	vpmax.u8	d0, d4, d0
 140:	0a000000 	beq	148 <_start-0x40007eb8>
 144:	0000e604 	andeq	lr, r0, r4, lsl #12
 148:	07040600 	streq	r0, [r4, -r0, lsl #12]
 14c:	0000009a 	muleq	r0, sl, r0
 150:	00a70107 	adceq	r0, r7, r7, lsl #2
 154:	22020000 	andcs	r0, r2, #0
 158:	00014701 	andeq	r4, r1, r1, lsl #14
 15c:	00833800 	addeq	r3, r3, r0, lsl #16
 160:	0083a840 	addeq	sl, r3, r0, asr #16
 164:	00005840 	andeq	r5, r0, r0, asr #16
 168:	00014700 	andeq	r4, r1, r0, lsl #14
 16c:	70630500 	rsbvc	r0, r3, r0, lsl #10
 170:	db220200 	blle	880978 <_start-0x3f787688>
 174:	02000000 	andeq	r0, r0, #0
 178:	ef087491 	svc	0x00087491
 17c:	02000000 	andeq	r0, r0, #0
 180:	0000ed22 	andeq	lr, r0, r2, lsr #26
 184:	70910200 	addsvc	r0, r1, r0, lsl #4
 188:	00008408 	andeq	r8, r0, r8, lsl #8
 18c:	f9220200 			; <UNDEFINED> instruction: 0xf9220200
 190:	02000000 	andeq	r0, r0, #0
 194:	06006c91 			; <UNDEFINED> instruction: 0x06006c91
 198:	01260504 	teqeq	r6, r4, lsl #10
 19c:	2d040000 	stccs	0, cr0, [r4]
 1a0:	02000000 	andeq	r0, r0, #0
 1a4:	0183014a 	orreq	r0, r3, sl, asr #2
 1a8:	83a80000 			; <UNDEFINED> instruction: 0x83a80000
 1ac:	843c4000 	ldrthi	r4, [ip]
 1b0:	00844000 	addeq	r4, r4, r0
 1b4:	01830000 	orreq	r0, r3, r0
 1b8:	73050000 	movwvc	r0, #20480	; 0x5000
 1bc:	8a4a0200 	bhi	12809c4 <_start-0x3ed8763c>
 1c0:	02000001 	andeq	r0, r0, #1
 1c4:	690c7491 	stmdbvs	ip, {r0, r4, r7, sl, ip, sp, lr}
 1c8:	834c0200 	movthi	r0, #49664	; 0xc200
 1cc:	02000001 	andeq	r0, r0, #1
 1d0:	0d007891 	stceq	8, cr7, [r0, #-580]	; 0xfffffdbc
 1d4:	6e690504 	cdpvs	5, 6, cr0, cr9, cr4, {0}
 1d8:	040a0074 	streq	r0, [sl], #-116	; 0x74
 1dc:	000000db 	ldrdeq	r0, [r0], -fp
 1e0:	00011f04 	andeq	r1, r1, r4, lsl #30
 1e4:	016f0200 	cmneq	pc, r0, lsl #4
 1e8:	000000f3 	strdeq	r0, [r0], -r3
 1ec:	4000843c 	andmi	r8, r0, ip, lsr r4
 1f0:	400088d4 	ldrdmi	r8, [r0], -r4
 1f4:	000000b0 	strheq	r0, [r0], -r0	; <UNPREDICTABLE>
 1f8:	00000260 	andeq	r0, r0, r0, ror #4
 1fc:	72747305 	rsbsvc	r7, r4, #335544320	; 0x14000000
 200:	f36f0200 	vhsub.u32	d16, d15, d0
 204:	03000000 	movweq	r0, #0
 208:	057f9c91 	ldrbeq	r9, [pc, #-3217]!	; fffff57f <_ctype+0xbfff554f>
 20c:	006d756e 	rsbeq	r7, sp, lr, ror #10
 210:	01476f02 	cmpeq	r7, r2, lsl #30
 214:	91030000 	mrsls	r0, (UNDEF: 3)
 218:	84087f98 	strhi	r7, [r8], #-3992	; 0xf98
 21c:	02000000 	andeq	r0, r0, #0
 220:	0000f96f 	andeq	pc, r0, pc, ror #18
 224:	94910300 	ldrls	r0, [r1], #768	; 0x300
 228:	013a087f 	teqeq	sl, pc, ror r8
 22c:	6f020000 	svcvs	0x00020000
 230:	00000183 	andeq	r0, r0, r3, lsl #3
 234:	7f909103 	svcvc	0x00909103
 238:	00006c08 	andeq	r6, r0, r8, lsl #24
 23c:	836f0200 	cmnhi	pc, #0
 240:	02000001 	andeq	r0, r0, #1
 244:	f6080091 			; <UNDEFINED> instruction: 0xf6080091
 248:	02000000 	andeq	r0, r0, #0
 24c:	0001836f 	andeq	r8, r1, pc, ror #6
 250:	04910200 	ldreq	r0, [r1], #512	; 0x200
 254:	0200630c 	andeq	r6, r0, #805306368	; 0x30000000
 258:	0000e672 	andeq	lr, r0, r2, ror r6
 25c:	6b910200 	blvs	fe440a64 <_ctype+0xbe436a34>
 260:	00012f09 	andeq	r2, r1, r9, lsl #30
 264:	e6720200 	ldrbt	r0, [r2], -r0, lsl #4
 268:	02000000 	andeq	r0, r0, #0
 26c:	740c7791 	strvc	r7, [ip], #-1937	; 0x791
 270:	0200706d 	andeq	r7, r0, #109	; 0x6d
 274:	00026072 	andeq	r6, r2, r2, ror r0
 278:	a0910300 	addsge	r0, r1, r0, lsl #6
 27c:	00fb097f 	rscseq	r0, fp, pc, ror r9
 280:	73020000 	movwvc	r0, #8192	; 0x2000
 284:	000000db 	ldrdeq	r0, [r0], -fp
 288:	0c709102 	ldfeqp	f1, [r0], #-8
 28c:	74020069 	strvc	r0, [r2], #-105	; 0x69
 290:	00000183 	andeq	r0, r0, r3, lsl #3
 294:	0e6c9102 	lgneqe	f1, f2
 298:	40008600 	andmi	r8, r0, r0, lsl #12
 29c:	40008634 	andmi	r8, r0, r4, lsr r6
 2a0:	00013409 	andeq	r3, r1, r9, lsl #8
 2a4:	83960200 	orrshi	r0, r6, #0
 2a8:	02000001 	andeq	r0, r0, #1
 2ac:	00006491 	muleq	r0, r1, r4
 2b0:	0000e60f 	andeq	lr, r0, pc, lsl #12
 2b4:	00027000 	andeq	r7, r2, r0
 2b8:	00d41000 	sbcseq	r1, r4, r0
 2bc:	00410000 	subeq	r0, r1, r0
 2c0:	00e70107 	rsceq	r0, r7, r7, lsl #2
 2c4:	b4020000 	strlt	r0, [r2]
 2c8:	0000f901 	andeq	pc, r0, r1, lsl #18
 2cc:	0088d400 	addeq	sp, r8, r0, lsl #8
 2d0:	00895440 	addeq	r5, r9, r0, asr #8
 2d4:	0000dc40 	andeq	sp, r0, r0, asr #24
 2d8:	0002b500 	andeq	fp, r2, r0, lsl #10
 2dc:	00730500 	rsbseq	r0, r3, r0, lsl #10
 2e0:	00dbb402 	sbcseq	fp, fp, r2, lsl #8
 2e4:	91020000 	mrsls	r0, (UNDEF: 2)
 2e8:	00270874 	eoreq	r0, r7, r4, ror r8
 2ec:	b4020000 	strlt	r0, [r2]
 2f0:	000000f9 	strdeq	r0, [r0], -r9
 2f4:	0c709102 	ldfeqp	f1, [r0], #-8
 2f8:	02006373 	andeq	r6, r0, #-872415231	; 0xcc000001
 2fc:	0000dbb6 			; <UNDEFINED> instruction: 0x0000dbb6
 300:	78910200 	ldmvc	r1, {r9}
 304:	3f010700 	svccc	0x00010700
 308:	02000001 	andeq	r0, r0, #1
 30c:	018301bc 			; <UNDEFINED> instruction: 0x018301bc
 310:	89540000 	ldmdbhi	r4, {}^	; <UNPREDICTABLE>
 314:	928c4000 	addls	r4, ip, #0
 318:	01084000 	mrseq	r4, (UNDEF: 8)
 31c:	03c50000 	biceq	r0, r5, #0
 320:	62050000 	andvs	r0, r5, #0
 324:	02006675 	andeq	r6, r0, #122683392	; 0x7500000
 328:	0000f3bc 			; <UNDEFINED> instruction: 0x0000f3bc
 32c:	44910200 	ldrmi	r0, [r1], #512	; 0x200
 330:	746d6605 	strbtvc	r6, [sp], #-1541	; 0x605
 334:	dbbc0200 	blle	fef00b3c <_ctype+0xbeef6b0c>
 338:	02000000 	andeq	r0, r0, #0
 33c:	1a084091 	bne	210588 <_start-0x3fdf7a78>
 340:	02000001 	andeq	r0, r0, #1
 344:	000036bc 			; <UNDEFINED> instruction: 0x000036bc
 348:	bc910300 	ldclt	3, cr0, [r1], {0}
 34c:	656c0c7f 	strbvs	r0, [ip, #-3199]!	; 0xc7f
 350:	be02006e 	cdplt	0, 0, cr0, cr2, cr14, {3}
 354:	00000183 	andeq	r0, r0, r3, lsl #3
 358:	0c509102 	ldfeqp	f1, [r0], {2}
 35c:	006d756e 	rsbeq	r7, sp, lr, ror #10
 360:	00d4c202 	sbcseq	ip, r4, r2, lsl #4
 364:	91020000 	mrsls	r0, (UNDEF: 2)
 368:	00690c74 	rsbeq	r0, r9, r4, ror ip
 36c:	0183c402 	orreq	ip, r3, r2, lsl #8
 370:	91020000 	mrsls	r0, (UNDEF: 2)
 374:	00840970 	addeq	r0, r4, r0, ror r9
 378:	c4020000 	strgt	r0, [r2]
 37c:	00000183 	andeq	r0, r0, r3, lsl #3
 380:	0c6c9102 	stfeqp	f1, [ip], #-8
 384:	00727473 	rsbseq	r7, r2, r3, ror r4
 388:	00f3c502 	rscseq	ip, r3, r2, lsl #10
 38c:	91020000 	mrsls	r0, (UNDEF: 2)
 390:	00730c68 	rsbseq	r0, r3, r8, ror #24
 394:	00dbc602 	sbcseq	ip, fp, r2, lsl #12
 398:	91020000 	mrsls	r0, (UNDEF: 2)
 39c:	00c90964 	sbceq	r0, r9, r4, ror #18
 3a0:	c8020000 	stmdagt	r2, {}	; <UNPREDICTABLE>
 3a4:	00000183 	andeq	r0, r0, r3, lsl #3
 3a8:	09609102 	stmdbeq	r0!, {r1, r8, ip, pc}^
 3ac:	0000010e 	andeq	r0, r0, lr, lsl #2
 3b0:	0183ca02 	orreq	ip, r3, r2, lsl #20
 3b4:	91020000 	mrsls	r0, (UNDEF: 2)
 3b8:	006c095c 	rsbeq	r0, ip, ip, asr r9
 3bc:	cb020000 	blgt	803c4 <_start-0x3ff87c3c>
 3c0:	00000183 	andeq	r0, r0, r3, lsl #3
 3c4:	09589102 	ldmdbeq	r8, {r1, r8, ip, pc}^
 3c8:	000000cf 	andeq	r0, r0, pc, asr #1
 3cc:	0183cd02 	orreq	ip, r3, r2, lsl #26
 3d0:	91020000 	mrsls	r0, (UNDEF: 2)
 3d4:	00e01154 	rsceq	r1, r0, r4, asr r1
 3d8:	d7020000 	strle	r0, [r2, -r0]
 3dc:	400089b0 			; <UNDEFINED> instruction: 0x400089b0
 3e0:	00900812 	addseq	r0, r0, r2, lsl r8
 3e4:	00903040 	addseq	r3, r0, r0, asr #32
 3e8:	0003ac40 	andeq	sl, r3, r0, asr #24
 3ec:	70691300 	rsbvc	r1, r9, r0, lsl #6
 3f0:	01350200 	teqeq	r5, r0, lsl #4
 3f4:	000003c5 	andeq	r0, r0, r5, asr #7
 3f8:	004c9102 	subeq	r9, ip, r2, lsl #2
 3fc:	0090340e 	addseq	r3, r0, lr, lsl #8
 400:	00905c40 	addseq	r5, r0, r0, asr #24
 404:	70691340 	rsbvc	r1, r9, r0, asr #6
 408:	01380200 	teqeq	r8, r0, lsl #4
 40c:	000003cb 	andeq	r0, r0, fp, asr #7
 410:	00489102 	subeq	r9, r8, r2, lsl #2
 414:	47040a00 	strmi	r0, [r4, -r0, lsl #20]
 418:	0a000001 	beq	424 <_start-0x40007bdc>
 41c:	00018304 	andeq	r8, r1, r4, lsl #6
 420:	40011400 	andmi	r1, r1, r0, lsl #8
 424:	02000001 	andeq	r0, r0, #1
 428:	83010173 	movwhi	r0, #4467	; 0x1173
 42c:	8c000001 	stchi	0, cr0, [r0], {1}
 430:	dc400092 	mcrrle	0, 9, r0, r0, cr2
 434:	34400092 	strbcc	r0, [r0], #-146	; 0x92
 438:	2b000001 	blcs	444 <_start-0x40007bbc>
 43c:	15000004 	strne	r0, [r0, #-4]
 440:	00667562 	rsbeq	r7, r6, r2, ror #10
 444:	f3017302 	vcgt.u8	d7, d1, d2
 448:	02000000 	andeq	r0, r0, #0
 44c:	66156091 			; <UNDEFINED> instruction: 0x66156091
 450:	0200746d 	andeq	r7, r0, #1828716544	; 0x6d000000
 454:	00db0173 	sbcseq	r0, fp, r3, ror r1
 458:	91020000 	mrsls	r0, (UNDEF: 2)
 45c:	1a171674 	bne	5c5e34 <_start-0x3fa421cc>
 460:	02000001 	andeq	r0, r0, #1
 464:	00360175 	eorseq	r0, r6, r5, ror r1
 468:	91020000 	mrsls	r0, (UNDEF: 2)
 46c:	00691364 	rsbeq	r1, r9, r4, ror #6
 470:	83017602 	movwhi	r7, #5634	; 0x1602
 474:	02000001 	andeq	r0, r0, #1
 478:	18006891 	stmdane	r0, {r0, r4, r7, fp, sp, lr}
 47c:	00014101 	andeq	r4, r1, r1, lsl #2
 480:	017e0200 	cmneq	lr, r0, lsl #4
 484:	0092dc01 	addseq	sp, r2, r1, lsl #24
 488:	00933440 	addseq	r3, r3, r0, asr #8
 48c:	00016c40 	andeq	r6, r1, r0, asr #24
 490:	00048200 	andeq	r8, r4, r0, lsl #4
 494:	6d661500 	cfstr64vs	mvdx1, [r6]
 498:	7e020074 	mcrvc	0, 0, r0, cr2, cr4, {3}
 49c:	0000db01 	andeq	sp, r0, r1, lsl #22
 4a0:	70910200 	addsvc	r0, r1, r0, lsl #4
 4a4:	011a1716 	tsteq	sl, r6, lsl r7
 4a8:	80020000 	andhi	r0, r2, r0
 4ac:	00003601 	andeq	r3, r0, r1, lsl #12
 4b0:	60910200 	addsvs	r0, r1, r0, lsl #4
 4b4:	02006913 	andeq	r6, r0, #311296	; 0x4c000
 4b8:	00f90181 	rscseq	r0, r9, r1, lsl #3
 4bc:	91020000 	mrsls	r0, (UNDEF: 2)
 4c0:	01021764 	tsteq	r2, r4, ror #14
 4c4:	82020000 	andhi	r0, r2, #0
 4c8:	00048201 	andeq	r8, r4, r1, lsl #4
 4cc:	fc910300 	ldc2	3, cr0, [r1], {0}
 4d0:	e60f007e 			; <UNDEFINED> instruction: 0xe60f007e
 4d4:	92000000 	andls	r0, r0, #0
 4d8:	10000004 	andne	r0, r0, r4
 4dc:	000000d4 	ldrdeq	r0, [r0], -r4
 4e0:	6a0f0063 	bvs	3c0674 <_start-0x3fc4798c>
 4e4:	a2000000 	andge	r0, r0, #0
 4e8:	10000004 	andne	r0, r0, r4
 4ec:	000000d4 	ldrdeq	r0, [r0], -r4
 4f0:	f41900ff 			; <UNDEFINED> instruction: 0xf41900ff
 4f4:	01000000 	mrseq	r0, (UNDEF: 0)
 4f8:	00049211 	andeq	r9, r4, r1, lsl r2
 4fc:	1a010100 	bne	40904 <_start-0x3ffc76fc>
 500:	000000f4 	strdeq	r0, [r0], -r4
 504:	04921101 	ldreq	r1, [r2], #257	; 0x101
 508:	05010000 	streq	r0, [r1]
 50c:	00a03003 	adceq	r3, r0, r3
 510:	020d0040 	andeq	r0, sp, #64	; 0x40
 514:	00020000 	andeq	r0, r2, r0
 518:	00000187 	andeq	r0, r0, r7, lsl #3
 51c:	00890104 	addeq	r0, r9, r4, lsl #2
 520:	d4010000 	strle	r0, [r1]
 524:	37000001 	strcc	r0, [r0, -r1]
 528:	34000000 	strcc	r0, [r0]
 52c:	40400093 	umaalmi	r0, r0, r3, r0
 530:	d4400094 	strble	r0, [r0], #-148	; 0x94
 534:	02000002 	andeq	r0, r0, #2
 538:	009a0704 	addseq	r0, sl, r4, lsl #14
 53c:	18030000 	stmdane	r3, {}	; <UNPREDICTABLE>
 540:	90017a02 	andls	r7, r1, r2, lsl #20
 544:	04000000 	streq	r0, [r0]
 548:	004e4f43 	subeq	r4, lr, r3, asr #30
 54c:	25017b02 	strcs	r7, [r1, #-2818]	; 0xb02
 550:	02000000 	andeq	r0, r0, #0
 554:	44040023 	strmi	r0, [r4], #-35	; 0x23
 558:	02005441 	andeq	r5, r0, #1090519040	; 0x41000000
 55c:	0025017c 	eoreq	r0, r5, ip, ror r1
 560:	23020000 	movwcs	r0, #8192	; 0x2000
 564:	55500404 	ldrbpl	r0, [r0, #-1028]	; 0x404
 568:	7d020044 	stcvc	0, cr0, [r2, #-272]	; 0xfffffef0
 56c:	00002501 	andeq	r2, r0, r1, lsl #10
 570:	08230200 	stmdaeq	r3!, {r9}
 574:	56524404 	ldrbpl	r4, [r2], -r4, lsl #8
 578:	017e0200 	cmneq	lr, r0, lsl #4
 57c:	00000025 	andeq	r0, r0, r5, lsr #32
 580:	050c2302 	streq	r2, [ip, #-770]	; 0x302
 584:	00000197 	muleq	r0, r7, r1
 588:	25017f02 	strcs	r7, [r1, #-3842]	; 0xf02
 58c:	02000000 	andeq	r0, r0, #0
 590:	cd051023 	stcgt	0, cr1, [r5, #-140]	; 0xffffff74
 594:	02000001 	andeq	r0, r0, #1
 598:	00250180 	eoreq	r0, r5, r0, lsl #3
 59c:	23020000 	movwcs	r0, #8192	; 0x2000
 5a0:	ba060014 	blt	1805f8 <_start-0x3fe87a08>
 5a4:	02000001 	andeq	r0, r0, #1
 5a8:	002c0181 	eoreq	r0, ip, r1, lsl #3
 5ac:	3c030000 	stccc	0, cr0, [r3], {0}
 5b0:	8703ba02 	strhi	fp, [r3, -r2, lsl #20]
 5b4:	05000001 	streq	r0, [r0, #-1]
 5b8:	000001b3 			; <UNDEFINED> instruction: 0x000001b3
 5bc:	2503bb02 	strcs	fp, [r3, #-2818]	; 0xb02
 5c0:	02000000 	andeq	r0, r0, #0
 5c4:	9e050023 	cdpls	0, 0, cr0, cr5, cr3, {1}
 5c8:	02000001 	andeq	r0, r0, #1
 5cc:	002503bc 			; <UNDEFINED> instruction: 0x002503bc
 5d0:	23020000 	movwcs	r0, #8192	; 0x2000
 5d4:	018a0504 	orreq	r0, sl, r4, lsl #10
 5d8:	bd020000 	stclt	0, cr0, [r2]
 5dc:	00002503 	andeq	r2, r0, r3, lsl #10
 5e0:	08230200 	stmdaeq	r3!, {r9}
 5e4:	0001eb05 	andeq	lr, r1, r5, lsl #22
 5e8:	03be0200 			; <UNDEFINED> instruction: 0x03be0200
 5ec:	00000025 	andeq	r0, r0, r5, lsr #32
 5f0:	050c2302 	streq	r2, [ip, #-770]	; 0x302
 5f4:	00000172 	andeq	r0, r0, r2, ror r1
 5f8:	2503bf02 	strcs	fp, [r3, #-3842]	; 0xf02
 5fc:	02000000 	andeq	r0, r0, #0
 600:	c4051023 	strgt	r1, [r5], #-35	; 0x23
 604:	02000001 	andeq	r0, r0, #1
 608:	002503c0 	eoreq	r0, r5, r0, asr #7
 60c:	23020000 	movwcs	r0, #8192	; 0x2000
 610:	016a0514 	cmneq	sl, r4, lsl r5
 614:	c1020000 	mrsgt	r0, (UNDEF: 2)
 618:	00002503 	andeq	r2, r0, r3, lsl #10
 61c:	18230200 	stmdane	r3!, {r9}
 620:	0001a405 	andeq	sl, r1, r5, lsl #8
 624:	03c20200 	biceq	r0, r2, #0
 628:	00000025 	andeq	r0, r0, r5, lsr #32
 62c:	051c2302 	ldreq	r2, [ip, #-770]	; 0x302
 630:	00000191 	muleq	r0, r1, r1
 634:	2503c302 	strcs	ip, [r3, #-770]	; 0x302
 638:	02000000 	andeq	r0, r0, #0
 63c:	f2052023 	vhadd.s8	d2, d5, d19
 640:	02000001 	andeq	r0, r0, #1
 644:	002503c4 	eoreq	r0, r5, r4, asr #7
 648:	23020000 	movwcs	r0, #8192	; 0x2000
 64c:	015d0524 	cmpeq	sp, r4, lsr #10
 650:	c5020000 	strgt	r0, [r2]
 654:	00002503 	andeq	r2, r0, r3, lsl #10
 658:	28230200 	stmdacs	r3!, {r9}
 65c:	0001f805 	andeq	pc, r1, r5, lsl #16
 660:	03c60200 	biceq	r0, r6, #0
 664:	00000025 	andeq	r0, r0, r5, lsr #32
 668:	052c2302 	streq	r2, [ip, #-770]!	; 0x302
 66c:	0000014e 	andeq	r0, r0, lr, asr #2
 670:	2503c702 	strcs	ip, [r3, #-1794]	; 0x702
 674:	02000000 	andeq	r0, r0, #0
 678:	55053023 	strpl	r3, [r5, #-35]	; 0x23
 67c:	02000001 	andeq	r0, r0, #1
 680:	002503c8 	eoreq	r0, r5, r8, asr #7
 684:	23020000 	movwcs	r0, #8192	; 0x2000
 688:	01ac0534 			; <UNDEFINED> instruction: 0x01ac0534
 68c:	c9020000 	stmdbgt	r2, {}	; <UNPREDICTABLE>
 690:	00002503 	andeq	r2, r0, r3, lsl #10
 694:	38230200 	stmdacc	r3!, {r9}
 698:	01480600 	cmpeq	r8, r0, lsl #12
 69c:	ca020000 	bgt	806a4 <_start-0x3ff8795c>
 6a0:	00009c03 	andeq	r9, r0, r3, lsl #24
 6a4:	07040200 	streq	r0, [r4, -r0, lsl #4]
 6a8:	00000095 	muleq	r0, r5, r0
 6ac:	017b0107 	cmneq	fp, r7, lsl #2
 6b0:	03010000 	movweq	r0, #4096	; 0x1000
 6b4:	40009334 	andmi	r9, r0, r4, lsr r3
 6b8:	40009398 	mulmi	r0, r8, r3
 6bc:	000001a4 	andeq	r0, r0, r4, lsr #3
 6c0:	01bf0108 			; <UNDEFINED> instruction: 0x01bf0108
 6c4:	10010000 	andne	r0, r1, r0
 6c8:	00939801 	addseq	r9, r3, r1, lsl #16
 6cc:	0093f440 	addseq	pc, r3, r0, asr #8
 6d0:	0001d040 	andeq	sp, r1, r0, asr #32
 6d4:	0001d600 	andeq	sp, r1, r0, lsl #12
 6d8:	01850900 	orreq	r0, r5, r0, lsl #18
 6dc:	10010000 	andne	r0, r1, r0
 6e0:	000001d6 	ldrdeq	r0, [r0], -r6
 6e4:	00749102 	rsbseq	r9, r4, r2, lsl #2
 6e8:	0001db0a 	andeq	sp, r1, sl, lsl #22
 6ec:	08010200 	stmdaeq	r1, {r9}
 6f0:	0000007f 	andeq	r0, r0, pc, ror r0
 6f4:	01e60108 	mvneq	r0, r8, lsl #2
 6f8:	17010000 	strne	r0, [r1, -r0]
 6fc:	0093f401 	addseq	pc, r3, r1, lsl #8
 700:	00944040 	addseq	r4, r4, r0, asr #32
 704:	0001fc40 	andeq	pc, r1, r0, asr #24
 708:	00020a00 	andeq	r0, r2, r0, lsl #20
 70c:	01650900 	cmneq	r5, r0, lsl #18
 710:	17010000 	strne	r0, [r1, -r0]
 714:	0000020a 	andeq	r0, r0, sl, lsl #4
 718:	00749102 	rsbseq	r9, r4, r2, lsl #2
 71c:	01d6040b 	bicseq	r0, r6, fp, lsl #8
 720:	54000000 	strpl	r0, [r0]
 724:	02000000 	andeq	r0, r0, #0
 728:	00022700 	andeq	r2, r2, r0, lsl #14
 72c:	51010400 	tstpl	r1, r0, lsl #8
 730:	40000003 	andmi	r0, r0, r3
 734:	d4400094 	strble	r0, [r0], #-148	; 0x94
 738:	63400094 	movtvs	r0, #148	; 0x94
 73c:	6f6d6d6f 	svcvs	0x006d6d6f
 740:	72732f6e 	rsbsvc	r2, r3, #440	; 0x1b8
 744:	755f2f63 	ldrbvc	r2, [pc, #-3939]	; fffff7e9 <_ctype+0xbfff57b9>
 748:	73766964 	cmnvc	r6, #1638400	; 0x190000
 74c:	532e3369 	teqpl	lr, #-1543503871	; 0xa4000001
 750:	5c3a4400 	cfldrspl	mvf4, [sl]
 754:	7250794d 	subsvc	r7, r0, #1261568	; 0x134000
 758:	6172676f 	cmnvs	r2, pc, ror #14
 75c:	72615c6d 	rsbvc	r5, r1, #27904	; 0x6d00
 760:	34345f6d 	ldrtcc	r5, [r4], #-3949	; 0xf6d
 764:	345c3231 	ldrbcc	r3, [ip], #-561	; 0x231
 768:	4354522e 	cmpmi	r4, #-536870910	; 0xe0000002
 76c:	554e4700 	strbpl	r4, [lr, #-1792]	; 0x700
 770:	20534120 	subscs	r4, r3, r0, lsr #2
 774:	31322e32 	teqcc	r2, r2, lsr lr
 778:	54800100 	strpl	r0, [r0], #256	; 0x100
 77c:	02000000 	andeq	r0, r0, #0
 780:	00023b00 	andeq	r3, r2, r0, lsl #22
 784:	ba010400 	blt	4178c <_start-0x3ffc6874>
 788:	d4000003 	strle	r0, [r0], #-3
 78c:	84400094 	strbhi	r0, [r0], #-148	; 0x94
 790:	63400095 	movtvs	r0, #149	; 0x95
 794:	6f6d6d6f 	svcvs	0x006d6d6f
 798:	72732f6e 	rsbsvc	r2, r3, #440	; 0x1b8
 79c:	755f2f63 	ldrbvc	r2, [pc, #-3939]	; fffff841 <_ctype+0xbfff5811>
 7a0:	73646f6d 	cmnvc	r4, #436	; 0x1b4
 7a4:	532e3369 	teqpl	lr, #-1543503871	; 0xa4000001
 7a8:	5c3a4400 	cfldrspl	mvf4, [sl]
 7ac:	7250794d 	subsvc	r7, r0, #1261568	; 0x134000
 7b0:	6172676f 	cmnvs	r2, pc, ror #14
 7b4:	72615c6d 	rsbvc	r5, r1, #27904	; 0x6d00
 7b8:	34345f6d 	ldrtcc	r5, [r4], #-3949	; 0xf6d
 7bc:	345c3231 	ldrbcc	r3, [ip], #-561	; 0x231
 7c0:	4354522e 	cmpmi	r4, #-536870910	; 0xe0000002
 7c4:	554e4700 	strbpl	r4, [lr, #-1792]	; 0x700
 7c8:	20534120 	subscs	r4, r3, r0, lsr #2
 7cc:	31322e32 	teqcc	r2, r2, lsr lr
 7d0:	99800100 	stmibls	r0, {r8}
 7d4:	02000001 	andeq	r0, r0, #1
 7d8:	00024f00 	andeq	r4, r2, r0, lsl #30
 7dc:	89010400 	stmdbhi	r1, {sl}
 7e0:	01000000 	mrseq	r0, (UNDEF: 0)
 7e4:	00000239 	andeq	r0, r0, r9, lsr r2
 7e8:	00000037 	andeq	r0, r0, r7, lsr r0
 7ec:	40009584 	andmi	r9, r0, r4, lsl #11
 7f0:	4000977c 	andmi	r9, r0, ip, ror r7
 7f4:	0000042a 	andeq	r0, r0, sl, lsr #8
 7f8:	9a070402 	bls	1c1808 <_start-0x3fe467f8>
 7fc:	03000000 	movweq	r0, #0
 800:	015b021c 	cmpeq	fp, ip, lsl r2
 804:	0000009f 	muleq	r0, pc, r0	; <UNPREDICTABLE>
 808:	00021a04 	andeq	r1, r2, r4, lsl #20
 80c:	015d0200 	cmpeq	sp, r0, lsl #4
 810:	00000025 	andeq	r0, r0, r5, lsr #32
 814:	04002302 	streq	r2, [r0], #-770	; 0x302
 818:	00000228 	andeq	r0, r0, r8, lsr #4
 81c:	25015e02 	strcs	r5, [r1, #-3586]	; 0xe02
 820:	02000000 	andeq	r0, r0, #0
 824:	4c040423 	cfstrsmi	mvf0, [r4], {35}	; 0x23
 828:	02000002 	andeq	r0, r0, #2
 82c:	0025015f 	eoreq	r0, r5, pc, asr r1
 830:	23020000 	movwcs	r0, #8192	; 0x2000
 834:	020b0408 	andeq	r0, fp, #134217728	; 0x8000000
 838:	60020000 	andvs	r0, r2, r0
 83c:	00002501 	andeq	r2, r0, r1, lsl #10
 840:	0c230200 	sfmeq	f0, 4, [r3]
 844:	00022104 	andeq	r2, r2, r4, lsl #2
 848:	01610200 	cmneq	r1, r0, lsl #4
 84c:	00000025 	andeq	r0, r0, r5, lsr #32
 850:	04102302 	ldreq	r2, [r0], #-770	; 0x302
 854:	00000254 	andeq	r0, r0, r4, asr r2
 858:	25016202 	strcs	r6, [r1, #-514]	; 0x202
 85c:	02000000 	andeq	r0, r0, #0
 860:	5b041423 	blpl	1058f4 <_start-0x3ff0270c>
 864:	02000002 	andeq	r0, r0, #2
 868:	00250163 	eoreq	r0, r5, r3, ror #2
 86c:	23020000 	movwcs	r0, #8192	; 0x2000
 870:	13050018 	movwne	r0, #20504	; 0x5018
 874:	02000002 	andeq	r0, r0, #2
 878:	002c0164 	eoreq	r0, ip, r4, ror #2
 87c:	10030000 	andne	r0, r3, r0
 880:	f101fa02 			; <UNDEFINED> instruction: 0xf101fa02
 884:	06000000 	streq	r0, [r0], -r0
 888:	004e4f43 	subeq	r4, lr, r3, asr #30
 88c:	2501fb02 	strcs	pc, [r1, #-2818]	; 0xb02
 890:	02000000 	andeq	r0, r0, #0
 894:	44060023 	strmi	r0, [r6], #-35	; 0x23
 898:	02005441 	andeq	r5, r0, #1090519040	; 0x41000000
 89c:	002501fc 	strdeq	r0, [r5], -ip	; <UNPREDICTABLE>
 8a0:	23020000 	movwcs	r0, #8192	; 0x2000
 8a4:	55500604 	ldrbpl	r0, [r0, #-1540]	; 0x604
 8a8:	fd020044 	stc2	0, cr0, [r2, #-272]	; 0xfffffef0
 8ac:	00002501 	andeq	r2, r0, r1, lsl #10
 8b0:	08230200 	stmdaeq	r3!, {r9}
 8b4:	56524406 	ldrbpl	r4, [r2], -r6, lsl #8
 8b8:	01fe0200 	mvnseq	r0, r0, lsl #4
 8bc:	00000025 	andeq	r0, r0, r5, lsr #32
 8c0:	000c2302 	andeq	r2, ip, r2, lsl #6
 8c4:	00024005 	andeq	r4, r2, r5
 8c8:	01ff0200 	mvnseq	r0, r0, lsl #4
 8cc:	000000ab 	andeq	r0, r0, fp, lsr #1
 8d0:	95070402 	strls	r0, [r7, #-1026]	; 0x402
 8d4:	07000000 	streq	r0, [r0, -r0]
 8d8:	00024501 	andeq	r4, r2, r1, lsl #10
 8dc:	84100100 	ldrhi	r0, [r0], #-256	; 0x100
 8e0:	98400095 	stmdals	r0, {r0, r2, r4, r7}^
 8e4:	28400095 	stmdacs	r0, {r0, r2, r4, r7}^
 8e8:	08000002 	stmdaeq	r0, {r1}
 8ec:	00026301 	andeq	r6, r2, r1, lsl #6
 8f0:	011a0100 	tsteq	sl, r0, lsl #2
 8f4:	40009598 	mulmi	r0, r8, r5
 8f8:	40009630 	andmi	r9, r0, r0, lsr r6
 8fc:	00000254 	andeq	r0, r0, r4, asr r2
 900:	00000158 	andeq	r0, r0, r8, asr r1
 904:	00022f09 	andeq	r2, r2, r9, lsl #30
 908:	581a0100 	ldmdapl	sl, {r8}
 90c:	02000001 	andeq	r0, r0, #1
 910:	690a7091 	stmdbvs	sl, {r0, r4, r7, ip, sp, lr}
 914:	581c0100 	ldmdapl	ip, {r8}
 918:	02000001 	andeq	r0, r0, #1
 91c:	6a0a7891 	bvs	29eb68 <_start-0x3fd69498>
 920:	581c0100 	ldmdapl	ip, {r8}
 924:	02000001 	andeq	r0, r0, #1
 928:	0b007491 	bleq	1db74 <_start-0x3ffea48c>
 92c:	6e690504 	cdpvs	5, 6, cr0, cr9, cr4, {0}
 930:	01070074 	tsteq	r7, r4, ror r0
 934:	00000202 	andeq	r0, r0, r2, lsl #4
 938:	96302901 	ldrtls	r2, [r0], -r1, lsl #18
 93c:	96b84000 	ldrtls	r4, [r8], r0
 940:	02804000 	addeq	r4, r0, #0
 944:	010c0000 	mrseq	r0, (UNDEF: 12)
 948:	00000234 	andeq	r0, r0, r4, lsr r2
 94c:	58013f01 	stmdapl	r1, {r0, r8, r9, sl, fp, ip, sp}
 950:	b8000001 	stmdalt	r0, {r0}
 954:	7c400096 	mcrrvc	0, 9, r0, r0, cr6
 958:	ac400097 	mcrrge	0, 9, r0, r0, cr7
 95c:	0d000002 	stceq	0, cr0, [r0, #-8]
 960:	00014101 	andeq	r4, r1, r1, lsl #2
 964:	58460100 	stmdapl	r6, {r8}^
 968:	01000001 	tsteq	r0, r1
 96c:	0000000e 	andeq	r0, r0, lr

Disassembly of section .debug_abbrev:

00000000 <.debug_abbrev>:
   0:	10001101 	andne	r1, r0, r1, lsl #2
   4:	12011106 	andne	r1, r1, #-2147483647	; 0x80000001
   8:	1b080301 	blne	200c14 <_start-0x3fe073ec>
   c:	13082508 	movwne	r2, #34056	; 0x8508
  10:	00000005 	andeq	r0, r0, r5
  14:	25011101 	strcs	r1, [r1, #-257]	; 0x101
  18:	030b130e 	movweq	r1, #45838	; 0xb30e
  1c:	110e1b0e 	tstne	lr, lr, lsl #22
  20:	10011201 	andne	r1, r1, r1, lsl #4
  24:	02000006 	andeq	r0, r0, #6
  28:	0e030016 	mcreq	0, 0, r0, cr3, cr6, {0}
  2c:	0b3b0b3a 	bleq	ec2d1c <_start-0x3f1452e4>
  30:	00001349 	andeq	r1, r0, r9, asr #6
  34:	0b000f03 	bleq	3c48 <_start-0x400043b8>
  38:	000e030b 	andeq	r0, lr, fp, lsl #6
  3c:	012e0400 	teqeq	lr, r0, lsl #8
  40:	0b3a0e03 	bleq	e83854 <_start-0x3f1847ac>
  44:	0c270b3b 	stceq	11, cr0, [r7], #-236	; 0xffffff14
  48:	01111349 	tsteq	r1, r9, asr #6
  4c:	06400112 			; <UNDEFINED> instruction: 0x06400112
  50:	00001301 	andeq	r1, r0, r1, lsl #6
  54:	03000505 	movweq	r0, #1285	; 0x505
  58:	3b0b3a08 	blcc	2ce880 <_start-0x3fd39780>
  5c:	0213490b 	andseq	r4, r3, #180224	; 0x2c000
  60:	0600000a 	streq	r0, [r0], -sl
  64:	0b0b0024 	bleq	2c00fc <_start-0x3fd47f04>
  68:	0e030b3e 	vmoveq.16	d3[0], r0
  6c:	2e070000 	cdpcs	0, 0, cr0, cr7, cr0, {0}
  70:	030c3f01 	movweq	r3, #52993	; 0xcf01
  74:	3b0b3a0e 	blcc	2ce8b4 <_start-0x3fd3974c>
  78:	490c270b 	stmdbmi	ip, {r0, r1, r3, r8, r9, sl, sp}
  7c:	12011113 	andne	r1, r1, #-1073741820	; 0xc0000004
  80:	01064001 	tsteq	r6, r1
  84:	08000013 	stmdaeq	r0, {r0, r1, r4}
  88:	0e030005 	cdpeq	0, 0, cr0, cr3, cr5, {0}
  8c:	0b3b0b3a 	bleq	ec2d7c <_start-0x3f145284>
  90:	0a021349 	beq	84dbc <_start-0x3ff83244>
  94:	34090000 	strcc	r0, [r9]
  98:	3a0e0300 	bcc	380ca0 <_start-0x3fc87360>
  9c:	490b3b0b 	stmdbmi	fp, {r0, r1, r3, r8, r9, fp, ip, sp}
  a0:	000a0213 	andeq	r0, sl, r3, lsl r2
  a4:	000f0a00 	andeq	r0, pc, r0, lsl #20
  a8:	13490b0b 	movtne	r0, #39691	; 0x9b0b
  ac:	260b0000 	strcs	r0, [fp], -r0
  b0:	00134900 	andseq	r4, r3, r0, lsl #18
  b4:	00340c00 	eorseq	r0, r4, r0, lsl #24
  b8:	0b3a0803 	bleq	e820cc <_start-0x3f185f34>
  bc:	13490b3b 	movtne	r0, #39739	; 0x9b3b
  c0:	00000a02 	andeq	r0, r0, r2, lsl #20
  c4:	0b00240d 	bleq	9100 <_start-0x3fffef00>
  c8:	030b3e0b 	movweq	r3, #48651	; 0xbe0b
  cc:	0e000008 	cdpeq	0, 0, cr0, cr0, cr8, {0}
  d0:	0111010b 	tsteq	r1, fp, lsl #2
  d4:	00000112 	andeq	r0, r0, r2, lsl r1
  d8:	4901010f 	stmdbmi	r1, {r0, r1, r2, r3, r8}
  dc:	00130113 	andseq	r0, r3, r3, lsl r1
  e0:	00211000 	eoreq	r1, r1, r0
  e4:	0b2f1349 	bleq	bc4e10 <_start-0x3f4431f0>
  e8:	0a110000 	beq	4400f0 <_start-0x3fbc7f10>
  ec:	3a0e0300 	bcc	380cf4 <_start-0x3fc8730c>
  f0:	110b3b0b 	tstne	fp, fp, lsl #22
  f4:	12000001 	andne	r0, r0, #1
  f8:	0111010b 	tsteq	r1, fp, lsl #2
  fc:	13010112 	movwne	r0, #4370	; 0x1112
 100:	34130000 	ldrcc	r0, [r3]
 104:	3a080300 	bcc	200d0c <_start-0x3fe072f4>
 108:	49053b0b 	stmdbmi	r5, {r0, r1, r3, r8, r9, fp, ip, sp}
 10c:	000a0213 	andeq	r0, sl, r3, lsl r2
 110:	012e1400 	teqeq	lr, r0, lsl #8
 114:	0e030c3f 	mcreq	12, 0, r0, cr3, cr15, {1}
 118:	053b0b3a 	ldreq	r0, [fp, #-2874]!	; 0xb3a
 11c:	13490c27 	movtne	r0, #39975	; 0x9c27
 120:	01120111 	tsteq	r2, r1, lsl r1
 124:	13010640 	movwne	r0, #5696	; 0x1640
 128:	05150000 	ldreq	r0, [r5]
 12c:	3a080300 	bcc	200d34 <_start-0x3fe072cc>
 130:	49053b0b 	stmdbmi	r5, {r0, r1, r3, r8, r9, fp, ip, sp}
 134:	000a0213 	andeq	r0, sl, r3, lsl r2
 138:	00181600 	andseq	r1, r8, r0, lsl #12
 13c:	34170000 	ldrcc	r0, [r7]
 140:	3a0e0300 	bcc	380d48 <_start-0x3fc872b8>
 144:	49053b0b 	stmdbmi	r5, {r0, r1, r3, r8, r9, fp, ip, sp}
 148:	000a0213 	andeq	r0, sl, r3, lsl r2
 14c:	012e1800 	teqeq	lr, r0, lsl #16
 150:	0e030c3f 	mcreq	12, 0, r0, cr3, cr15, {1}
 154:	053b0b3a 	ldreq	r0, [fp, #-2874]!	; 0xb3a
 158:	01110c27 	tsteq	r1, r7, lsr #24
 15c:	06400112 			; <UNDEFINED> instruction: 0x06400112
 160:	00001301 	andeq	r1, r0, r1, lsl #6
 164:	03003419 	movweq	r3, #1049	; 0x419
 168:	3b0b3a0e 	blcc	2ce9a8 <_start-0x3fd39658>
 16c:	3f13490b 	svccc	0x0013490b
 170:	000c3c0c 	andeq	r3, ip, ip, lsl #24
 174:	00341a00 	eorseq	r1, r4, r0, lsl #20
 178:	0b3a0e03 	bleq	e8398c <_start-0x3f184674>
 17c:	13490b3b 	movtne	r0, #39739	; 0x9b3b
 180:	0a020c3f 	beq	83284 <_start-0x3ff84d7c>
 184:	01000000 	mrseq	r0, (UNDEF: 0)
 188:	0e250111 	mcreq	1, 1, r0, cr5, cr1, {0}
 18c:	0e030b13 	vmoveq.32	d3[0], r0
 190:	01110e1b 	tsteq	r1, fp, lsl lr
 194:	06100112 			; <UNDEFINED> instruction: 0x06100112
 198:	24020000 	strcs	r0, [r2]
 19c:	3e0b0b00 	vmlacc.f64	d0, d11, d0
 1a0:	000e030b 	andeq	r0, lr, fp, lsl #6
 1a4:	01130300 	tsteq	r3, r0, lsl #6
 1a8:	0b3a0b0b 	bleq	e82ddc <_start-0x3f185224>
 1ac:	1301053b 	movwne	r0, #5435	; 0x153b
 1b0:	0d040000 	stceq	0, cr0, [r4]
 1b4:	3a080300 	bcc	200dbc <_start-0x3fe07244>
 1b8:	49053b0b 	stmdbmi	r5, {r0, r1, r3, r8, r9, fp, ip, sp}
 1bc:	000a3813 	andeq	r3, sl, r3, lsl r8
 1c0:	000d0500 	andeq	r0, sp, r0, lsl #10
 1c4:	0b3a0e03 	bleq	e839d8 <_start-0x3f184628>
 1c8:	1349053b 	movtne	r0, #38203	; 0x953b
 1cc:	00000a38 	andeq	r0, r0, r8, lsr sl
 1d0:	03001606 	movweq	r1, #1542	; 0x606
 1d4:	3b0b3a0e 	blcc	2cea14 <_start-0x3fd395ec>
 1d8:	00134905 	andseq	r4, r3, r5, lsl #18
 1dc:	002e0700 	eoreq	r0, lr, r0, lsl #14
 1e0:	0e030c3f 	mcreq	12, 0, r0, cr3, cr15, {1}
 1e4:	0b3b0b3a 	bleq	ec2ed4 <_start-0x3f14512c>
 1e8:	01120111 	tsteq	r2, r1, lsl r1
 1ec:	00000640 	andeq	r0, r0, r0, asr #12
 1f0:	3f012e08 	svccc	0x00012e08
 1f4:	3a0e030c 	bcc	380e2c <_start-0x3fc871d4>
 1f8:	270b3b0b 	strcs	r3, [fp, -fp, lsl #22]
 1fc:	1201110c 	andne	r1, r1, #3
 200:	01064001 	tsteq	r6, r1
 204:	09000013 	stmdbeq	r0, {r0, r1, r4}
 208:	0e030005 	cdpeq	0, 0, cr0, cr3, cr5, {0}
 20c:	0b3b0b3a 	bleq	ec2efc <_start-0x3f145104>
 210:	0a021349 	beq	84f3c <_start-0x3ff830c4>
 214:	260a0000 	strcs	r0, [sl], -r0
 218:	00134900 	andseq	r4, r3, r0, lsl #18
 21c:	000f0b00 	andeq	r0, pc, r0, lsl #22
 220:	13490b0b 	movtne	r0, #39691	; 0x9b0b
 224:	01000000 	mrseq	r0, (UNDEF: 0)
 228:	06100011 			; <UNDEFINED> instruction: 0x06100011
 22c:	01120111 	tsteq	r2, r1, lsl r1
 230:	081b0803 	ldmdaeq	fp, {r0, r1, fp}
 234:	05130825 	ldreq	r0, [r3, #-2085]	; 0x825
 238:	01000000 	mrseq	r0, (UNDEF: 0)
 23c:	06100011 			; <UNDEFINED> instruction: 0x06100011
 240:	01120111 	tsteq	r2, r1, lsl r1
 244:	081b0803 	ldmdaeq	fp, {r0, r1, fp}
 248:	05130825 	ldreq	r0, [r3, #-2085]	; 0x825
 24c:	01000000 	mrseq	r0, (UNDEF: 0)
 250:	0e250111 	mcreq	1, 1, r0, cr5, cr1, {0}
 254:	0e030b13 	vmoveq.32	d3[0], r0
 258:	01110e1b 	tsteq	r1, fp, lsl lr
 25c:	06100112 			; <UNDEFINED> instruction: 0x06100112
 260:	24020000 	strcs	r0, [r2]
 264:	3e0b0b00 	vmlacc.f64	d0, d11, d0
 268:	000e030b 	andeq	r0, lr, fp, lsl #6
 26c:	01130300 	tsteq	r3, r0, lsl #6
 270:	0b3a0b0b 	bleq	e82ea4 <_start-0x3f18515c>
 274:	1301053b 	movwne	r0, #5435	; 0x153b
 278:	0d040000 	stceq	0, cr0, [r4]
 27c:	3a0e0300 	bcc	380e84 <_start-0x3fc8717c>
 280:	49053b0b 	stmdbmi	r5, {r0, r1, r3, r8, r9, fp, ip, sp}
 284:	000a3813 	andeq	r3, sl, r3, lsl r8
 288:	00160500 	andseq	r0, r6, r0, lsl #10
 28c:	0b3a0e03 	bleq	e83aa0 <_start-0x3f184560>
 290:	1349053b 	movtne	r0, #38203	; 0x953b
 294:	0d060000 	stceq	0, cr0, [r6]
 298:	3a080300 	bcc	200ea0 <_start-0x3fe07160>
 29c:	49053b0b 	stmdbmi	r5, {r0, r1, r3, r8, r9, fp, ip, sp}
 2a0:	000a3813 	andeq	r3, sl, r3, lsl r8
 2a4:	002e0700 	eoreq	r0, lr, r0, lsl #14
 2a8:	0e030c3f 	mcreq	12, 0, r0, cr3, cr15, {1}
 2ac:	0b3b0b3a 	bleq	ec2f9c <_start-0x3f145064>
 2b0:	01120111 	tsteq	r2, r1, lsl r1
 2b4:	00000640 	andeq	r0, r0, r0, asr #12
 2b8:	3f012e08 	svccc	0x00012e08
 2bc:	3a0e030c 	bcc	380ef4 <_start-0x3fc8710c>
 2c0:	270b3b0b 	strcs	r3, [fp, -fp, lsl #22]
 2c4:	1201110c 	andne	r1, r1, #3
 2c8:	01064001 	tsteq	r6, r1
 2cc:	09000013 	stmdbeq	r0, {r0, r1, r4}
 2d0:	0e030005 	cdpeq	0, 0, cr0, cr3, cr5, {0}
 2d4:	0b3b0b3a 	bleq	ec2fc4 <_start-0x3f14503c>
 2d8:	0a021349 	beq	85004 <_start-0x3ff82ffc>
 2dc:	340a0000 	strcc	r0, [sl]
 2e0:	3a080300 	bcc	200ee8 <_start-0x3fe07118>
 2e4:	490b3b0b 	stmdbmi	fp, {r0, r1, r3, r8, r9, fp, ip, sp}
 2e8:	000a0213 	andeq	r0, sl, r3, lsl r2
 2ec:	00240b00 	eoreq	r0, r4, r0, lsl #22
 2f0:	0b3e0b0b 	bleq	f82f24 <_start-0x3f0850dc>
 2f4:	00000803 	andeq	r0, r0, r3, lsl #16
 2f8:	3f012e0c 	svccc	0x00012e0c
 2fc:	3a0e030c 	bcc	380f34 <_start-0x3fc870cc>
 300:	270b3b0b 	strcs	r3, [fp, -fp, lsl #22]
 304:	1113490c 	tstne	r3, ip, lsl #18
 308:	40011201 	andmi	r1, r1, r1, lsl #4
 30c:	0d000006 	stceq	0, cr0, [r0, #-24]	; 0xffffffe8
 310:	0c3f012e 	ldfeqs	f0, [pc], #-184	; 260 <_start-0x40007da0>
 314:	0b3a0e03 	bleq	e83b28 <_start-0x3f1844d8>
 318:	13490b3b 	movtne	r0, #39739	; 0x9b3b
 31c:	00000c3c 	andeq	r0, r0, ip, lsr ip
 320:	0000180e 	andeq	r1, r0, lr, lsl #16
	...

Disassembly of section .debug_aranges:

00000000 <.debug_aranges>:
   0:	0000001c 	andeq	r0, r0, ip, lsl r0
   4:	00000002 	andeq	r0, r0, r2
   8:	00040000 	andeq	r0, r4, r0
   c:	00000000 	andeq	r0, r0, r0
  10:	40008000 	andmi	r8, r0, r0
  14:	00000134 	andeq	r0, r0, r4, lsr r1
	...
  20:	0000001c 	andeq	r0, r0, ip, lsl r0
  24:	00500002 	subseq	r0, r0, r2
  28:	00040000 	andeq	r0, r4, r0
  2c:	00000000 	andeq	r0, r0, r0
  30:	40008140 	andmi	r8, r0, r0, asr #2
  34:	000011f4 	strdeq	r1, [r0], -r4
	...
  40:	0000001c 	andeq	r0, r0, ip, lsl r0
  44:	05120002 	ldreq	r0, [r2, #-2]
  48:	00040000 	andeq	r0, r4, r0
  4c:	00000000 	andeq	r0, r0, r0
  50:	40009334 	andmi	r9, r0, r4, lsr r3
  54:	0000010c 	andeq	r0, r0, ip, lsl #2
	...
  60:	0000001c 	andeq	r0, r0, ip, lsl r0
  64:	07230002 	streq	r0, [r3, -r2]!
  68:	00040000 	andeq	r0, r4, r0
  6c:	00000000 	andeq	r0, r0, r0
  70:	40009440 	andmi	r9, r0, r0, asr #8
  74:	00000094 	muleq	r0, r4, r0
	...
  80:	0000001c 	andeq	r0, r0, ip, lsl r0
  84:	077b0002 	ldrbeq	r0, [fp, -r2]!
  88:	00040000 	andeq	r0, r4, r0
  8c:	00000000 	andeq	r0, r0, r0
  90:	400094d4 	ldrdmi	r9, [r0], -r4
  94:	000000b0 	strheq	r0, [r0], -r0	; <UNPREDICTABLE>
	...
  a0:	0000001c 	andeq	r0, r0, ip, lsl r0
  a4:	07d30002 	ldrbeq	r0, [r3, r2]
  a8:	00040000 	andeq	r0, r4, r0
  ac:	00000000 	andeq	r0, r0, r0
  b0:	40009584 	andmi	r9, r0, r4, lsl #11
  b4:	000001f8 	strdeq	r0, [r0], -r8
	...

Disassembly of section .debug_loc:

00000000 <.debug_loc>:
   0:	00000000 	andeq	r0, r0, r0
   4:	00000004 	andeq	r0, r0, r4
   8:	007d0002 	rsbseq	r0, sp, r2
   c:	00000004 	andeq	r0, r0, r4
  10:	00000008 	andeq	r0, r0, r8
  14:	047d0002 	ldrbteq	r0, [sp], #-2
  18:	00000008 	andeq	r0, r0, r8
  1c:	00000050 	andeq	r0, r0, r0, asr r0
  20:	047b0002 	ldrbteq	r0, [fp], #-2
	...
  2c:	00000050 	andeq	r0, r0, r0, asr r0
  30:	00000054 	andeq	r0, r0, r4, asr r0
  34:	007d0002 	rsbseq	r0, sp, r2
  38:	00000054 	andeq	r0, r0, r4, asr r0
  3c:	00000058 	andeq	r0, r0, r8, asr r0
  40:	087d0002 	ldmdaeq	sp!, {r1}^
  44:	00000058 	andeq	r0, r0, r8, asr r0
  48:	000001f8 	strdeq	r0, [r0], -r8
  4c:	047b0002 	ldrbteq	r0, [fp], #-2
	...
  58:	000001f8 	strdeq	r0, [r0], -r8
  5c:	000001fc 	strdeq	r0, [r0], -ip
  60:	007d0002 	rsbseq	r0, sp, r2
  64:	000001fc 	strdeq	r0, [r0], -ip
  68:	00000200 	andeq	r0, r0, r0, lsl #4
  6c:	087d0002 	ldmdaeq	sp!, {r1}^
  70:	00000200 	andeq	r0, r0, r0, lsl #4
  74:	00000268 	andeq	r0, r0, r8, ror #4
  78:	047b0002 	ldrbteq	r0, [fp], #-2
	...
  84:	00000268 	andeq	r0, r0, r8, ror #4
  88:	0000026c 	andeq	r0, r0, ip, ror #4
  8c:	007d0002 	rsbseq	r0, sp, r2
  90:	0000026c 	andeq	r0, r0, ip, ror #4
  94:	00000270 	andeq	r0, r0, r0, ror r2
  98:	047d0002 	ldrbteq	r0, [sp], #-2
  9c:	00000270 	andeq	r0, r0, r0, ror r2
  a0:	000002fc 	strdeq	r0, [r0], -ip
  a4:	047b0002 	ldrbteq	r0, [fp], #-2
	...
  b0:	000002fc 	strdeq	r0, [r0], -ip
  b4:	00000300 	andeq	r0, r0, r0, lsl #6
  b8:	007d0002 	rsbseq	r0, sp, r2
  bc:	00000300 	andeq	r0, r0, r0, lsl #6
  c0:	00000304 	andeq	r0, r0, r4, lsl #6
  c4:	087d0002 	ldmdaeq	sp!, {r1}^
  c8:	00000304 	andeq	r0, r0, r4, lsl #6
  cc:	00000794 	muleq	r0, r4, r7
  d0:	047b0002 	ldrbteq	r0, [fp], #-2
	...
  dc:	00000794 	muleq	r0, r4, r7
  e0:	00000798 	muleq	r0, r8, r7
  e4:	007d0002 	rsbseq	r0, sp, r2
  e8:	00000798 	muleq	r0, r8, r7
  ec:	0000079c 	muleq	r0, ip, r7
  f0:	047d0002 	ldrbteq	r0, [sp], #-2
  f4:	0000079c 	muleq	r0, ip, r7
  f8:	00000814 	andeq	r0, r0, r4, lsl r8
  fc:	047b0002 	ldrbteq	r0, [fp], #-2
	...
 108:	00000814 	andeq	r0, r0, r4, lsl r8
 10c:	00000818 	andeq	r0, r0, r8, lsl r8
 110:	007d0002 	rsbseq	r0, sp, r2
 114:	00000818 	andeq	r0, r0, r8, lsl r8
 118:	0000081c 	andeq	r0, r0, ip, lsl r8
 11c:	087d0002 	ldmdaeq	sp!, {r1}^
 120:	0000081c 	andeq	r0, r0, ip, lsl r8
 124:	0000114c 	andeq	r1, r0, ip, asr #2
 128:	047b0002 	ldrbteq	r0, [fp], #-2
	...
 134:	0000114c 	andeq	r1, r0, ip, asr #2
 138:	00001150 	andeq	r1, r0, r0, asr r1
 13c:	007d0002 	rsbseq	r0, sp, r2
 140:	00001150 	andeq	r1, r0, r0, asr r1
 144:	00001154 	andeq	r1, r0, r4, asr r1
 148:	0c7d0002 	ldcleq	0, cr0, [sp], #-8
 14c:	00001154 	andeq	r1, r0, r4, asr r1
 150:	00001158 	andeq	r1, r0, r8, asr r1
 154:	147d0002 	ldrbtne	r0, [sp], #-2
 158:	00001158 	andeq	r1, r0, r8, asr r1
 15c:	0000119c 	muleq	r0, ip, r1
 160:	107b0002 	rsbsne	r0, fp, r2
	...
 16c:	0000119c 	muleq	r0, ip, r1
 170:	000011a0 	andeq	r1, r0, r0, lsr #3
 174:	007d0002 	rsbseq	r0, sp, r2
 178:	000011a0 	andeq	r1, r0, r0, lsr #3
 17c:	000011a4 	andeq	r1, r0, r4, lsr #3
 180:	107d0002 	rsbsne	r0, sp, r2
 184:	000011a4 	andeq	r1, r0, r4, lsr #3
 188:	000011a8 	andeq	r1, r0, r8, lsr #3
 18c:	187d0002 	ldmdane	sp!, {r1}^
 190:	000011a8 	andeq	r1, r0, r8, lsr #3
 194:	000011f4 	strdeq	r1, [r0], -r4
 198:	147b0002 	ldrbtne	r0, [fp], #-2
	...
 1a8:	00000004 	andeq	r0, r0, r4
 1ac:	007d0002 	rsbseq	r0, sp, r2
 1b0:	00000004 	andeq	r0, r0, r4
 1b4:	00000008 	andeq	r0, r0, r8
 1b8:	047d0002 	ldrbteq	r0, [sp], #-2
 1bc:	00000008 	andeq	r0, r0, r8
 1c0:	00000064 	andeq	r0, r0, r4, rrx
 1c4:	047b0002 	ldrbteq	r0, [fp], #-2
	...
 1d0:	00000064 	andeq	r0, r0, r4, rrx
 1d4:	00000068 	andeq	r0, r0, r8, rrx
 1d8:	007d0002 	rsbseq	r0, sp, r2
 1dc:	00000068 	andeq	r0, r0, r8, rrx
 1e0:	0000006c 	andeq	r0, r0, ip, rrx
 1e4:	087d0002 	ldmdaeq	sp!, {r1}^
 1e8:	0000006c 	andeq	r0, r0, ip, rrx
 1ec:	000000c0 	andeq	r0, r0, r0, asr #1
 1f0:	047b0002 	ldrbteq	r0, [fp], #-2
	...
 1fc:	000000c0 	andeq	r0, r0, r0, asr #1
 200:	000000c4 	andeq	r0, r0, r4, asr #1
 204:	007d0002 	rsbseq	r0, sp, r2
 208:	000000c4 	andeq	r0, r0, r4, asr #1
 20c:	000000c8 	andeq	r0, r0, r8, asr #1
 210:	087d0002 	ldmdaeq	sp!, {r1}^
 214:	000000c8 	andeq	r0, r0, r8, asr #1
 218:	0000010c 	andeq	r0, r0, ip, lsl #2
 21c:	047b0002 	ldrbteq	r0, [fp], #-2
	...
 22c:	00000004 	andeq	r0, r0, r4
 230:	007d0002 	rsbseq	r0, sp, r2
 234:	00000004 	andeq	r0, r0, r4
 238:	00000008 	andeq	r0, r0, r8
 23c:	047d0002 	ldrbteq	r0, [sp], #-2
 240:	00000008 	andeq	r0, r0, r8
 244:	00000014 	andeq	r0, r0, r4, lsl r0
 248:	047b0002 	ldrbteq	r0, [fp], #-2
	...
 254:	00000014 	andeq	r0, r0, r4, lsl r0
 258:	00000018 	andeq	r0, r0, r8, lsl r0
 25c:	007d0002 	rsbseq	r0, sp, r2
 260:	00000018 	andeq	r0, r0, r8, lsl r0
 264:	0000001c 	andeq	r0, r0, ip, lsl r0
 268:	047d0002 	ldrbteq	r0, [sp], #-2
 26c:	0000001c 	andeq	r0, r0, ip, lsl r0
 270:	000000ac 	andeq	r0, r0, ip, lsr #1
 274:	047b0002 	ldrbteq	r0, [fp], #-2
	...
 280:	000000ac 	andeq	r0, r0, ip, lsr #1
 284:	000000b0 	strheq	r0, [r0], -r0	; <UNPREDICTABLE>
 288:	007d0002 	rsbseq	r0, sp, r2
 28c:	000000b0 	strheq	r0, [r0], -r0	; <UNPREDICTABLE>
 290:	000000b4 	strheq	r0, [r0], -r4
 294:	047d0002 	ldrbteq	r0, [sp], #-2
 298:	000000b4 	strheq	r0, [r0], -r4
 29c:	00000134 	andeq	r0, r0, r4, lsr r1
 2a0:	047b0002 	ldrbteq	r0, [fp], #-2
	...
 2ac:	00000134 	andeq	r0, r0, r4, lsr r1
 2b0:	00000138 	andeq	r0, r0, r8, lsr r1
 2b4:	007d0002 	rsbseq	r0, sp, r2
 2b8:	00000138 	andeq	r0, r0, r8, lsr r1
 2bc:	0000013c 	andeq	r0, r0, ip, lsr r1
 2c0:	087d0002 	ldmdaeq	sp!, {r1}^
 2c4:	0000013c 	andeq	r0, r0, ip, lsr r1
 2c8:	000001f8 	strdeq	r0, [r0], -r8
 2cc:	047b0002 	ldrbteq	r0, [fp], #-2
	...

Disassembly of section .debug_str:

00000000 <.debug_str>:
   0:	75625f5f 	strbvc	r5, [r2, #-3935]!	; 0xf5f
   4:	69746c69 	ldmdbvs	r4!, {r0, r3, r5, r6, sl, fp, sp, lr}^
   8:	61765f6e 	cmnvs	r6, lr, ror #30
   c:	73696c5f 	cmnvc	r9, #24320	; 0x5f00
  10:	69730074 	ldmdbvs	r3!, {r2, r4, r5, r6}^
  14:	656c706d 	strbvs	r7, [ip, #-109]!	; 0x6d
  18:	7274735f 	rsbsvc	r7, r4, #2080374785	; 0x7c000001
  1c:	6c756f74 	ldclvs	15, cr6, [r5], #-464	; 0xfffffe30
  20:	6c617600 	stclvs	6, cr7, [r1]
  24:	63006575 	movwvs	r6, #1397	; 0x575
  28:	746e756f 	strbtvc	r7, [lr], #-1391	; 0x56f
  2c:	696b7300 	stmdbvs	fp!, {r8, r9, ip, sp, lr}^
  30:	74615f70 	strbtvc	r5, [r1], #-3952	; 0xf70
  34:	4400696f 	strmi	r6, [r0], #-2415	; 0x96f
  38:	794d5c3a 	stmdbvc	sp, {r1, r3, r4, r5, sl, fp, ip, lr}^
  3c:	676f7250 			; <UNDEFINED> instruction: 0x676f7250
  40:	5c6d6172 	stfple	f6, [sp], #-456	; 0xfffffe38
  44:	5f6d7261 	svcpl	0x006d7261
  48:	32313434 	eorscc	r3, r1, #872415232	; 0x34000000
  4c:	522e345c 	eorpl	r3, lr, #1543503872	; 0x5c000000
  50:	5f004354 	svcpl	0x00004354
  54:	756f745f 	strbvc	r7, [pc, #-1119]!	; fffffbfd <_ctype+0xbfff5bcd>
  58:	72657070 	rsbvc	r7, r5, #112	; 0x70
  5c:	675f5f00 	ldrbvs	r5, [pc, -r0, lsl #30]
  60:	5f63756e 	svcpl	0x0063756e
  64:	6c5f6176 	ldfvse	f6, [pc], {118}	; 0x76
  68:	00747369 	rsbseq	r7, r4, r9, ror #6
  6c:	63657270 	cmnvs	r5, #7
  70:	6f697369 	svcvs	0x00697369
  74:	6e75006e 	cdpvs	0, 7, cr0, cr5, cr14, {3}
  78:	6e676973 	mcrvs	9, 3, r6, cr7, cr3, {3}
  7c:	63206465 	teqvs	r0, #1694498816	; 0x65000000
  80:	00726168 	rsbseq	r6, r2, r8, ror #2
  84:	65736162 	ldrbvs	r6, [r3, #-354]!	; 0x162
  88:	554e4700 	strbpl	r4, [lr, #-1792]	; 0x700
  8c:	34204320 	strtcc	r4, [r0], #-800	; 0x320
  90:	322e362e 	eorcc	r3, lr, #48234496	; 0x2e00000
  94:	6e6f6c00 	cdpvs	12, 6, cr6, cr15, cr0, {0}
  98:	6e752067 	cdpvs	0, 7, cr2, cr5, cr7, {3}
  9c:	6e676973 	mcrvs	9, 3, r6, cr7, cr3, {3}
  a0:	69206465 	stmdbvs	r0!, {r0, r2, r5, r6, sl, sp, lr}
  a4:	7300746e 	movwvc	r7, #1134	; 0x46e
  a8:	6c706d69 	ldclvs	13, cr6, [r0], #-420	; 0xfffffe5c
  ac:	74735f65 	ldrbtvc	r5, [r3], #-3941	; 0xf65
  b0:	6c6f7472 	cfstrdvs	mvd7, [pc], #-456	; fffffef0 <_ctype+0xbfff5ec0>
  b4:	6d6f6300 	stclvs	3, cr6, [pc]	; bc <_start-0x40007f44>
  b8:	2f6e6f6d 	svccs	0x006e6f6d
  bc:	2f637273 	svccs	0x00637273
  c0:	6e697270 	mcrvs	2, 3, r7, cr9, cr0, {3}
  c4:	632e6674 	teqvs	lr, #121634816	; 0x7400000
  c8:	616c6600 	cmnvs	ip, r0, lsl #12
  cc:	71007367 	tstvc	r0, r7, ror #6
  d0:	696c6175 	stmdbvs	ip!, {r0, r2, r4, r5, r6, r8, sp, lr}^
  d4:	72656966 	rsbvc	r6, r5, #1671168	; 0x198000
  d8:	73657200 	cmnvc	r5, #0
  dc:	00746c75 	rsbseq	r6, r4, r5, ror ip
  e0:	65706572 	ldrbvs	r6, [r0, #-1394]!	; 0x572
  e4:	73007461 	movwvc	r7, #1121	; 0x461
  e8:	6c6e7274 	sfmvs	f7, 2, [lr], #-464	; 0xfffffe30
  ec:	65006e65 	strvs	r6, [r0, #-3685]	; 0xe65
  f0:	0070646e 	rsbseq	r6, r0, lr, ror #8
  f4:	7974635f 	ldmdbvc	r4!, {r0, r1, r2, r3, r4, r6, r8, r9, sp, lr}^
  f8:	64006570 	strvs	r6, [r0], #-1392	; 0x570
  fc:	74696769 	strbtvc	r6, [r9], #-1897	; 0x769
 100:	72700073 	rsbsvc	r0, r0, #115	; 0x73
 104:	62746e69 	rsbsvs	r6, r4, #1680	; 0x690
 108:	65666675 	strbvs	r6, [r6, #-1653]!	; 0x675
 10c:	69660072 	stmdbvs	r6!, {r1, r4, r5, r6}^
 110:	5f646c65 	svcpl	0x00646c65
 114:	74646977 	strbtvc	r6, [r4], #-2423	; 0x977
 118:	72610068 	rsbvc	r0, r1, #104	; 0x68
 11c:	6e007367 	cdpvs	3, 0, cr7, cr0, cr7, {3}
 120:	65626d75 	strbvs	r6, [r2, #-3445]!	; 0xd75
 124:	6f6c0072 	svcvs	0x006c0072
 128:	6920676e 	stmdbvs	r0!, {r1, r2, r3, r5, r6, r8, r9, sl, sp, lr}
 12c:	7300746e 	movwvc	r7, #1134	; 0x46e
 130:	006e6769 	rsbeq	r6, lr, r9, ror #14
 134:	65725f5f 	ldrbvs	r5, [r2, #-3935]!	; 0xf5f
 138:	69730073 	ldmdbvs	r3!, {r0, r1, r4, r5, r6}^
 13c:	7600657a 			; <UNDEFINED> instruction: 0x7600657a
 140:	69727073 	ldmdbvs	r2!, {r0, r1, r4, r5, r6, ip, sp, lr}^
 144:	0066746e 	rsbeq	r7, r6, lr, ror #8
 148:	74726175 	ldrbtvc	r6, [r2], #-373	; 0x175
 14c:	49550032 	ldmdbmi	r5, {r1, r4, r5}^
 150:	3250544e 	subscc	r5, r0, #1308622848	; 0x4e000000
 154:	4e495500 	cdpmi	5, 4, cr5, cr9, cr0, {0}
 158:	32505354 	subscc	r5, r0, #1342177281	; 0x50000001
 15c:	52425500 	subpl	r5, r2, #0
 160:	32564944 	subscc	r4, r6, #1114112	; 0x110000
 164:	74737000 	ldrbtvc	r7, [r3]
 168:	46550072 			; <UNDEFINED> instruction: 0x46550072
 16c:	54415453 	strbpl	r5, [r1], #-1107	; 0x453
 170:	54550032 	ldrbpl	r0, [r5], #-50	; 0x32
 174:	41545352 	cmpmi	r4, r2, asr r3
 178:	75003254 	strvc	r3, [r0, #-596]	; 0x254
 17c:	5f747261 	svcpl	0x00747261
 180:	74696e69 	strbtvc	r6, [r9], #-3689	; 0xe69
 184:	74616400 	strbtvc	r6, [r1], #-1024	; 0x400
 188:	46550061 	ldrbmi	r0, [r5], -r1, rrx
 18c:	324e4f43 	subcc	r4, lr, #268	; 0x10c
 190:	58545500 	ldmdapl	r4, {r8, sl, ip, lr}^
 194:	43003248 	movwmi	r3, #584	; 0x248
 198:	44504e4f 	ldrbmi	r4, [r0], #-3663	; 0xe4f
 19c:	4355004e 	cmpmi	r5, #78	; 0x4e
 1a0:	00324e4f 	eorseq	r4, r2, pc, asr #28
 1a4:	54534d55 	ldrbpl	r4, [r3], #-3413	; 0xd55
 1a8:	00325441 	eorseq	r5, r2, r1, asr #8
 1ac:	544e4955 	strbpl	r4, [lr], #-2389	; 0x955
 1b0:	5500324d 	strpl	r3, [r0, #-589]	; 0x24d
 1b4:	4e4f434c 	cdpmi	3, 4, cr4, cr15, cr12, {2}
 1b8:	70670032 	rsbvc	r0, r7, r2, lsr r0
 1bc:	70003161 	andvc	r3, r0, r1, ror #2
 1c0:	00637475 	rsbeq	r7, r3, r5, ror r4
 1c4:	53524555 	cmppl	r2, #356515840	; 0x15400000
 1c8:	32544154 	subscc	r4, r4, #21
 1cc:	44555000 	ldrbmi	r5, [r5]
 1d0:	004e4450 	subeq	r4, lr, r0, asr r4
 1d4:	6d6d6f63 	stclvs	15, cr6, [sp, #-396]!	; 0xfffffe74
 1d8:	732f6e6f 	teqvc	pc, #1776	; 0x6f0
 1dc:	752f6372 	strvc	r6, [pc, #-882]!	; fffffe72 <_ctype+0xbfff5e42>
 1e0:	2e747261 	cdpcs	2, 7, cr7, cr4, cr1, {3}
 1e4:	75700063 	ldrbvc	r0, [r0, #-99]!	; 0x63
 1e8:	55007374 	strpl	r7, [r0, #-884]	; 0x374
 1ec:	4e4f434d 	cdpmi	3, 4, cr4, cr15, cr13, {2}
 1f0:	52550032 	subspl	r0, r5, #50	; 0x32
 1f4:	00324858 	eorseq	r4, r2, r8, asr r8
 1f8:	41524655 	cmpmi	r2, r5, asr r6
 1fc:	4c415643 	mcrrmi	6, 4, r5, r1, cr3
 200:	54520032 	ldrbpl	r0, [r2], #-50	; 0x32
 204:	6e695f43 	cdpvs	15, 6, cr5, cr9, cr3, {2}
 208:	42007469 	andmi	r7, r0, #1761607680	; 0x69000000
 20c:	45574443 	ldrbmi	r4, [r7, #-1091]	; 0x443
 210:	72004b45 	andvc	r4, r0, #70656	; 0x11400
 214:	63626374 	cmnvs	r2, #-805306367	; 0xd0000001
 218:	43420064 	movtmi	r0, #8292	; 0x2064
 21c:	43455344 	movtmi	r5, #21316	; 0x5344
 220:	44434200 	strbmi	r4, [r3], #-512	; 0x200
 224:	00594144 	subseq	r4, r9, r4, asr #2
 228:	4d444342 	stclmi	3, cr4, [r4, #-264]	; 0xfffffef8
 22c:	74004e49 	strvc	r4, [r0], #-3657	; 0xe49
 230:	00656d69 	rsbeq	r6, r5, r9, ror #26
 234:	6e69616d 	powvsez	f6, f1, #5.0
 238:	69616d00 	stmdbvs	r1!, {r8, sl, fp, sp, lr}^
 23c:	00632e6e 	rsbeq	r2, r3, lr, ror #28
 240:	32787067 	rsbscc	r7, r8, #103	; 0x67
 244:	5f6f6400 	svcpl	0x006f6400
 248:	00717269 	rsbseq	r7, r1, r9, ror #4
 24c:	48444342 	stmdami	r4, {r1, r6, r8, r9, lr}^
 250:	0052554f 	subseq	r5, r2, pc, asr #10
 254:	4d444342 	stclmi	3, cr4, [r4, #-264]	; 0xfffffef8
 258:	42004e4f 	andmi	r4, r0, #1264	; 0x4f0
 25c:	45594443 	ldrbmi	r4, [r9, #-1091]	; 0x443
 260:	6d005241 	sfmvs	f5, 4, [r0, #-260]	; 0xfffffefc
 264:	6c656479 	cfstrdvs	mvd6, [r5], #-484	; 0xfffffe1c
 268:	6d5f7961 	ldclvs	9, cr7, [pc, #-388]	; ec <_start-0x40007f14>
 26c:	Address 0x0000026c is out of bounds.


Disassembly of section .debug_frame:

00000000 <.debug_frame>:
   0:	0000000c 	andeq	r0, r0, ip
   4:	ffffffff 			; <UNDEFINED> instruction: 0xffffffff
   8:	7c020001 	stcvc	0, cr0, [r2], {1}
   c:	000d0c0e 	andeq	r0, sp, lr, lsl #24
  10:	00000014 	andeq	r0, r0, r4, lsl r0
  14:	00000000 	andeq	r0, r0, r0
  18:	40008140 	andmi	r8, r0, r0, asr #2
  1c:	00000050 	andeq	r0, r0, r0, asr r0
  20:	8b040e42 	blhi	103930 <_start-0x3ff046d0>
  24:	0b0d4201 	bleq	350830 <_start-0x3fcb77d0>
  28:	00000018 	andeq	r0, r0, r8, lsl r0
  2c:	00000000 	andeq	r0, r0, r0
  30:	40008190 	mulmi	r0, r0, r1
  34:	000001a8 	andeq	r0, r0, r8, lsr #3
  38:	8e080e42 	cdphi	14, 0, cr0, cr8, cr2, {2}
  3c:	42028b01 	andmi	r8, r2, #1024	; 0x400
  40:	00040b0c 	andeq	r0, r4, ip, lsl #22
  44:	00000018 	andeq	r0, r0, r8, lsl r0
  48:	00000000 	andeq	r0, r0, r0
  4c:	40008338 	andmi	r8, r0, r8, lsr r3
  50:	00000070 	andeq	r0, r0, r0, ror r0
  54:	8e080e42 	cdphi	14, 0, cr0, cr8, cr2, {2}
  58:	42028b01 	andmi	r8, r2, #1024	; 0x400
  5c:	00040b0c 	andeq	r0, r4, ip, lsl #22
  60:	00000014 	andeq	r0, r0, r4, lsl r0
  64:	00000000 	andeq	r0, r0, r0
  68:	400083a8 	andmi	r8, r0, r8, lsr #7
  6c:	00000094 	muleq	r0, r4, r0
  70:	8b040e42 	blhi	103980 <_start-0x3ff04680>
  74:	0b0d4201 	bleq	350880 <_start-0x3fcb7780>
  78:	00000018 	andeq	r0, r0, r8, lsl r0
  7c:	00000000 	andeq	r0, r0, r0
  80:	4000843c 	andmi	r8, r0, ip, lsr r4
  84:	00000498 	muleq	r0, r8, r4
  88:	8e080e42 	cdphi	14, 0, cr0, cr8, cr2, {2}
  8c:	42028b01 	andmi	r8, r2, #1024	; 0x400
  90:	00040b0c 	andeq	r0, r4, ip, lsl #22
  94:	00000014 	andeq	r0, r0, r4, lsl r0
  98:	00000000 	andeq	r0, r0, r0
  9c:	400088d4 	ldrdmi	r8, [r0], -r4
  a0:	00000080 	andeq	r0, r0, r0, lsl #1
  a4:	8b040e42 	blhi	1039b4 <_start-0x3ff0464c>
  a8:	0b0d4201 	bleq	3508b4 <_start-0x3fcb774c>
  ac:	00000018 	andeq	r0, r0, r8, lsl r0
  b0:	00000000 	andeq	r0, r0, r0
  b4:	40008954 	andmi	r8, r0, r4, asr r9
  b8:	00000938 	andeq	r0, r0, r8, lsr r9
  bc:	8e080e42 	cdphi	14, 0, cr0, cr8, cr2, {2}
  c0:	42028b01 	andmi	r8, r2, #1024	; 0x400
  c4:	00040b0c 	andeq	r0, r4, ip, lsl #22
  c8:	00000020 	andeq	r0, r0, r0, lsr #32
  cc:	00000000 	andeq	r0, r0, r0
  d0:	4000928c 	andmi	r9, r0, ip, lsl #5
  d4:	00000050 	andeq	r0, r0, r0, asr r0
  d8:	830c0e42 	movwhi	r0, #52802	; 0xce42
  dc:	81028201 	tsthi	r2, r1, lsl #4
  e0:	140e4203 	strne	r4, [lr], #-515	; 0x203
  e4:	058b048e 	streq	r0, [fp, #1166]	; 0x48e
  e8:	100b0c42 	andne	r0, fp, r2, asr #24
  ec:	00000024 	andeq	r0, r0, r4, lsr #32
  f0:	00000000 	andeq	r0, r0, r0
  f4:	400092dc 	ldrdmi	r9, [r0], -ip
  f8:	00000058 	andeq	r0, r0, r8, asr r0
  fc:	83100e42 	tsthi	r0, #1056	; 0x420
 100:	81028201 	tsthi	r2, r1, lsl #4
 104:	42048003 	andmi	r8, r4, #3
 108:	058e180e 	streq	r1, [lr, #2062]	; 0x80e
 10c:	0c42068b 	mcrreq	6, 8, r0, r2, cr11
 110:	0000140b 	andeq	r1, r0, fp, lsl #8
 114:	0000000c 	andeq	r0, r0, ip
 118:	ffffffff 			; <UNDEFINED> instruction: 0xffffffff
 11c:	7c020001 	stcvc	0, cr0, [r2], {1}
 120:	000d0c0e 	andeq	r0, sp, lr, lsl #24
 124:	00000014 	andeq	r0, r0, r4, lsl r0
 128:	00000114 	andeq	r0, r0, r4, lsl r1
 12c:	40009334 	andmi	r9, r0, r4, lsr r3
 130:	00000064 	andeq	r0, r0, r4, rrx
 134:	8b040e42 	blhi	103a44 <_start-0x3ff045bc>
 138:	0b0d4201 	bleq	350944 <_start-0x3fcb76bc>
 13c:	00000018 	andeq	r0, r0, r8, lsl r0
 140:	00000114 	andeq	r0, r0, r4, lsl r1
 144:	40009398 	mulmi	r0, r8, r3
 148:	0000005c 	andeq	r0, r0, ip, asr r0
 14c:	8e080e42 	cdphi	14, 0, cr0, cr8, cr2, {2}
 150:	42028b01 	andmi	r8, r2, #1024	; 0x400
 154:	00040b0c 	andeq	r0, r4, ip, lsl #22
 158:	00000018 	andeq	r0, r0, r8, lsl r0
 15c:	00000114 	andeq	r0, r0, r4, lsl r1
 160:	400093f4 	strdmi	r9, [r0], -r4
 164:	0000004c 	andeq	r0, r0, ip, asr #32
 168:	8e080e42 	cdphi	14, 0, cr0, cr8, cr2, {2}
 16c:	42028b01 	andmi	r8, r2, #1024	; 0x400
 170:	00040b0c 	andeq	r0, r4, ip, lsl #22
 174:	0000000c 	andeq	r0, r0, ip
 178:	ffffffff 			; <UNDEFINED> instruction: 0xffffffff
 17c:	7c020001 	stcvc	0, cr0, [r2], {1}
 180:	000d0c0e 	andeq	r0, sp, lr, lsl #24
 184:	00000014 	andeq	r0, r0, r4, lsl r0
 188:	00000174 	andeq	r0, r0, r4, ror r1
 18c:	40009584 	andmi	r9, r0, r4, lsl #11
 190:	00000014 	andeq	r0, r0, r4, lsl r0
 194:	8b040e42 	blhi	103aa4 <_start-0x3ff0455c>
 198:	0b0d4201 	bleq	3509a4 <_start-0x3fcb765c>
 19c:	00000014 	andeq	r0, r0, r4, lsl r0
 1a0:	00000174 	andeq	r0, r0, r4, ror r1
 1a4:	40009598 	mulmi	r0, r8, r5
 1a8:	00000098 	muleq	r0, r8, r0
 1ac:	8b040e42 	blhi	103abc <_start-0x3ff04544>
 1b0:	0b0d4201 	bleq	3509bc <_start-0x3fcb7644>
 1b4:	00000014 	andeq	r0, r0, r4, lsl r0
 1b8:	00000174 	andeq	r0, r0, r4, ror r1
 1bc:	40009630 	andmi	r9, r0, r0, lsr r6
 1c0:	00000088 	andeq	r0, r0, r8, lsl #1
 1c4:	8b040e42 	blhi	103ad4 <_start-0x3ff0452c>
 1c8:	0b0d4201 	bleq	3509d4 <_start-0x3fcb762c>
 1cc:	00000018 	andeq	r0, r0, r8, lsl r0
 1d0:	00000174 	andeq	r0, r0, r4, ror r1
 1d4:	400096b8 			; <UNDEFINED> instruction: 0x400096b8
 1d8:	000000c4 	andeq	r0, r0, r4, asr #1
 1dc:	8e080e42 	cdphi	14, 0, cr0, cr8, cr2, {2}
 1e0:	42028b01 	andmi	r8, r2, #1024	; 0x400
 1e4:	00040b0c 	andeq	r0, r4, ip, lsl #22
