
adc.elf:     file format elf32-littlearm


Disassembly of section .text:

40008000 <_start>:
40008000:	ea00000d 	b	4000803c <reset>
40008004:	e59ff014 	ldr	pc, [pc, #20]	; 40008020 <_undefined_instruction>
40008008:	e59ff014 	ldr	pc, [pc, #20]	; 40008024 <_software_interrupt>
4000800c:	e59ff014 	ldr	pc, [pc, #20]	; 40008028 <_prefetch_abort>
40008010:	e59ff014 	ldr	pc, [pc, #20]	; 4000802c <_data_abort>
40008014:	e59ff014 	ldr	pc, [pc, #20]	; 40008030 <_not_used>
40008018:	e59ff014 	ldr	pc, [pc, #20]	; 40008034 <_irq>
4000801c:	e59ff014 	ldr	pc, [pc, #20]	; 40008038 <_fiq>

40008020 <_undefined_instruction>:
40008020:	40008020 	andmi	r8, r0, r0, lsr #32

40008024 <_software_interrupt>:
40008024:	40008024 	andmi	r8, r0, r4, lsr #32

40008028 <_prefetch_abort>:
40008028:	40008028 	andmi	r8, r0, r8, lsr #32

4000802c <_data_abort>:
4000802c:	4000802c 	andmi	r8, r0, ip, lsr #32

40008030 <_not_used>:
40008030:	40008030 	andmi	r8, r0, r0, lsr r0

40008034 <_irq>:
40008034:	40008110 	andmi	r8, r0, r0, lsl r1

40008038 <_fiq>:
40008038:	40008038 	andmi	r8, r0, r8, lsr r0

4000803c <reset>:
4000803c:	e59f00e0 	ldr	r0, [pc, #224]	; 40008124 <stacktop+0x4>
40008040:	ee0c0f10 	mcr	15, 0, r0, cr12, cr0, {0}
40008044:	e10f0000 	mrs	r0, CPSR
40008048:	e3c0001f 	bic	r0, r0, #31
4000804c:	e38000d3 	orr	r0, r0, #211	; 0xd3
40008050:	e129f000 	msr	CPSR_fc, r0
40008054:	e3e0020f 	mvn	r0, #-268435456	; 0xf0000000
40008058:	ee010f50 	mcr	15, 0, r0, cr1, cr0, {2}
4000805c:	e3a00000 	mov	r0, #0
40008060:	ee080f17 	mcr	15, 0, r0, cr8, cr7, {0}
40008064:	ee070f15 	mcr	15, 0, r0, cr7, cr5, {0}
40008068:	e3a03101 	mov	r3, #1073741824	; 0x40000000
4000806c:	eee83a10 	vmsr	fpexc, r3
40008070:	ee110f10 	mrc	15, 0, r0, cr1, cr0, {0}
40008074:	e3c00a02 	bic	r0, r0, #8192	; 0x2000
40008078:	e3c00007 	bic	r0, r0, #7
4000807c:	e3800a01 	orr	r0, r0, #4096	; 0x1000
40008080:	e3800002 	orr	r0, r0, #2
40008084:	e3800b02 	orr	r0, r0, #2048	; 0x800
40008088:	ee010f10 	mcr	15, 0, r0, cr1, cr0, {0}
4000808c:	e59f0094 	ldr	r0, [pc, #148]	; 40008128 <stacktop+0x8>
40008090:	e5901000 	ldr	r1, [r0]
40008094:	e3c1180f 	bic	r1, r1, #983040	; 0xf0000
40008098:	e3811801 	orr	r1, r1, #65536	; 0x10000
4000809c:	e5801000 	str	r1, [r0]
400080a0:	e59f0084 	ldr	r0, [pc, #132]	; 4000812c <stacktop+0xc>
400080a4:	e5901000 	ldr	r1, [r0]
400080a8:	e3c11c03 	bic	r1, r1, #768	; 0x300
400080ac:	e5801000 	str	r1, [r0]
400080b0:	e59f0078 	ldr	r0, [pc, #120]	; 40008130 <stacktop+0x10>
400080b4:	e5901000 	ldr	r1, [r0]
400080b8:	e3811010 	orr	r1, r1, #16
400080bc:	e5801000 	str	r1, [r0]

400080c0 <init_stack>:
400080c0:	e59f0058 	ldr	r0, [pc, #88]	; 40008120 <stacktop>
400080c4:	e1a0d000 	mov	sp, r0
400080c8:	e2400c02 	sub	r0, r0, #512	; 0x200
400080cc:	e329f0d2 	msr	CPSR_fc, #210	; 0xd2
400080d0:	e1a0d000 	mov	sp, r0
400080d4:	e2400c02 	sub	r0, r0, #512	; 0x200
400080d8:	e329f0d1 	msr	CPSR_fc, #209	; 0xd1
400080dc:	e1a0d000 	mov	sp, r0
400080e0:	e2400000 	sub	r0, r0, #0
400080e4:	e329f0d7 	msr	CPSR_fc, #215	; 0xd7
400080e8:	e1a0d000 	mov	sp, r0
400080ec:	e2400000 	sub	r0, r0, #0
400080f0:	e329f0db 	msr	CPSR_fc, #219	; 0xdb
400080f4:	e1a0d000 	mov	sp, r0
400080f8:	e2400000 	sub	r0, r0, #0
400080fc:	e329f010 	msr	CPSR_fc, #16
40008100:	e1a0d000 	mov	sp, r0
40008104:	ea000597 	b	40009768 <main>
40008108:	e320f000 	nop	{0}
4000810c:	e320f000 	nop	{0}

40008110 <irq_handler>:
40008110:	e24ee004 	sub	lr, lr, #4
40008114:	e92d5fff 	push	{r0, r1, r2, r3, r4, r5, r6, r7, r8, r9, sl, fp, ip, lr}
40008118:	eb00054f 	bl	4000965c <do_irq>
4000811c:	e8fd9fff 	ldm	sp!, {r0, r1, r2, r3, r4, r5, r6, r7, r8, r9, sl, fp, ip, pc}^

40008120 <stacktop>:
40008120:	4000a580 	andmi	sl, r0, r0, lsl #11
40008124:	40008000 	andmi	r8, r0, r0
40008128:	114001e0 	smlalttne	r0, r0, r0, r1	; <UNPREDICTABLE>
4000812c:	114001e8 	smlalttne	r0, r0, r8, r1	; <UNPREDICTABLE>
40008130:	114001e4 	smlalttne	r0, r0, r4, r1	; <UNPREDICTABLE>
40008134:	e320f000 	nop	{0}
40008138:	e320f000 	nop	{0}
4000813c:	e320f000 	nop	{0}

40008140 <__toupper>:
40008140:	e52db004 	push	{fp}		; (str fp, [sp, #-4]!)
40008144:	e28db000 	add	fp, sp, #0
40008148:	e24dd004 	sub	sp, sp, #4
4000814c:	e1a03000 	mov	r3, r0
40008150:	e54b3004 	strb	r3, [fp, #-4]
40008154:	e55b3004 	ldrb	r3, [fp, #-4]
40008158:	e59f202c 	ldr	r2, [pc, #44]	; 4000818c <__toupper+0x4c>
4000815c:	e7d23003 	ldrb	r3, [r2, r3]
40008160:	e2033002 	and	r3, r3, #2
40008164:	e3530000 	cmp	r3, #0
40008168:	0a000002 	beq	40008178 <__toupper+0x38>
4000816c:	e55b3004 	ldrb	r3, [fp, #-4]
40008170:	e2433020 	sub	r3, r3, #32
40008174:	e54b3004 	strb	r3, [fp, #-4]
40008178:	e55b3004 	ldrb	r3, [fp, #-4]
4000817c:	e1a00003 	mov	r0, r3
40008180:	e28bd000 	add	sp, fp, #0
40008184:	e8bd0800 	ldmfd	sp!, {fp}
40008188:	e12fff1e 	bx	lr
4000818c:	4000a580 	andmi	sl, r0, r0, lsl #11

40008190 <simple_strtoul>:
40008190:	e92d4800 	push	{fp, lr}
40008194:	e28db004 	add	fp, sp, #4
40008198:	e24dd014 	sub	sp, sp, #20
4000819c:	e50b0010 	str	r0, [fp, #-16]
400081a0:	e50b1014 	str	r1, [fp, #-20]
400081a4:	e50b2018 	str	r2, [fp, #-24]
400081a8:	e3a03000 	mov	r3, #0
400081ac:	e50b3008 	str	r3, [fp, #-8]
400081b0:	e51b3010 	ldr	r3, [fp, #-16]
400081b4:	e5d33000 	ldrb	r3, [r3]
400081b8:	e3530030 	cmp	r3, #48	; 0x30
400081bc:	1a000018 	bne	40008224 <simple_strtoul+0x94>
400081c0:	e51b3010 	ldr	r3, [fp, #-16]
400081c4:	e2833001 	add	r3, r3, #1
400081c8:	e50b3010 	str	r3, [fp, #-16]
400081cc:	e51b3010 	ldr	r3, [fp, #-16]
400081d0:	e5d33000 	ldrb	r3, [r3]
400081d4:	e3530078 	cmp	r3, #120	; 0x78
400081d8:	1a00000c 	bne	40008210 <simple_strtoul+0x80>
400081dc:	e51b3010 	ldr	r3, [fp, #-16]
400081e0:	e2833001 	add	r3, r3, #1
400081e4:	e5d33000 	ldrb	r3, [r3]
400081e8:	e59f2140 	ldr	r2, [pc, #320]	; 40008330 <simple_strtoul+0x1a0>
400081ec:	e7d23003 	ldrb	r3, [r2, r3]
400081f0:	e2033044 	and	r3, r3, #68	; 0x44
400081f4:	e3530000 	cmp	r3, #0
400081f8:	0a000004 	beq	40008210 <simple_strtoul+0x80>
400081fc:	e3a03010 	mov	r3, #16
40008200:	e50b3018 	str	r3, [fp, #-24]
40008204:	e51b3010 	ldr	r3, [fp, #-16]
40008208:	e2833001 	add	r3, r3, #1
4000820c:	e50b3010 	str	r3, [fp, #-16]
40008210:	e51b3018 	ldr	r3, [fp, #-24]
40008214:	e3530000 	cmp	r3, #0
40008218:	1a000001 	bne	40008224 <simple_strtoul+0x94>
4000821c:	e3a03008 	mov	r3, #8
40008220:	e50b3018 	str	r3, [fp, #-24]
40008224:	e51b3018 	ldr	r3, [fp, #-24]
40008228:	e3530000 	cmp	r3, #0
4000822c:	1a00000c 	bne	40008264 <simple_strtoul+0xd4>
40008230:	e3a0300a 	mov	r3, #10
40008234:	e50b3018 	str	r3, [fp, #-24]
40008238:	ea000009 	b	40008264 <simple_strtoul+0xd4>
4000823c:	e51b3008 	ldr	r3, [fp, #-8]
40008240:	e51b2018 	ldr	r2, [fp, #-24]
40008244:	e0020392 	mul	r2, r2, r3
40008248:	e51b300c 	ldr	r3, [fp, #-12]
4000824c:	e0823003 	add	r3, r2, r3
40008250:	e50b3008 	str	r3, [fp, #-8]
40008254:	e51b3010 	ldr	r3, [fp, #-16]
40008258:	e2833001 	add	r3, r3, #1
4000825c:	e50b3010 	str	r3, [fp, #-16]
40008260:	ea000000 	b	40008268 <simple_strtoul+0xd8>
40008264:	e1a00000 	nop			; (mov r0, r0)
40008268:	e51b3010 	ldr	r3, [fp, #-16]
4000826c:	e5d33000 	ldrb	r3, [r3]
40008270:	e59f20b8 	ldr	r2, [pc, #184]	; 40008330 <simple_strtoul+0x1a0>
40008274:	e7d23003 	ldrb	r3, [r2, r3]
40008278:	e2033044 	and	r3, r3, #68	; 0x44
4000827c:	e3530000 	cmp	r3, #0
40008280:	0a000020 	beq	40008308 <simple_strtoul+0x178>
40008284:	e51b3010 	ldr	r3, [fp, #-16]
40008288:	e5d33000 	ldrb	r3, [r3]
4000828c:	e59f209c 	ldr	r2, [pc, #156]	; 40008330 <simple_strtoul+0x1a0>
40008290:	e7d23003 	ldrb	r3, [r2, r3]
40008294:	e2033004 	and	r3, r3, #4
40008298:	e3530000 	cmp	r3, #0
4000829c:	0a000003 	beq	400082b0 <simple_strtoul+0x120>
400082a0:	e51b3010 	ldr	r3, [fp, #-16]
400082a4:	e5d33000 	ldrb	r3, [r3]
400082a8:	e2433030 	sub	r3, r3, #48	; 0x30
400082ac:	ea000010 	b	400082f4 <simple_strtoul+0x164>
400082b0:	e51b3010 	ldr	r3, [fp, #-16]
400082b4:	e5d33000 	ldrb	r3, [r3]
400082b8:	e59f2070 	ldr	r2, [pc, #112]	; 40008330 <simple_strtoul+0x1a0>
400082bc:	e7d23003 	ldrb	r3, [r2, r3]
400082c0:	e2033002 	and	r3, r3, #2
400082c4:	e3530000 	cmp	r3, #0
400082c8:	0a000006 	beq	400082e8 <simple_strtoul+0x158>
400082cc:	e51b3010 	ldr	r3, [fp, #-16]
400082d0:	e5d33000 	ldrb	r3, [r3]
400082d4:	e1a00003 	mov	r0, r3
400082d8:	ebffff98 	bl	40008140 <__toupper>
400082dc:	e1a03000 	mov	r3, r0
400082e0:	e2433037 	sub	r3, r3, #55	; 0x37
400082e4:	ea000002 	b	400082f4 <simple_strtoul+0x164>
400082e8:	e51b3010 	ldr	r3, [fp, #-16]
400082ec:	e5d33000 	ldrb	r3, [r3]
400082f0:	e2433037 	sub	r3, r3, #55	; 0x37
400082f4:	e50b300c 	str	r3, [fp, #-12]
400082f8:	e51b200c 	ldr	r2, [fp, #-12]
400082fc:	e51b3018 	ldr	r3, [fp, #-24]
40008300:	e1520003 	cmp	r2, r3
40008304:	3affffcc 	bcc	4000823c <simple_strtoul+0xac>
40008308:	e51b3014 	ldr	r3, [fp, #-20]
4000830c:	e3530000 	cmp	r3, #0
40008310:	0a000002 	beq	40008320 <simple_strtoul+0x190>
40008314:	e51b3014 	ldr	r3, [fp, #-20]
40008318:	e51b2010 	ldr	r2, [fp, #-16]
4000831c:	e5832000 	str	r2, [r3]
40008320:	e51b3008 	ldr	r3, [fp, #-8]
40008324:	e1a00003 	mov	r0, r3
40008328:	e24bd004 	sub	sp, fp, #4
4000832c:	e8bd8800 	pop	{fp, pc}
40008330:	4000a580 	andmi	sl, r0, r0, lsl #11

40008334 <simple_strtol>:
40008334:	e92d4800 	push	{fp, lr}
40008338:	e28db004 	add	fp, sp, #4
4000833c:	e24dd00c 	sub	sp, sp, #12
40008340:	e50b0008 	str	r0, [fp, #-8]
40008344:	e50b100c 	str	r1, [fp, #-12]
40008348:	e50b2010 	str	r2, [fp, #-16]
4000834c:	e51b3008 	ldr	r3, [fp, #-8]
40008350:	e5d33000 	ldrb	r3, [r3]
40008354:	e353002d 	cmp	r3, #45	; 0x2d
40008358:	1a000008 	bne	40008380 <simple_strtol+0x4c>
4000835c:	e51b3008 	ldr	r3, [fp, #-8]
40008360:	e2833001 	add	r3, r3, #1
40008364:	e1a00003 	mov	r0, r3
40008368:	e51b100c 	ldr	r1, [fp, #-12]
4000836c:	e51b2010 	ldr	r2, [fp, #-16]
40008370:	ebffff86 	bl	40008190 <simple_strtoul>
40008374:	e1a03000 	mov	r3, r0
40008378:	e2633000 	rsb	r3, r3, #0
4000837c:	ea000004 	b	40008394 <simple_strtol+0x60>
40008380:	e51b0008 	ldr	r0, [fp, #-8]
40008384:	e51b100c 	ldr	r1, [fp, #-12]
40008388:	e51b2010 	ldr	r2, [fp, #-16]
4000838c:	ebffff7f 	bl	40008190 <simple_strtoul>
40008390:	e1a03000 	mov	r3, r0
40008394:	e1a00003 	mov	r0, r3
40008398:	e24bd004 	sub	sp, fp, #4
4000839c:	e8bd8800 	pop	{fp, pc}

400083a0 <skip_atoi>:
400083a0:	e52db004 	push	{fp}		; (str fp, [sp, #-4]!)
400083a4:	e28db000 	add	fp, sp, #0
400083a8:	e24dd008 	sub	sp, sp, #8
400083ac:	e50b0008 	str	r0, [fp, #-8]
400083b0:	e3a03000 	mov	r3, #0
400083b4:	e50b3004 	str	r3, [fp, #-4]
400083b8:	ea00000e 	b	400083f8 <skip_atoi+0x58>
400083bc:	e51b2004 	ldr	r2, [fp, #-4]
400083c0:	e1a03002 	mov	r3, r2
400083c4:	e1a03103 	lsl	r3, r3, #2
400083c8:	e0833002 	add	r3, r3, r2
400083cc:	e1a03083 	lsl	r3, r3, #1
400083d0:	e1a01003 	mov	r1, r3
400083d4:	e51b3008 	ldr	r3, [fp, #-8]
400083d8:	e5933000 	ldr	r3, [r3]
400083dc:	e5d32000 	ldrb	r2, [r3]
400083e0:	e0812002 	add	r2, r1, r2
400083e4:	e2422030 	sub	r2, r2, #48	; 0x30
400083e8:	e50b2004 	str	r2, [fp, #-4]
400083ec:	e2832001 	add	r2, r3, #1
400083f0:	e51b3008 	ldr	r3, [fp, #-8]
400083f4:	e5832000 	str	r2, [r3]
400083f8:	e51b3008 	ldr	r3, [fp, #-8]
400083fc:	e5933000 	ldr	r3, [r3]
40008400:	e5d33000 	ldrb	r3, [r3]
40008404:	e353002f 	cmp	r3, #47	; 0x2f
40008408:	9a000004 	bls	40008420 <skip_atoi+0x80>
4000840c:	e51b3008 	ldr	r3, [fp, #-8]
40008410:	e5933000 	ldr	r3, [r3]
40008414:	e5d33000 	ldrb	r3, [r3]
40008418:	e3530039 	cmp	r3, #57	; 0x39
4000841c:	9affffe6 	bls	400083bc <skip_atoi+0x1c>
40008420:	e51b3004 	ldr	r3, [fp, #-4]
40008424:	e1a00003 	mov	r0, r3
40008428:	e28bd000 	add	sp, fp, #0
4000842c:	e8bd0800 	ldmfd	sp!, {fp}
40008430:	e12fff1e 	bx	lr

40008434 <number>:
40008434:	e92d4800 	push	{fp, lr}
40008438:	e28db004 	add	fp, sp, #4
4000843c:	e24dd068 	sub	sp, sp, #104	; 0x68
40008440:	e50b0060 	str	r0, [fp, #-96]	; 0x60
40008444:	e50b1064 	str	r1, [fp, #-100]	; 0x64
40008448:	e50b2068 	str	r2, [fp, #-104]	; 0x68
4000844c:	e50b306c 	str	r3, [fp, #-108]	; 0x6c
40008450:	e59f3468 	ldr	r3, [pc, #1128]	; 400088c0 <number+0x48c>
40008454:	e50b300c 	str	r3, [fp, #-12]
40008458:	e59b3008 	ldr	r3, [fp, #8]
4000845c:	e2033040 	and	r3, r3, #64	; 0x40
40008460:	e3530000 	cmp	r3, #0
40008464:	0a000001 	beq	40008470 <number+0x3c>
40008468:	e59f3454 	ldr	r3, [pc, #1108]	; 400088c4 <number+0x490>
4000846c:	e50b300c 	str	r3, [fp, #-12]
40008470:	e59b3008 	ldr	r3, [fp, #8]
40008474:	e2033010 	and	r3, r3, #16
40008478:	e3530000 	cmp	r3, #0
4000847c:	0a000002 	beq	4000848c <number+0x58>
40008480:	e59b3008 	ldr	r3, [fp, #8]
40008484:	e3c33001 	bic	r3, r3, #1
40008488:	e58b3008 	str	r3, [fp, #8]
4000848c:	e51b3068 	ldr	r3, [fp, #-104]	; 0x68
40008490:	e3530001 	cmp	r3, #1
40008494:	9a000002 	bls	400084a4 <number+0x70>
40008498:	e51b3068 	ldr	r3, [fp, #-104]	; 0x68
4000849c:	e3530024 	cmp	r3, #36	; 0x24
400084a0:	9a000001 	bls	400084ac <number+0x78>
400084a4:	e3a03000 	mov	r3, #0
400084a8:	ea000101 	b	400088b4 <number+0x480>
400084ac:	e59b3008 	ldr	r3, [fp, #8]
400084b0:	e2033001 	and	r3, r3, #1
400084b4:	e6ef3073 	uxtb	r3, r3
400084b8:	e3530000 	cmp	r3, #0
400084bc:	0a000001 	beq	400084c8 <number+0x94>
400084c0:	e3a03030 	mov	r3, #48	; 0x30
400084c4:	ea000000 	b	400084cc <number+0x98>
400084c8:	e3a03020 	mov	r3, #32
400084cc:	e54b3011 	strb	r3, [fp, #-17]
400084d0:	e3a03000 	mov	r3, #0
400084d4:	e54b3005 	strb	r3, [fp, #-5]
400084d8:	e59b3008 	ldr	r3, [fp, #8]
400084dc:	e2033002 	and	r3, r3, #2
400084e0:	e3530000 	cmp	r3, #0
400084e4:	0a00001e 	beq	40008564 <number+0x130>
400084e8:	e51b3064 	ldr	r3, [fp, #-100]	; 0x64
400084ec:	e3530000 	cmp	r3, #0
400084f0:	aa000008 	bge	40008518 <number+0xe4>
400084f4:	e3a0302d 	mov	r3, #45	; 0x2d
400084f8:	e54b3005 	strb	r3, [fp, #-5]
400084fc:	e51b3064 	ldr	r3, [fp, #-100]	; 0x64
40008500:	e2633000 	rsb	r3, r3, #0
40008504:	e50b3064 	str	r3, [fp, #-100]	; 0x64
40008508:	e51b306c 	ldr	r3, [fp, #-108]	; 0x6c
4000850c:	e2433001 	sub	r3, r3, #1
40008510:	e50b306c 	str	r3, [fp, #-108]	; 0x6c
40008514:	ea000012 	b	40008564 <number+0x130>
40008518:	e59b3008 	ldr	r3, [fp, #8]
4000851c:	e2033004 	and	r3, r3, #4
40008520:	e3530000 	cmp	r3, #0
40008524:	0a000005 	beq	40008540 <number+0x10c>
40008528:	e3a0302b 	mov	r3, #43	; 0x2b
4000852c:	e54b3005 	strb	r3, [fp, #-5]
40008530:	e51b306c 	ldr	r3, [fp, #-108]	; 0x6c
40008534:	e2433001 	sub	r3, r3, #1
40008538:	e50b306c 	str	r3, [fp, #-108]	; 0x6c
4000853c:	ea000008 	b	40008564 <number+0x130>
40008540:	e59b3008 	ldr	r3, [fp, #8]
40008544:	e2033008 	and	r3, r3, #8
40008548:	e3530000 	cmp	r3, #0
4000854c:	0a000004 	beq	40008564 <number+0x130>
40008550:	e3a03020 	mov	r3, #32
40008554:	e54b3005 	strb	r3, [fp, #-5]
40008558:	e51b306c 	ldr	r3, [fp, #-108]	; 0x6c
4000855c:	e2433001 	sub	r3, r3, #1
40008560:	e50b306c 	str	r3, [fp, #-108]	; 0x6c
40008564:	e59b3008 	ldr	r3, [fp, #8]
40008568:	e2033020 	and	r3, r3, #32
4000856c:	e3530000 	cmp	r3, #0
40008570:	0a00000c 	beq	400085a8 <number+0x174>
40008574:	e51b3068 	ldr	r3, [fp, #-104]	; 0x68
40008578:	e3530010 	cmp	r3, #16
4000857c:	1a000003 	bne	40008590 <number+0x15c>
40008580:	e51b306c 	ldr	r3, [fp, #-108]	; 0x6c
40008584:	e2433002 	sub	r3, r3, #2
40008588:	e50b306c 	str	r3, [fp, #-108]	; 0x6c
4000858c:	ea000005 	b	400085a8 <number+0x174>
40008590:	e51b3068 	ldr	r3, [fp, #-104]	; 0x68
40008594:	e3530008 	cmp	r3, #8
40008598:	1a000002 	bne	400085a8 <number+0x174>
4000859c:	e51b306c 	ldr	r3, [fp, #-108]	; 0x6c
400085a0:	e2433001 	sub	r3, r3, #1
400085a4:	e50b306c 	str	r3, [fp, #-108]	; 0x6c
400085a8:	e3a03000 	mov	r3, #0
400085ac:	e50b3010 	str	r3, [fp, #-16]
400085b0:	e51b3064 	ldr	r3, [fp, #-100]	; 0x64
400085b4:	e3530000 	cmp	r3, #0
400085b8:	1a000027 	bne	4000865c <number+0x228>
400085bc:	e3e03057 	mvn	r3, #87	; 0x57
400085c0:	e51b2010 	ldr	r2, [fp, #-16]
400085c4:	e24b0004 	sub	r0, fp, #4
400085c8:	e0802002 	add	r2, r0, r2
400085cc:	e0823003 	add	r3, r2, r3
400085d0:	e3a02030 	mov	r2, #48	; 0x30
400085d4:	e5c32000 	strb	r2, [r3]
400085d8:	e51b3010 	ldr	r3, [fp, #-16]
400085dc:	e2833001 	add	r3, r3, #1
400085e0:	e50b3010 	str	r3, [fp, #-16]
400085e4:	ea00001f 	b	40008668 <number+0x234>
400085e8:	e51b2010 	ldr	r2, [fp, #-16]
400085ec:	e59b3004 	ldr	r3, [fp, #4]
400085f0:	e1520003 	cmp	r2, r3
400085f4:	da000018 	ble	4000865c <number+0x228>
400085f8:	e51b3064 	ldr	r3, [fp, #-100]	; 0x64
400085fc:	e1a00003 	mov	r0, r3
40008600:	e51b1068 	ldr	r1, [fp, #-104]	; 0x68
40008604:	eb0003c3 	bl	40009518 <__umodsi3>
40008608:	e1a03000 	mov	r3, r0
4000860c:	e50b3018 	str	r3, [fp, #-24]
40008610:	e51b3064 	ldr	r3, [fp, #-100]	; 0x64
40008614:	e1a00003 	mov	r0, r3
40008618:	e51b1068 	ldr	r1, [fp, #-104]	; 0x68
4000861c:	eb0003e9 	bl	400095c8 <__udivsi3>
40008620:	e1a03000 	mov	r3, r0
40008624:	e50b3064 	str	r3, [fp, #-100]	; 0x64
40008628:	e51b3018 	ldr	r3, [fp, #-24]
4000862c:	e51b200c 	ldr	r2, [fp, #-12]
40008630:	e0823003 	add	r3, r2, r3
40008634:	e5d32000 	ldrb	r2, [r3]
40008638:	e3e03057 	mvn	r3, #87	; 0x57
4000863c:	e51b1010 	ldr	r1, [fp, #-16]
40008640:	e24b0004 	sub	r0, fp, #4
40008644:	e0801001 	add	r1, r0, r1
40008648:	e0813003 	add	r3, r1, r3
4000864c:	e5c32000 	strb	r2, [r3]
40008650:	e51b3010 	ldr	r3, [fp, #-16]
40008654:	e2833001 	add	r3, r3, #1
40008658:	e50b3010 	str	r3, [fp, #-16]
4000865c:	e51b3064 	ldr	r3, [fp, #-100]	; 0x64
40008660:	e3530000 	cmp	r3, #0
40008664:	1affffdf 	bne	400085e8 <number+0x1b4>
40008668:	e51b3010 	ldr	r3, [fp, #-16]
4000866c:	e58b3004 	str	r3, [fp, #4]
40008670:	e51b206c 	ldr	r2, [fp, #-108]	; 0x6c
40008674:	e59b3004 	ldr	r3, [fp, #4]
40008678:	e0633002 	rsb	r3, r3, r2
4000867c:	e50b306c 	str	r3, [fp, #-108]	; 0x6c
40008680:	e59b3008 	ldr	r3, [fp, #8]
40008684:	e2033011 	and	r3, r3, #17
40008688:	e3530000 	cmp	r3, #0
4000868c:	1a000010 	bne	400086d4 <number+0x2a0>
40008690:	ea000005 	b	400086ac <number+0x278>
40008694:	e51b3060 	ldr	r3, [fp, #-96]	; 0x60
40008698:	e3a02020 	mov	r2, #32
4000869c:	e5c32000 	strb	r2, [r3]
400086a0:	e51b3060 	ldr	r3, [fp, #-96]	; 0x60
400086a4:	e2833001 	add	r3, r3, #1
400086a8:	e50b3060 	str	r3, [fp, #-96]	; 0x60
400086ac:	e51b306c 	ldr	r3, [fp, #-108]	; 0x6c
400086b0:	e3530000 	cmp	r3, #0
400086b4:	d3a03000 	movle	r3, #0
400086b8:	c3a03001 	movgt	r3, #1
400086bc:	e6ef3073 	uxtb	r3, r3
400086c0:	e51b206c 	ldr	r2, [fp, #-108]	; 0x6c
400086c4:	e2422001 	sub	r2, r2, #1
400086c8:	e50b206c 	str	r2, [fp, #-108]	; 0x6c
400086cc:	e3530000 	cmp	r3, #0
400086d0:	1affffef 	bne	40008694 <number+0x260>
400086d4:	e55b3005 	ldrb	r3, [fp, #-5]
400086d8:	e3530000 	cmp	r3, #0
400086dc:	0a000005 	beq	400086f8 <number+0x2c4>
400086e0:	e51b3060 	ldr	r3, [fp, #-96]	; 0x60
400086e4:	e55b2005 	ldrb	r2, [fp, #-5]
400086e8:	e5c32000 	strb	r2, [r3]
400086ec:	e51b3060 	ldr	r3, [fp, #-96]	; 0x60
400086f0:	e2833001 	add	r3, r3, #1
400086f4:	e50b3060 	str	r3, [fp, #-96]	; 0x60
400086f8:	e59b3008 	ldr	r3, [fp, #8]
400086fc:	e2033020 	and	r3, r3, #32
40008700:	e3530000 	cmp	r3, #0
40008704:	0a000019 	beq	40008770 <number+0x33c>
40008708:	e51b3068 	ldr	r3, [fp, #-104]	; 0x68
4000870c:	e3530008 	cmp	r3, #8
40008710:	1a000006 	bne	40008730 <number+0x2fc>
40008714:	e51b3060 	ldr	r3, [fp, #-96]	; 0x60
40008718:	e3a02030 	mov	r2, #48	; 0x30
4000871c:	e5c32000 	strb	r2, [r3]
40008720:	e51b3060 	ldr	r3, [fp, #-96]	; 0x60
40008724:	e2833001 	add	r3, r3, #1
40008728:	e50b3060 	str	r3, [fp, #-96]	; 0x60
4000872c:	ea00000f 	b	40008770 <number+0x33c>
40008730:	e51b3068 	ldr	r3, [fp, #-104]	; 0x68
40008734:	e3530010 	cmp	r3, #16
40008738:	1a00000c 	bne	40008770 <number+0x33c>
4000873c:	e51b3060 	ldr	r3, [fp, #-96]	; 0x60
40008740:	e3a02030 	mov	r2, #48	; 0x30
40008744:	e5c32000 	strb	r2, [r3]
40008748:	e51b3060 	ldr	r3, [fp, #-96]	; 0x60
4000874c:	e2833001 	add	r3, r3, #1
40008750:	e50b3060 	str	r3, [fp, #-96]	; 0x60
40008754:	e51b300c 	ldr	r3, [fp, #-12]
40008758:	e5d32021 	ldrb	r2, [r3, #33]	; 0x21
4000875c:	e51b3060 	ldr	r3, [fp, #-96]	; 0x60
40008760:	e5c32000 	strb	r2, [r3]
40008764:	e51b3060 	ldr	r3, [fp, #-96]	; 0x60
40008768:	e2833001 	add	r3, r3, #1
4000876c:	e50b3060 	str	r3, [fp, #-96]	; 0x60
40008770:	e59b3008 	ldr	r3, [fp, #8]
40008774:	e2033010 	and	r3, r3, #16
40008778:	e3530000 	cmp	r3, #0
4000877c:	1a000018 	bne	400087e4 <number+0x3b0>
40008780:	ea000005 	b	4000879c <number+0x368>
40008784:	e51b3060 	ldr	r3, [fp, #-96]	; 0x60
40008788:	e55b2011 	ldrb	r2, [fp, #-17]
4000878c:	e5c32000 	strb	r2, [r3]
40008790:	e51b3060 	ldr	r3, [fp, #-96]	; 0x60
40008794:	e2833001 	add	r3, r3, #1
40008798:	e50b3060 	str	r3, [fp, #-96]	; 0x60
4000879c:	e51b306c 	ldr	r3, [fp, #-108]	; 0x6c
400087a0:	e3530000 	cmp	r3, #0
400087a4:	d3a03000 	movle	r3, #0
400087a8:	c3a03001 	movgt	r3, #1
400087ac:	e6ef3073 	uxtb	r3, r3
400087b0:	e51b206c 	ldr	r2, [fp, #-108]	; 0x6c
400087b4:	e2422001 	sub	r2, r2, #1
400087b8:	e50b206c 	str	r2, [fp, #-108]	; 0x6c
400087bc:	e3530000 	cmp	r3, #0
400087c0:	1affffef 	bne	40008784 <number+0x350>
400087c4:	ea000006 	b	400087e4 <number+0x3b0>
400087c8:	e51b3060 	ldr	r3, [fp, #-96]	; 0x60
400087cc:	e3a02030 	mov	r2, #48	; 0x30
400087d0:	e5c32000 	strb	r2, [r3]
400087d4:	e51b3060 	ldr	r3, [fp, #-96]	; 0x60
400087d8:	e2833001 	add	r3, r3, #1
400087dc:	e50b3060 	str	r3, [fp, #-96]	; 0x60
400087e0:	ea000000 	b	400087e8 <number+0x3b4>
400087e4:	e1a00000 	nop			; (mov r0, r0)
400087e8:	e59b2004 	ldr	r2, [fp, #4]
400087ec:	e51b3010 	ldr	r3, [fp, #-16]
400087f0:	e1520003 	cmp	r2, r3
400087f4:	d3a03000 	movle	r3, #0
400087f8:	c3a03001 	movgt	r3, #1
400087fc:	e6ef3073 	uxtb	r3, r3
40008800:	e59b2004 	ldr	r2, [fp, #4]
40008804:	e2422001 	sub	r2, r2, #1
40008808:	e58b2004 	str	r2, [fp, #4]
4000880c:	e3530000 	cmp	r3, #0
40008810:	1affffec 	bne	400087c8 <number+0x394>
40008814:	ea00000a 	b	40008844 <number+0x410>
40008818:	e3e03057 	mvn	r3, #87	; 0x57
4000881c:	e51b2010 	ldr	r2, [fp, #-16]
40008820:	e24b1004 	sub	r1, fp, #4
40008824:	e0812002 	add	r2, r1, r2
40008828:	e0823003 	add	r3, r2, r3
4000882c:	e5d32000 	ldrb	r2, [r3]
40008830:	e51b3060 	ldr	r3, [fp, #-96]	; 0x60
40008834:	e5c32000 	strb	r2, [r3]
40008838:	e51b3060 	ldr	r3, [fp, #-96]	; 0x60
4000883c:	e2833001 	add	r3, r3, #1
40008840:	e50b3060 	str	r3, [fp, #-96]	; 0x60
40008844:	e51b3010 	ldr	r3, [fp, #-16]
40008848:	e3530000 	cmp	r3, #0
4000884c:	d3a03000 	movle	r3, #0
40008850:	c3a03001 	movgt	r3, #1
40008854:	e6ef3073 	uxtb	r3, r3
40008858:	e51b2010 	ldr	r2, [fp, #-16]
4000885c:	e2422001 	sub	r2, r2, #1
40008860:	e50b2010 	str	r2, [fp, #-16]
40008864:	e3530000 	cmp	r3, #0
40008868:	1affffea 	bne	40008818 <number+0x3e4>
4000886c:	ea000005 	b	40008888 <number+0x454>
40008870:	e51b3060 	ldr	r3, [fp, #-96]	; 0x60
40008874:	e3a02020 	mov	r2, #32
40008878:	e5c32000 	strb	r2, [r3]
4000887c:	e51b3060 	ldr	r3, [fp, #-96]	; 0x60
40008880:	e2833001 	add	r3, r3, #1
40008884:	e50b3060 	str	r3, [fp, #-96]	; 0x60
40008888:	e51b306c 	ldr	r3, [fp, #-108]	; 0x6c
4000888c:	e3530000 	cmp	r3, #0
40008890:	d3a03000 	movle	r3, #0
40008894:	c3a03001 	movgt	r3, #1
40008898:	e6ef3073 	uxtb	r3, r3
4000889c:	e51b206c 	ldr	r2, [fp, #-108]	; 0x6c
400088a0:	e2422001 	sub	r2, r2, #1
400088a4:	e50b206c 	str	r2, [fp, #-108]	; 0x6c
400088a8:	e3530000 	cmp	r3, #0
400088ac:	1affffef 	bne	40008870 <number+0x43c>
400088b0:	e51b3060 	ldr	r3, [fp, #-96]	; 0x60
400088b4:	e1a00003 	mov	r0, r3
400088b8:	e24bd004 	sub	sp, fp, #4
400088bc:	e8bd8800 	pop	{fp, pc}
400088c0:	40009d1c 	andmi	r9, r0, ip, lsl sp
400088c4:	40009d44 	andmi	r9, r0, r4, asr #26

400088c8 <strnlen>:
400088c8:	e52db004 	push	{fp}		; (str fp, [sp, #-4]!)
400088cc:	e28db000 	add	fp, sp, #0
400088d0:	e24dd00c 	sub	sp, sp, #12
400088d4:	e50b0008 	str	r0, [fp, #-8]
400088d8:	e50b100c 	str	r1, [fp, #-12]
400088dc:	e51b3008 	ldr	r3, [fp, #-8]
400088e0:	e50b3004 	str	r3, [fp, #-4]
400088e4:	ea000002 	b	400088f4 <strnlen+0x2c>
400088e8:	e51b3004 	ldr	r3, [fp, #-4]
400088ec:	e2833001 	add	r3, r3, #1
400088f0:	e50b3004 	str	r3, [fp, #-4]
400088f4:	e51b300c 	ldr	r3, [fp, #-12]
400088f8:	e3530000 	cmp	r3, #0
400088fc:	03a03000 	moveq	r3, #0
40008900:	13a03001 	movne	r3, #1
40008904:	e6ef3073 	uxtb	r3, r3
40008908:	e51b200c 	ldr	r2, [fp, #-12]
4000890c:	e2422001 	sub	r2, r2, #1
40008910:	e50b200c 	str	r2, [fp, #-12]
40008914:	e3530000 	cmp	r3, #0
40008918:	0a000003 	beq	4000892c <strnlen+0x64>
4000891c:	e51b3004 	ldr	r3, [fp, #-4]
40008920:	e5d33000 	ldrb	r3, [r3]
40008924:	e3530000 	cmp	r3, #0
40008928:	1affffee 	bne	400088e8 <strnlen+0x20>
4000892c:	e51b2004 	ldr	r2, [fp, #-4]
40008930:	e51b3008 	ldr	r3, [fp, #-8]
40008934:	e0633002 	rsb	r3, r3, r2
40008938:	e1a00003 	mov	r0, r3
4000893c:	e28bd000 	add	sp, fp, #0
40008940:	e8bd0800 	ldmfd	sp!, {fp}
40008944:	e12fff1e 	bx	lr

40008948 <vsprintf>:
40008948:	e92d4800 	push	{fp, lr}
4000894c:	e28db004 	add	fp, sp, #4
40008950:	e24dd044 	sub	sp, sp, #68	; 0x44
40008954:	e50b0038 	str	r0, [fp, #-56]	; 0x38
40008958:	e50b103c 	str	r1, [fp, #-60]	; 0x3c
4000895c:	e50b2040 	str	r2, [fp, #-64]	; 0x40
40008960:	e51b3038 	ldr	r3, [fp, #-56]	; 0x38
40008964:	e50b3014 	str	r3, [fp, #-20]
40008968:	ea000232 	b	40009238 <vsprintf+0x8f0>
4000896c:	e51b303c 	ldr	r3, [fp, #-60]	; 0x3c
40008970:	e5d33000 	ldrb	r3, [r3]
40008974:	e3530025 	cmp	r3, #37	; 0x25
40008978:	0a000007 	beq	4000899c <vsprintf+0x54>
4000897c:	e51b303c 	ldr	r3, [fp, #-60]	; 0x3c
40008980:	e5d32000 	ldrb	r2, [r3]
40008984:	e51b3014 	ldr	r3, [fp, #-20]
40008988:	e5c32000 	strb	r2, [r3]
4000898c:	e51b3014 	ldr	r3, [fp, #-20]
40008990:	e2833001 	add	r3, r3, #1
40008994:	e50b3014 	str	r3, [fp, #-20]
40008998:	ea000223 	b	4000922c <vsprintf+0x8e4>
4000899c:	e3a03000 	mov	r3, #0
400089a0:	e50b301c 	str	r3, [fp, #-28]
400089a4:	e51b303c 	ldr	r3, [fp, #-60]	; 0x3c
400089a8:	e2833001 	add	r3, r3, #1
400089ac:	e50b303c 	str	r3, [fp, #-60]	; 0x3c
400089b0:	e51b303c 	ldr	r3, [fp, #-60]	; 0x3c
400089b4:	e5d33000 	ldrb	r3, [r3]
400089b8:	e2433020 	sub	r3, r3, #32
400089bc:	e3530010 	cmp	r3, #16
400089c0:	979ff103 	ldrls	pc, [pc, r3, lsl #2]
400089c4:	ea000024 	b	40008a5c <vsprintf+0x114>
400089c8:	40008a2c 	andmi	r8, r0, ip, lsr #20
400089cc:	40008a5c 	andmi	r8, r0, ip, asr sl
400089d0:	40008a5c 	andmi	r8, r0, ip, asr sl
400089d4:	40008a3c 	andmi	r8, r0, ip, lsr sl
400089d8:	40008a5c 	andmi	r8, r0, ip, asr sl
400089dc:	40008a5c 	andmi	r8, r0, ip, asr sl
400089e0:	40008a5c 	andmi	r8, r0, ip, asr sl
400089e4:	40008a5c 	andmi	r8, r0, ip, asr sl
400089e8:	40008a5c 	andmi	r8, r0, ip, asr sl
400089ec:	40008a5c 	andmi	r8, r0, ip, asr sl
400089f0:	40008a5c 	andmi	r8, r0, ip, asr sl
400089f4:	40008a1c 	andmi	r8, r0, ip, lsl sl
400089f8:	40008a5c 	andmi	r8, r0, ip, asr sl
400089fc:	40008a0c 	andmi	r8, r0, ip, lsl #20
40008a00:	40008a5c 	andmi	r8, r0, ip, asr sl
40008a04:	40008a5c 	andmi	r8, r0, ip, asr sl
40008a08:	40008a4c 	andmi	r8, r0, ip, asr #20
40008a0c:	e51b301c 	ldr	r3, [fp, #-28]
40008a10:	e3833010 	orr	r3, r3, #16
40008a14:	e50b301c 	str	r3, [fp, #-28]
40008a18:	eaffffe1 	b	400089a4 <vsprintf+0x5c>
40008a1c:	e51b301c 	ldr	r3, [fp, #-28]
40008a20:	e3833004 	orr	r3, r3, #4
40008a24:	e50b301c 	str	r3, [fp, #-28]
40008a28:	eaffffdd 	b	400089a4 <vsprintf+0x5c>
40008a2c:	e51b301c 	ldr	r3, [fp, #-28]
40008a30:	e3833008 	orr	r3, r3, #8
40008a34:	e50b301c 	str	r3, [fp, #-28]
40008a38:	eaffffd9 	b	400089a4 <vsprintf+0x5c>
40008a3c:	e51b301c 	ldr	r3, [fp, #-28]
40008a40:	e3833020 	orr	r3, r3, #32
40008a44:	e50b301c 	str	r3, [fp, #-28]
40008a48:	eaffffd5 	b	400089a4 <vsprintf+0x5c>
40008a4c:	e51b301c 	ldr	r3, [fp, #-28]
40008a50:	e3833001 	orr	r3, r3, #1
40008a54:	e50b301c 	str	r3, [fp, #-28]
40008a58:	eaffffd1 	b	400089a4 <vsprintf+0x5c>
40008a5c:	e3e03000 	mvn	r3, #0
40008a60:	e50b3020 	str	r3, [fp, #-32]
40008a64:	e51b303c 	ldr	r3, [fp, #-60]	; 0x3c
40008a68:	e5d33000 	ldrb	r3, [r3]
40008a6c:	e353002f 	cmp	r3, #47	; 0x2f
40008a70:	9a000008 	bls	40008a98 <vsprintf+0x150>
40008a74:	e51b303c 	ldr	r3, [fp, #-60]	; 0x3c
40008a78:	e5d33000 	ldrb	r3, [r3]
40008a7c:	e3530039 	cmp	r3, #57	; 0x39
40008a80:	8a000004 	bhi	40008a98 <vsprintf+0x150>
40008a84:	e24b303c 	sub	r3, fp, #60	; 0x3c
40008a88:	e1a00003 	mov	r0, r3
40008a8c:	ebfffe43 	bl	400083a0 <skip_atoi>
40008a90:	e50b0020 	str	r0, [fp, #-32]
40008a94:	ea000014 	b	40008aec <vsprintf+0x1a4>
40008a98:	e51b303c 	ldr	r3, [fp, #-60]	; 0x3c
40008a9c:	e5d33000 	ldrb	r3, [r3]
40008aa0:	e353002a 	cmp	r3, #42	; 0x2a
40008aa4:	1a000010 	bne	40008aec <vsprintf+0x1a4>
40008aa8:	e51b303c 	ldr	r3, [fp, #-60]	; 0x3c
40008aac:	e2833001 	add	r3, r3, #1
40008ab0:	e50b303c 	str	r3, [fp, #-60]	; 0x3c
40008ab4:	e51b3040 	ldr	r3, [fp, #-64]	; 0x40
40008ab8:	e2832004 	add	r2, r3, #4
40008abc:	e50b2040 	str	r2, [fp, #-64]	; 0x40
40008ac0:	e5933000 	ldr	r3, [r3]
40008ac4:	e50b3020 	str	r3, [fp, #-32]
40008ac8:	e51b3020 	ldr	r3, [fp, #-32]
40008acc:	e3530000 	cmp	r3, #0
40008ad0:	aa000005 	bge	40008aec <vsprintf+0x1a4>
40008ad4:	e51b3020 	ldr	r3, [fp, #-32]
40008ad8:	e2633000 	rsb	r3, r3, #0
40008adc:	e50b3020 	str	r3, [fp, #-32]
40008ae0:	e51b301c 	ldr	r3, [fp, #-28]
40008ae4:	e3833010 	orr	r3, r3, #16
40008ae8:	e50b301c 	str	r3, [fp, #-28]
40008aec:	e3e03000 	mvn	r3, #0
40008af0:	e50b3024 	str	r3, [fp, #-36]	; 0x24
40008af4:	e51b303c 	ldr	r3, [fp, #-60]	; 0x3c
40008af8:	e5d33000 	ldrb	r3, [r3]
40008afc:	e353002e 	cmp	r3, #46	; 0x2e
40008b00:	1a000020 	bne	40008b88 <vsprintf+0x240>
40008b04:	e51b303c 	ldr	r3, [fp, #-60]	; 0x3c
40008b08:	e2833001 	add	r3, r3, #1
40008b0c:	e50b303c 	str	r3, [fp, #-60]	; 0x3c
40008b10:	e51b303c 	ldr	r3, [fp, #-60]	; 0x3c
40008b14:	e5d33000 	ldrb	r3, [r3]
40008b18:	e353002f 	cmp	r3, #47	; 0x2f
40008b1c:	9a000008 	bls	40008b44 <vsprintf+0x1fc>
40008b20:	e51b303c 	ldr	r3, [fp, #-60]	; 0x3c
40008b24:	e5d33000 	ldrb	r3, [r3]
40008b28:	e3530039 	cmp	r3, #57	; 0x39
40008b2c:	8a000004 	bhi	40008b44 <vsprintf+0x1fc>
40008b30:	e24b303c 	sub	r3, fp, #60	; 0x3c
40008b34:	e1a00003 	mov	r0, r3
40008b38:	ebfffe18 	bl	400083a0 <skip_atoi>
40008b3c:	e50b0024 	str	r0, [fp, #-36]	; 0x24
40008b40:	ea00000b 	b	40008b74 <vsprintf+0x22c>
40008b44:	e51b303c 	ldr	r3, [fp, #-60]	; 0x3c
40008b48:	e5d33000 	ldrb	r3, [r3]
40008b4c:	e353002a 	cmp	r3, #42	; 0x2a
40008b50:	1a000007 	bne	40008b74 <vsprintf+0x22c>
40008b54:	e51b303c 	ldr	r3, [fp, #-60]	; 0x3c
40008b58:	e2833001 	add	r3, r3, #1
40008b5c:	e50b303c 	str	r3, [fp, #-60]	; 0x3c
40008b60:	e51b3040 	ldr	r3, [fp, #-64]	; 0x40
40008b64:	e2832004 	add	r2, r3, #4
40008b68:	e50b2040 	str	r2, [fp, #-64]	; 0x40
40008b6c:	e5933000 	ldr	r3, [r3]
40008b70:	e50b3024 	str	r3, [fp, #-36]	; 0x24
40008b74:	e51b3024 	ldr	r3, [fp, #-36]	; 0x24
40008b78:	e3530000 	cmp	r3, #0
40008b7c:	aa000001 	bge	40008b88 <vsprintf+0x240>
40008b80:	e3a03000 	mov	r3, #0
40008b84:	e50b3024 	str	r3, [fp, #-36]	; 0x24
40008b88:	e3e03000 	mvn	r3, #0
40008b8c:	e50b3028 	str	r3, [fp, #-40]	; 0x28
40008b90:	e51b303c 	ldr	r3, [fp, #-60]	; 0x3c
40008b94:	e5d33000 	ldrb	r3, [r3]
40008b98:	e3530068 	cmp	r3, #104	; 0x68
40008b9c:	0a000017 	beq	40008c00 <vsprintf+0x2b8>
40008ba0:	e51b303c 	ldr	r3, [fp, #-60]	; 0x3c
40008ba4:	e5d33000 	ldrb	r3, [r3]
40008ba8:	e353006c 	cmp	r3, #108	; 0x6c
40008bac:	0a000013 	beq	40008c00 <vsprintf+0x2b8>
40008bb0:	e51b303c 	ldr	r3, [fp, #-60]	; 0x3c
40008bb4:	e5d33000 	ldrb	r3, [r3]
40008bb8:	e353004c 	cmp	r3, #76	; 0x4c
40008bbc:	0a00000f 	beq	40008c00 <vsprintf+0x2b8>
40008bc0:	e51b303c 	ldr	r3, [fp, #-60]	; 0x3c
40008bc4:	e5d33000 	ldrb	r3, [r3]
40008bc8:	e353005a 	cmp	r3, #90	; 0x5a
40008bcc:	0a00000b 	beq	40008c00 <vsprintf+0x2b8>
40008bd0:	e51b303c 	ldr	r3, [fp, #-60]	; 0x3c
40008bd4:	e5d33000 	ldrb	r3, [r3]
40008bd8:	e353007a 	cmp	r3, #122	; 0x7a
40008bdc:	0a000007 	beq	40008c00 <vsprintf+0x2b8>
40008be0:	e51b303c 	ldr	r3, [fp, #-60]	; 0x3c
40008be4:	e5d33000 	ldrb	r3, [r3]
40008be8:	e3530074 	cmp	r3, #116	; 0x74
40008bec:	0a000003 	beq	40008c00 <vsprintf+0x2b8>
40008bf0:	e51b303c 	ldr	r3, [fp, #-60]	; 0x3c
40008bf4:	e5d33000 	ldrb	r3, [r3]
40008bf8:	e3530071 	cmp	r3, #113	; 0x71
40008bfc:	1a000012 	bne	40008c4c <vsprintf+0x304>
40008c00:	e51b303c 	ldr	r3, [fp, #-60]	; 0x3c
40008c04:	e5d33000 	ldrb	r3, [r3]
40008c08:	e50b3028 	str	r3, [fp, #-40]	; 0x28
40008c0c:	e51b3028 	ldr	r3, [fp, #-40]	; 0x28
40008c10:	e353006c 	cmp	r3, #108	; 0x6c
40008c14:	1a000009 	bne	40008c40 <vsprintf+0x2f8>
40008c18:	e51b303c 	ldr	r3, [fp, #-60]	; 0x3c
40008c1c:	e2833001 	add	r3, r3, #1
40008c20:	e5d33000 	ldrb	r3, [r3]
40008c24:	e353006c 	cmp	r3, #108	; 0x6c
40008c28:	1a000004 	bne	40008c40 <vsprintf+0x2f8>
40008c2c:	e3a03071 	mov	r3, #113	; 0x71
40008c30:	e50b3028 	str	r3, [fp, #-40]	; 0x28
40008c34:	e51b303c 	ldr	r3, [fp, #-60]	; 0x3c
40008c38:	e2833001 	add	r3, r3, #1
40008c3c:	e50b303c 	str	r3, [fp, #-60]	; 0x3c
40008c40:	e51b303c 	ldr	r3, [fp, #-60]	; 0x3c
40008c44:	e2833001 	add	r3, r3, #1
40008c48:	e50b303c 	str	r3, [fp, #-60]	; 0x3c
40008c4c:	e3a0300a 	mov	r3, #10
40008c50:	e50b3010 	str	r3, [fp, #-16]
40008c54:	e51b303c 	ldr	r3, [fp, #-60]	; 0x3c
40008c58:	e5d33000 	ldrb	r3, [r3]
40008c5c:	e2433025 	sub	r3, r3, #37	; 0x25
40008c60:	e3530053 	cmp	r3, #83	; 0x53
40008c64:	979ff103 	ldrls	pc, [pc, r3, lsl #2]
40008c68:	ea00010d 	b	400090a4 <vsprintf+0x75c>
40008c6c:	40009054 	andmi	r9, r0, r4, asr r0
40008c70:	400090a4 	andmi	r9, r0, r4, lsr #1
40008c74:	400090a4 	andmi	r9, r0, r4, lsr #1
40008c78:	400090a4 	andmi	r9, r0, r4, lsr #1
40008c7c:	400090a4 	andmi	r9, r0, r4, lsr #1
40008c80:	400090a4 	andmi	r9, r0, r4, lsr #1
40008c84:	400090a4 	andmi	r9, r0, r4, lsr #1
40008c88:	400090a4 	andmi	r9, r0, r4, lsr #1
40008c8c:	400090a4 	andmi	r9, r0, r4, lsr #1
40008c90:	400090a4 	andmi	r9, r0, r4, lsr #1
40008c94:	400090a4 	andmi	r9, r0, r4, lsr #1
40008c98:	400090a4 	andmi	r9, r0, r4, lsr #1
40008c9c:	400090a4 	andmi	r9, r0, r4, lsr #1
40008ca0:	400090a4 	andmi	r9, r0, r4, lsr #1
40008ca4:	400090a4 	andmi	r9, r0, r4, lsr #1
40008ca8:	400090a4 	andmi	r9, r0, r4, lsr #1
40008cac:	400090a4 	andmi	r9, r0, r4, lsr #1
40008cb0:	400090a4 	andmi	r9, r0, r4, lsr #1
40008cb4:	400090a4 	andmi	r9, r0, r4, lsr #1
40008cb8:	400090a4 	andmi	r9, r0, r4, lsr #1
40008cbc:	400090a4 	andmi	r9, r0, r4, lsr #1
40008cc0:	400090a4 	andmi	r9, r0, r4, lsr #1
40008cc4:	400090a4 	andmi	r9, r0, r4, lsr #1
40008cc8:	400090a4 	andmi	r9, r0, r4, lsr #1
40008ccc:	400090a4 	andmi	r9, r0, r4, lsr #1
40008cd0:	400090a4 	andmi	r9, r0, r4, lsr #1
40008cd4:	400090a4 	andmi	r9, r0, r4, lsr #1
40008cd8:	400090a4 	andmi	r9, r0, r4, lsr #1
40008cdc:	400090a4 	andmi	r9, r0, r4, lsr #1
40008ce0:	400090a4 	andmi	r9, r0, r4, lsr #1
40008ce4:	400090a4 	andmi	r9, r0, r4, lsr #1
40008ce8:	400090a4 	andmi	r9, r0, r4, lsr #1
40008cec:	400090a4 	andmi	r9, r0, r4, lsr #1
40008cf0:	400090a4 	andmi	r9, r0, r4, lsr #1
40008cf4:	400090a4 	andmi	r9, r0, r4, lsr #1
40008cf8:	400090a4 	andmi	r9, r0, r4, lsr #1
40008cfc:	400090a4 	andmi	r9, r0, r4, lsr #1
40008d00:	400090a4 	andmi	r9, r0, r4, lsr #1
40008d04:	400090a4 	andmi	r9, r0, r4, lsr #1
40008d08:	400090a4 	andmi	r9, r0, r4, lsr #1
40008d0c:	400090a4 	andmi	r9, r0, r4, lsr #1
40008d10:	400090a4 	andmi	r9, r0, r4, lsr #1
40008d14:	400090a4 	andmi	r9, r0, r4, lsr #1
40008d18:	400090a4 	andmi	r9, r0, r4, lsr #1
40008d1c:	400090a4 	andmi	r9, r0, r4, lsr #1
40008d20:	400090a4 	andmi	r9, r0, r4, lsr #1
40008d24:	400090a4 	andmi	r9, r0, r4, lsr #1
40008d28:	400090a4 	andmi	r9, r0, r4, lsr #1
40008d2c:	400090a4 	andmi	r9, r0, r4, lsr #1
40008d30:	400090a4 	andmi	r9, r0, r4, lsr #1
40008d34:	400090a4 	andmi	r9, r0, r4, lsr #1
40008d38:	4000907c 	andmi	r9, r0, ip, ror r0
40008d3c:	400090a4 	andmi	r9, r0, r4, lsr #1
40008d40:	400090a4 	andmi	r9, r0, r4, lsr #1
40008d44:	400090a4 	andmi	r9, r0, r4, lsr #1
40008d48:	400090a4 	andmi	r9, r0, r4, lsr #1
40008d4c:	400090a4 	andmi	r9, r0, r4, lsr #1
40008d50:	400090a4 	andmi	r9, r0, r4, lsr #1
40008d54:	400090a4 	andmi	r9, r0, r4, lsr #1
40008d58:	400090a4 	andmi	r9, r0, r4, lsr #1
40008d5c:	400090a4 	andmi	r9, r0, r4, lsr #1
40008d60:	400090a4 	andmi	r9, r0, r4, lsr #1
40008d64:	40008dbc 			; <UNDEFINED> instruction: 0x40008dbc
40008d68:	40009094 	mulmi	r0, r4, r0
40008d6c:	400090a4 	andmi	r9, r0, r4, lsr #1
40008d70:	400090a4 	andmi	r9, r0, r4, lsr #1
40008d74:	400090a4 	andmi	r9, r0, r4, lsr #1
40008d78:	400090a4 	andmi	r9, r0, r4, lsr #1
40008d7c:	40009094 	mulmi	r0, r4, r0
40008d80:	400090a4 	andmi	r9, r0, r4, lsr #1
40008d84:	400090a4 	andmi	r9, r0, r4, lsr #1
40008d88:	400090a4 	andmi	r9, r0, r4, lsr #1
40008d8c:	400090a4 	andmi	r9, r0, r4, lsr #1
40008d90:	40008ff0 	strdmi	r8, [r0], -r0
40008d94:	40009070 	andmi	r9, r0, r0, ror r0
40008d98:	40008f94 	mulmi	r0, r4, pc	; <UNPREDICTABLE>
40008d9c:	400090a4 	andmi	r9, r0, r4, lsr #1
40008da0:	400090a4 	andmi	r9, r0, r4, lsr #1
40008da4:	40008e60 	andmi	r8, r0, r0, ror #28
40008da8:	400090a4 	andmi	r9, r0, r4, lsr #1
40008dac:	400090fc 	strdmi	r9, [r0], -ip
40008db0:	400090a4 	andmi	r9, r0, r4, lsr #1
40008db4:	400090a4 	andmi	r9, r0, r4, lsr #1
40008db8:	40009088 	andmi	r9, r0, r8, lsl #1
40008dbc:	e51b301c 	ldr	r3, [fp, #-28]
40008dc0:	e2033010 	and	r3, r3, #16
40008dc4:	e3530000 	cmp	r3, #0
40008dc8:	1a00000c 	bne	40008e00 <vsprintf+0x4b8>
40008dcc:	ea000005 	b	40008de8 <vsprintf+0x4a0>
40008dd0:	e51b3014 	ldr	r3, [fp, #-20]
40008dd4:	e3a02020 	mov	r2, #32
40008dd8:	e5c32000 	strb	r2, [r3]
40008ddc:	e51b3014 	ldr	r3, [fp, #-20]
40008de0:	e2833001 	add	r3, r3, #1
40008de4:	e50b3014 	str	r3, [fp, #-20]
40008de8:	e51b3020 	ldr	r3, [fp, #-32]
40008dec:	e2433001 	sub	r3, r3, #1
40008df0:	e50b3020 	str	r3, [fp, #-32]
40008df4:	e51b3020 	ldr	r3, [fp, #-32]
40008df8:	e3530000 	cmp	r3, #0
40008dfc:	cafffff3 	bgt	40008dd0 <vsprintf+0x488>
40008e00:	e51b3040 	ldr	r3, [fp, #-64]	; 0x40
40008e04:	e2832004 	add	r2, r3, #4
40008e08:	e50b2040 	str	r2, [fp, #-64]	; 0x40
40008e0c:	e5933000 	ldr	r3, [r3]
40008e10:	e6ef2073 	uxtb	r2, r3
40008e14:	e51b3014 	ldr	r3, [fp, #-20]
40008e18:	e5c32000 	strb	r2, [r3]
40008e1c:	e51b3014 	ldr	r3, [fp, #-20]
40008e20:	e2833001 	add	r3, r3, #1
40008e24:	e50b3014 	str	r3, [fp, #-20]
40008e28:	ea000005 	b	40008e44 <vsprintf+0x4fc>
40008e2c:	e51b3014 	ldr	r3, [fp, #-20]
40008e30:	e3a02020 	mov	r2, #32
40008e34:	e5c32000 	strb	r2, [r3]
40008e38:	e51b3014 	ldr	r3, [fp, #-20]
40008e3c:	e2833001 	add	r3, r3, #1
40008e40:	e50b3014 	str	r3, [fp, #-20]
40008e44:	e51b3020 	ldr	r3, [fp, #-32]
40008e48:	e2433001 	sub	r3, r3, #1
40008e4c:	e50b3020 	str	r3, [fp, #-32]
40008e50:	e51b3020 	ldr	r3, [fp, #-32]
40008e54:	e3530000 	cmp	r3, #0
40008e58:	cafffff3 	bgt	40008e2c <vsprintf+0x4e4>
40008e5c:	ea0000f2 	b	4000922c <vsprintf+0x8e4>
40008e60:	e51b3040 	ldr	r3, [fp, #-64]	; 0x40
40008e64:	e2832004 	add	r2, r3, #4
40008e68:	e50b2040 	str	r2, [fp, #-64]	; 0x40
40008e6c:	e5933000 	ldr	r3, [r3]
40008e70:	e50b3018 	str	r3, [fp, #-24]
40008e74:	e51b3018 	ldr	r3, [fp, #-24]
40008e78:	e3530000 	cmp	r3, #0
40008e7c:	1a000001 	bne	40008e88 <vsprintf+0x540>
40008e80:	e59f33e4 	ldr	r3, [pc, #996]	; 4000926c <vsprintf+0x924>
40008e84:	e50b3018 	str	r3, [fp, #-24]
40008e88:	e51b3024 	ldr	r3, [fp, #-36]	; 0x24
40008e8c:	e51b0018 	ldr	r0, [fp, #-24]
40008e90:	e1a01003 	mov	r1, r3
40008e94:	ebfffe8b 	bl	400088c8 <strnlen>
40008e98:	e1a03000 	mov	r3, r0
40008e9c:	e50b302c 	str	r3, [fp, #-44]	; 0x2c
40008ea0:	e51b301c 	ldr	r3, [fp, #-28]
40008ea4:	e2033010 	and	r3, r3, #16
40008ea8:	e3530000 	cmp	r3, #0
40008eac:	1a000011 	bne	40008ef8 <vsprintf+0x5b0>
40008eb0:	ea000005 	b	40008ecc <vsprintf+0x584>
40008eb4:	e51b3014 	ldr	r3, [fp, #-20]
40008eb8:	e3a02020 	mov	r2, #32
40008ebc:	e5c32000 	strb	r2, [r3]
40008ec0:	e51b3014 	ldr	r3, [fp, #-20]
40008ec4:	e2833001 	add	r3, r3, #1
40008ec8:	e50b3014 	str	r3, [fp, #-20]
40008ecc:	e51b2020 	ldr	r2, [fp, #-32]
40008ed0:	e51b302c 	ldr	r3, [fp, #-44]	; 0x2c
40008ed4:	e1520003 	cmp	r2, r3
40008ed8:	d3a03000 	movle	r3, #0
40008edc:	c3a03001 	movgt	r3, #1
40008ee0:	e6ef3073 	uxtb	r3, r3
40008ee4:	e51b2020 	ldr	r2, [fp, #-32]
40008ee8:	e2422001 	sub	r2, r2, #1
40008eec:	e50b2020 	str	r2, [fp, #-32]
40008ef0:	e3530000 	cmp	r3, #0
40008ef4:	1affffee 	bne	40008eb4 <vsprintf+0x56c>
40008ef8:	e3a03000 	mov	r3, #0
40008efc:	e50b300c 	str	r3, [fp, #-12]
40008f00:	ea00000c 	b	40008f38 <vsprintf+0x5f0>
40008f04:	e51b3018 	ldr	r3, [fp, #-24]
40008f08:	e5d32000 	ldrb	r2, [r3]
40008f0c:	e51b3014 	ldr	r3, [fp, #-20]
40008f10:	e5c32000 	strb	r2, [r3]
40008f14:	e51b3014 	ldr	r3, [fp, #-20]
40008f18:	e2833001 	add	r3, r3, #1
40008f1c:	e50b3014 	str	r3, [fp, #-20]
40008f20:	e51b3018 	ldr	r3, [fp, #-24]
40008f24:	e2833001 	add	r3, r3, #1
40008f28:	e50b3018 	str	r3, [fp, #-24]
40008f2c:	e51b300c 	ldr	r3, [fp, #-12]
40008f30:	e2833001 	add	r3, r3, #1
40008f34:	e50b300c 	str	r3, [fp, #-12]
40008f38:	e51b200c 	ldr	r2, [fp, #-12]
40008f3c:	e51b302c 	ldr	r3, [fp, #-44]	; 0x2c
40008f40:	e1520003 	cmp	r2, r3
40008f44:	baffffee 	blt	40008f04 <vsprintf+0x5bc>
40008f48:	ea000005 	b	40008f64 <vsprintf+0x61c>
40008f4c:	e51b3014 	ldr	r3, [fp, #-20]
40008f50:	e3a02020 	mov	r2, #32
40008f54:	e5c32000 	strb	r2, [r3]
40008f58:	e51b3014 	ldr	r3, [fp, #-20]
40008f5c:	e2833001 	add	r3, r3, #1
40008f60:	e50b3014 	str	r3, [fp, #-20]
40008f64:	e51b2020 	ldr	r2, [fp, #-32]
40008f68:	e51b302c 	ldr	r3, [fp, #-44]	; 0x2c
40008f6c:	e1520003 	cmp	r2, r3
40008f70:	d3a03000 	movle	r3, #0
40008f74:	c3a03001 	movgt	r3, #1
40008f78:	e6ef3073 	uxtb	r3, r3
40008f7c:	e51b2020 	ldr	r2, [fp, #-32]
40008f80:	e2422001 	sub	r2, r2, #1
40008f84:	e50b2020 	str	r2, [fp, #-32]
40008f88:	e3530000 	cmp	r3, #0
40008f8c:	1affffee 	bne	40008f4c <vsprintf+0x604>
40008f90:	ea0000a5 	b	4000922c <vsprintf+0x8e4>
40008f94:	e51b3020 	ldr	r3, [fp, #-32]
40008f98:	e3730001 	cmn	r3, #1
40008f9c:	1a000004 	bne	40008fb4 <vsprintf+0x66c>
40008fa0:	e3a03008 	mov	r3, #8
40008fa4:	e50b3020 	str	r3, [fp, #-32]
40008fa8:	e51b301c 	ldr	r3, [fp, #-28]
40008fac:	e3833001 	orr	r3, r3, #1
40008fb0:	e50b301c 	str	r3, [fp, #-28]
40008fb4:	e51b3040 	ldr	r3, [fp, #-64]	; 0x40
40008fb8:	e2832004 	add	r2, r3, #4
40008fbc:	e50b2040 	str	r2, [fp, #-64]	; 0x40
40008fc0:	e5933000 	ldr	r3, [r3]
40008fc4:	e51b2024 	ldr	r2, [fp, #-36]	; 0x24
40008fc8:	e58d2000 	str	r2, [sp]
40008fcc:	e51b201c 	ldr	r2, [fp, #-28]
40008fd0:	e58d2004 	str	r2, [sp, #4]
40008fd4:	e51b0014 	ldr	r0, [fp, #-20]
40008fd8:	e1a01003 	mov	r1, r3
40008fdc:	e3a02010 	mov	r2, #16
40008fe0:	e51b3020 	ldr	r3, [fp, #-32]
40008fe4:	ebfffd12 	bl	40008434 <number>
40008fe8:	e50b0014 	str	r0, [fp, #-20]
40008fec:	ea00008e 	b	4000922c <vsprintf+0x8e4>
40008ff0:	e51b3028 	ldr	r3, [fp, #-40]	; 0x28
40008ff4:	e353006c 	cmp	r3, #108	; 0x6c
40008ff8:	1a00000a 	bne	40009028 <vsprintf+0x6e0>
40008ffc:	e51b3040 	ldr	r3, [fp, #-64]	; 0x40
40009000:	e2832004 	add	r2, r3, #4
40009004:	e50b2040 	str	r2, [fp, #-64]	; 0x40
40009008:	e5933000 	ldr	r3, [r3]
4000900c:	e50b3030 	str	r3, [fp, #-48]	; 0x30
40009010:	e51b2014 	ldr	r2, [fp, #-20]
40009014:	e51b3038 	ldr	r3, [fp, #-56]	; 0x38
40009018:	e0632002 	rsb	r2, r3, r2
4000901c:	e51b3030 	ldr	r3, [fp, #-48]	; 0x30
40009020:	e5832000 	str	r2, [r3]
40009024:	ea000080 	b	4000922c <vsprintf+0x8e4>
40009028:	e51b3040 	ldr	r3, [fp, #-64]	; 0x40
4000902c:	e2832004 	add	r2, r3, #4
40009030:	e50b2040 	str	r2, [fp, #-64]	; 0x40
40009034:	e5933000 	ldr	r3, [r3]
40009038:	e50b3034 	str	r3, [fp, #-52]	; 0x34
4000903c:	e51b2014 	ldr	r2, [fp, #-20]
40009040:	e51b3038 	ldr	r3, [fp, #-56]	; 0x38
40009044:	e0632002 	rsb	r2, r3, r2
40009048:	e51b3034 	ldr	r3, [fp, #-52]	; 0x34
4000904c:	e5832000 	str	r2, [r3]
40009050:	ea000075 	b	4000922c <vsprintf+0x8e4>
40009054:	e51b3014 	ldr	r3, [fp, #-20]
40009058:	e3a02025 	mov	r2, #37	; 0x25
4000905c:	e5c32000 	strb	r2, [r3]
40009060:	e51b3014 	ldr	r3, [fp, #-20]
40009064:	e2833001 	add	r3, r3, #1
40009068:	e50b3014 	str	r3, [fp, #-20]
4000906c:	ea00006e 	b	4000922c <vsprintf+0x8e4>
40009070:	e3a03008 	mov	r3, #8
40009074:	e50b3010 	str	r3, [fp, #-16]
40009078:	ea000020 	b	40009100 <vsprintf+0x7b8>
4000907c:	e51b301c 	ldr	r3, [fp, #-28]
40009080:	e3833040 	orr	r3, r3, #64	; 0x40
40009084:	e50b301c 	str	r3, [fp, #-28]
40009088:	e3a03010 	mov	r3, #16
4000908c:	e50b3010 	str	r3, [fp, #-16]
40009090:	ea00001a 	b	40009100 <vsprintf+0x7b8>
40009094:	e51b301c 	ldr	r3, [fp, #-28]
40009098:	e3833002 	orr	r3, r3, #2
4000909c:	e50b301c 	str	r3, [fp, #-28]
400090a0:	ea000015 	b	400090fc <vsprintf+0x7b4>
400090a4:	e51b3014 	ldr	r3, [fp, #-20]
400090a8:	e3a02025 	mov	r2, #37	; 0x25
400090ac:	e5c32000 	strb	r2, [r3]
400090b0:	e51b3014 	ldr	r3, [fp, #-20]
400090b4:	e2833001 	add	r3, r3, #1
400090b8:	e50b3014 	str	r3, [fp, #-20]
400090bc:	e51b303c 	ldr	r3, [fp, #-60]	; 0x3c
400090c0:	e5d33000 	ldrb	r3, [r3]
400090c4:	e3530000 	cmp	r3, #0
400090c8:	0a000007 	beq	400090ec <vsprintf+0x7a4>
400090cc:	e51b303c 	ldr	r3, [fp, #-60]	; 0x3c
400090d0:	e5d32000 	ldrb	r2, [r3]
400090d4:	e51b3014 	ldr	r3, [fp, #-20]
400090d8:	e5c32000 	strb	r2, [r3]
400090dc:	e51b3014 	ldr	r3, [fp, #-20]
400090e0:	e2833001 	add	r3, r3, #1
400090e4:	e50b3014 	str	r3, [fp, #-20]
400090e8:	ea00004f 	b	4000922c <vsprintf+0x8e4>
400090ec:	e51b303c 	ldr	r3, [fp, #-60]	; 0x3c
400090f0:	e2433001 	sub	r3, r3, #1
400090f4:	e50b303c 	str	r3, [fp, #-60]	; 0x3c
400090f8:	ea00004b 	b	4000922c <vsprintf+0x8e4>
400090fc:	e1a00000 	nop			; (mov r0, r0)
40009100:	e51b3028 	ldr	r3, [fp, #-40]	; 0x28
40009104:	e353006c 	cmp	r3, #108	; 0x6c
40009108:	1a000005 	bne	40009124 <vsprintf+0x7dc>
4000910c:	e51b3040 	ldr	r3, [fp, #-64]	; 0x40
40009110:	e2832004 	add	r2, r3, #4
40009114:	e50b2040 	str	r2, [fp, #-64]	; 0x40
40009118:	e5933000 	ldr	r3, [r3]
4000911c:	e50b3008 	str	r3, [fp, #-8]
40009120:	ea000035 	b	400091fc <vsprintf+0x8b4>
40009124:	e51b3028 	ldr	r3, [fp, #-40]	; 0x28
40009128:	e353005a 	cmp	r3, #90	; 0x5a
4000912c:	0a000002 	beq	4000913c <vsprintf+0x7f4>
40009130:	e51b3028 	ldr	r3, [fp, #-40]	; 0x28
40009134:	e353007a 	cmp	r3, #122	; 0x7a
40009138:	1a000005 	bne	40009154 <vsprintf+0x80c>
4000913c:	e51b3040 	ldr	r3, [fp, #-64]	; 0x40
40009140:	e2832004 	add	r2, r3, #4
40009144:	e50b2040 	str	r2, [fp, #-64]	; 0x40
40009148:	e5933000 	ldr	r3, [r3]
4000914c:	e50b3008 	str	r3, [fp, #-8]
40009150:	ea000029 	b	400091fc <vsprintf+0x8b4>
40009154:	e51b3028 	ldr	r3, [fp, #-40]	; 0x28
40009158:	e3530074 	cmp	r3, #116	; 0x74
4000915c:	1a000005 	bne	40009178 <vsprintf+0x830>
40009160:	e51b3040 	ldr	r3, [fp, #-64]	; 0x40
40009164:	e2832004 	add	r2, r3, #4
40009168:	e50b2040 	str	r2, [fp, #-64]	; 0x40
4000916c:	e5933000 	ldr	r3, [r3]
40009170:	e50b3008 	str	r3, [fp, #-8]
40009174:	ea000020 	b	400091fc <vsprintf+0x8b4>
40009178:	e51b3028 	ldr	r3, [fp, #-40]	; 0x28
4000917c:	e3530068 	cmp	r3, #104	; 0x68
40009180:	1a00000e 	bne	400091c0 <vsprintf+0x878>
40009184:	e51b3040 	ldr	r3, [fp, #-64]	; 0x40
40009188:	e2832004 	add	r2, r3, #4
4000918c:	e50b2040 	str	r2, [fp, #-64]	; 0x40
40009190:	e5933000 	ldr	r3, [r3]
40009194:	e6ff3073 	uxth	r3, r3
40009198:	e50b3008 	str	r3, [fp, #-8]
4000919c:	e51b301c 	ldr	r3, [fp, #-28]
400091a0:	e2033002 	and	r3, r3, #2
400091a4:	e3530000 	cmp	r3, #0
400091a8:	0a000013 	beq	400091fc <vsprintf+0x8b4>
400091ac:	e51b3008 	ldr	r3, [fp, #-8]
400091b0:	e6ff3073 	uxth	r3, r3
400091b4:	e6bf3073 	sxth	r3, r3
400091b8:	e50b3008 	str	r3, [fp, #-8]
400091bc:	ea00000e 	b	400091fc <vsprintf+0x8b4>
400091c0:	e51b301c 	ldr	r3, [fp, #-28]
400091c4:	e2033002 	and	r3, r3, #2
400091c8:	e3530000 	cmp	r3, #0
400091cc:	0a000005 	beq	400091e8 <vsprintf+0x8a0>
400091d0:	e51b3040 	ldr	r3, [fp, #-64]	; 0x40
400091d4:	e2832004 	add	r2, r3, #4
400091d8:	e50b2040 	str	r2, [fp, #-64]	; 0x40
400091dc:	e5933000 	ldr	r3, [r3]
400091e0:	e50b3008 	str	r3, [fp, #-8]
400091e4:	ea000004 	b	400091fc <vsprintf+0x8b4>
400091e8:	e51b3040 	ldr	r3, [fp, #-64]	; 0x40
400091ec:	e2832004 	add	r2, r3, #4
400091f0:	e50b2040 	str	r2, [fp, #-64]	; 0x40
400091f4:	e5933000 	ldr	r3, [r3]
400091f8:	e50b3008 	str	r3, [fp, #-8]
400091fc:	e51b2008 	ldr	r2, [fp, #-8]
40009200:	e51b3010 	ldr	r3, [fp, #-16]
40009204:	e51b1024 	ldr	r1, [fp, #-36]	; 0x24
40009208:	e58d1000 	str	r1, [sp]
4000920c:	e51b101c 	ldr	r1, [fp, #-28]
40009210:	e58d1004 	str	r1, [sp, #4]
40009214:	e51b0014 	ldr	r0, [fp, #-20]
40009218:	e1a01002 	mov	r1, r2
4000921c:	e1a02003 	mov	r2, r3
40009220:	e51b3020 	ldr	r3, [fp, #-32]
40009224:	ebfffc82 	bl	40008434 <number>
40009228:	e50b0014 	str	r0, [fp, #-20]
4000922c:	e51b303c 	ldr	r3, [fp, #-60]	; 0x3c
40009230:	e2833001 	add	r3, r3, #1
40009234:	e50b303c 	str	r3, [fp, #-60]	; 0x3c
40009238:	e51b303c 	ldr	r3, [fp, #-60]	; 0x3c
4000923c:	e5d33000 	ldrb	r3, [r3]
40009240:	e3530000 	cmp	r3, #0
40009244:	1afffdc8 	bne	4000896c <vsprintf+0x24>
40009248:	e51b3014 	ldr	r3, [fp, #-20]
4000924c:	e3a02000 	mov	r2, #0
40009250:	e5c32000 	strb	r2, [r3]
40009254:	e51b2014 	ldr	r2, [fp, #-20]
40009258:	e51b3038 	ldr	r3, [fp, #-56]	; 0x38
4000925c:	e0633002 	rsb	r3, r3, r2
40009260:	e1a00003 	mov	r0, r3
40009264:	e24bd004 	sub	sp, fp, #4
40009268:	e8bd8800 	pop	{fp, pc}
4000926c:	40009d6c 	andmi	r9, r0, ip, ror #26

40009270 <sprintf>:
40009270:	e92d000e 	push	{r1, r2, r3}
40009274:	e92d4800 	push	{fp, lr}
40009278:	e28db004 	add	fp, sp, #4
4000927c:	e24dd00c 	sub	sp, sp, #12
40009280:	e50b0010 	str	r0, [fp, #-16]
40009284:	e28b2008 	add	r2, fp, #8
40009288:	e24b300c 	sub	r3, fp, #12
4000928c:	e5832000 	str	r2, [r3]
40009290:	e51b300c 	ldr	r3, [fp, #-12]
40009294:	e51b0010 	ldr	r0, [fp, #-16]
40009298:	e59b1004 	ldr	r1, [fp, #4]
4000929c:	e1a02003 	mov	r2, r3
400092a0:	ebfffda8 	bl	40008948 <vsprintf>
400092a4:	e50b0008 	str	r0, [fp, #-8]
400092a8:	e51b3008 	ldr	r3, [fp, #-8]
400092ac:	e1a00003 	mov	r0, r3
400092b0:	e24bd004 	sub	sp, fp, #4
400092b4:	e8bd4800 	pop	{fp, lr}
400092b8:	e28dd00c 	add	sp, sp, #12
400092bc:	e12fff1e 	bx	lr

400092c0 <printf>:
400092c0:	e92d000f 	push	{r0, r1, r2, r3}
400092c4:	e92d4800 	push	{fp, lr}
400092c8:	e28db004 	add	fp, sp, #4
400092cc:	e24dd06c 	sub	sp, sp, #108	; 0x6c
400092d0:	e28b2008 	add	r2, fp, #8
400092d4:	e24b300c 	sub	r3, fp, #12
400092d8:	e5832000 	str	r2, [r3]
400092dc:	e51b300c 	ldr	r3, [fp, #-12]
400092e0:	e24b2070 	sub	r2, fp, #112	; 0x70
400092e4:	e1a00002 	mov	r0, r2
400092e8:	e59b1004 	ldr	r1, [fp, #4]
400092ec:	e1a02003 	mov	r2, r3
400092f0:	ebfffd94 	bl	40008948 <vsprintf>
400092f4:	e1a03000 	mov	r3, r0
400092f8:	e50b3008 	str	r3, [fp, #-8]
400092fc:	e24b3070 	sub	r3, fp, #112	; 0x70
40009300:	e1a00003 	mov	r0, r3
40009304:	eb000071 	bl	400094d0 <puts>
40009308:	e24bd004 	sub	sp, fp, #4
4000930c:	e8bd4800 	pop	{fp, lr}
40009310:	e28dd010 	add	sp, sp, #16
40009314:	e12fff1e 	bx	lr

40009318 <UART_Init>:
40009318:	e52db004 	push	{fp}		; (str fp, [sp, #-4]!)
4000931c:	e28db000 	add	fp, sp, #0
40009320:	e59f3068 	ldr	r3, [pc, #104]	; 40009390 <UART_Init+0x78>
40009324:	e59f2064 	ldr	r2, [pc, #100]	; 40009390 <UART_Init+0x78>
40009328:	e5922000 	ldr	r2, [r2]
4000932c:	e3c220ff 	bic	r2, r2, #255	; 0xff
40009330:	e3822022 	orr	r2, r2, #34	; 0x22
40009334:	e5832000 	str	r2, [r3]
40009338:	e59f3050 	ldr	r3, [pc, #80]	; 40009390 <UART_Init+0x78>
4000933c:	e59f204c 	ldr	r2, [pc, #76]	; 40009390 <UART_Init+0x78>
40009340:	e5922008 	ldr	r2, [r2, #8]
40009344:	e3c2200f 	bic	r2, r2, #15
40009348:	e5832008 	str	r2, [r3, #8]
4000934c:	e59f3040 	ldr	r3, [pc, #64]	; 40009394 <UART_Init+0x7c>
40009350:	e59f203c 	ldr	r2, [pc, #60]	; 40009394 <UART_Init+0x7c>
40009354:	e5922000 	ldr	r2, [r2]
40009358:	e3822003 	orr	r2, r2, #3
4000935c:	e5832000 	str	r2, [r3]
40009360:	e59f302c 	ldr	r3, [pc, #44]	; 40009394 <UART_Init+0x7c>
40009364:	e3a02035 	mov	r2, #53	; 0x35
40009368:	e5832028 	str	r2, [r3, #40]	; 0x28
4000936c:	e59f3020 	ldr	r3, [pc, #32]	; 40009394 <UART_Init+0x7c>
40009370:	e3a02005 	mov	r2, #5
40009374:	e583202c 	str	r2, [r3, #44]	; 0x2c
40009378:	e59f3014 	ldr	r3, [pc, #20]	; 40009394 <UART_Init+0x7c>
4000937c:	e3a02005 	mov	r2, #5
40009380:	e5832004 	str	r2, [r3, #4]
40009384:	e28bd000 	add	sp, fp, #0
40009388:	e8bd0800 	ldmfd	sp!, {fp}
4000938c:	e12fff1e 	bx	lr
40009390:	11400020 	cmpne	r0, r0, lsr #32
40009394:	13820000 	orrne	r0, r2, #0

40009398 <getchar>:
40009398:	e52db004 	push	{fp}		; (str fp, [sp, #-4]!)
4000939c:	e28db000 	add	fp, sp, #0
400093a0:	e24dd004 	sub	sp, sp, #4
400093a4:	e1a00000 	nop			; (mov r0, r0)
400093a8:	e59f3040 	ldr	r3, [pc, #64]	; 400093f0 <getchar+0x58>
400093ac:	e5933010 	ldr	r3, [r3, #16]
400093b0:	e2033001 	and	r3, r3, #1
400093b4:	e3530000 	cmp	r3, #0
400093b8:	0afffffa 	beq	400093a8 <getchar+0x10>
400093bc:	e59f302c 	ldr	r3, [pc, #44]	; 400093f0 <getchar+0x58>
400093c0:	e5933024 	ldr	r3, [r3, #36]	; 0x24
400093c4:	e54b3001 	strb	r3, [fp, #-1]
400093c8:	e55b3001 	ldrb	r3, [fp, #-1]
400093cc:	e353000d 	cmp	r3, #13
400093d0:	1a000001 	bne	400093dc <getchar+0x44>
400093d4:	e3a0300a 	mov	r3, #10
400093d8:	e54b3001 	strb	r3, [fp, #-1]
400093dc:	e55b3001 	ldrb	r3, [fp, #-1]
400093e0:	e1a00003 	mov	r0, r3
400093e4:	e28bd000 	add	sp, fp, #0
400093e8:	e8bd0800 	ldmfd	sp!, {fp}
400093ec:	e12fff1e 	bx	lr
400093f0:	13820000 	orrne	r0, r2, #0

400093f4 <gets>:
400093f4:	e92d4800 	push	{fp, lr}
400093f8:	e28db004 	add	fp, sp, #4
400093fc:	e24dd004 	sub	sp, sp, #4
40009400:	e50b0008 	str	r0, [fp, #-8]
40009404:	ea000006 	b	40009424 <gets+0x30>
40009408:	e51b3008 	ldr	r3, [fp, #-8]
4000940c:	e5d33000 	ldrb	r3, [r3]
40009410:	e1a00003 	mov	r0, r3
40009414:	eb000017 	bl	40009478 <putchar>
40009418:	e51b3008 	ldr	r3, [fp, #-8]
4000941c:	e2833001 	add	r3, r3, #1
40009420:	e50b3008 	str	r3, [fp, #-8]
40009424:	ebffffdb 	bl	40009398 <getchar>
40009428:	e1a03000 	mov	r3, r0
4000942c:	e1a02003 	mov	r2, r3
40009430:	e51b3008 	ldr	r3, [fp, #-8]
40009434:	e5c32000 	strb	r2, [r3]
40009438:	e51b3008 	ldr	r3, [fp, #-8]
4000943c:	e5d33000 	ldrb	r3, [r3]
40009440:	e353000a 	cmp	r3, #10
40009444:	1affffef 	bne	40009408 <gets+0x14>
40009448:	e51b3008 	ldr	r3, [fp, #-8]
4000944c:	e5d33000 	ldrb	r3, [r3]
40009450:	e1a00003 	mov	r0, r3
40009454:	eb000007 	bl	40009478 <putchar>
40009458:	e51b3008 	ldr	r3, [fp, #-8]
4000945c:	e2833001 	add	r3, r3, #1
40009460:	e50b3008 	str	r3, [fp, #-8]
40009464:	e51b3008 	ldr	r3, [fp, #-8]
40009468:	e3a02000 	mov	r2, #0
4000946c:	e5c32000 	strb	r2, [r3]
40009470:	e24bd004 	sub	sp, fp, #4
40009474:	e8bd8800 	pop	{fp, pc}

40009478 <putchar>:
40009478:	e92d4800 	push	{fp, lr}
4000947c:	e28db004 	add	fp, sp, #4
40009480:	e24dd004 	sub	sp, sp, #4
40009484:	e1a03000 	mov	r3, r0
40009488:	e54b3008 	strb	r3, [fp, #-8]
4000948c:	e1a00000 	nop			; (mov r0, r0)
40009490:	e59f3034 	ldr	r3, [pc, #52]	; 400094cc <putchar+0x54>
40009494:	e5933010 	ldr	r3, [r3, #16]
40009498:	e2033002 	and	r3, r3, #2
4000949c:	e3530000 	cmp	r3, #0
400094a0:	0afffffa 	beq	40009490 <putchar+0x18>
400094a4:	e59f3020 	ldr	r3, [pc, #32]	; 400094cc <putchar+0x54>
400094a8:	e55b2008 	ldrb	r2, [fp, #-8]
400094ac:	e5832020 	str	r2, [r3, #32]
400094b0:	e55b3008 	ldrb	r3, [fp, #-8]
400094b4:	e353000a 	cmp	r3, #10
400094b8:	1a000001 	bne	400094c4 <putchar+0x4c>
400094bc:	e3a0000d 	mov	r0, #13
400094c0:	ebffffec 	bl	40009478 <putchar>
400094c4:	e24bd004 	sub	sp, fp, #4
400094c8:	e8bd8800 	pop	{fp, pc}
400094cc:	13820000 	orrne	r0, r2, #0

400094d0 <puts>:
400094d0:	e92d4800 	push	{fp, lr}
400094d4:	e28db004 	add	fp, sp, #4
400094d8:	e24dd004 	sub	sp, sp, #4
400094dc:	e50b0008 	str	r0, [fp, #-8]
400094e0:	ea000006 	b	40009500 <puts+0x30>
400094e4:	e51b3008 	ldr	r3, [fp, #-8]
400094e8:	e5d33000 	ldrb	r3, [r3]
400094ec:	e51b2008 	ldr	r2, [fp, #-8]
400094f0:	e2822001 	add	r2, r2, #1
400094f4:	e50b2008 	str	r2, [fp, #-8]
400094f8:	e1a00003 	mov	r0, r3
400094fc:	ebffffdd 	bl	40009478 <putchar>
40009500:	e51b3008 	ldr	r3, [fp, #-8]
40009504:	e5d33000 	ldrb	r3, [r3]
40009508:	e3530000 	cmp	r3, #0
4000950c:	1afffff4 	bne	400094e4 <puts+0x14>
40009510:	e24bd004 	sub	sp, fp, #4
40009514:	e8bd8800 	pop	{fp, pc}

40009518 <__umodsi3>:
40009518:	e3510000 	cmp	r1, #0
4000951c:	0a000026 	beq	400095bc <Ldiv0>
40009520:	e3a03001 	mov	r3, #1
40009524:	e1500001 	cmp	r0, r1
40009528:	31a0f00e 	movcc	pc, lr

4000952c <Loop1>:
4000952c:	e3510201 	cmp	r1, #268435456	; 0x10000000
40009530:	31510000 	cmpcc	r1, r0
40009534:	31a01201 	lslcc	r1, r1, #4
40009538:	31a03203 	lslcc	r3, r3, #4
4000953c:	3afffffa 	bcc	4000952c <Loop1>

40009540 <Lbignum>:
40009540:	e3510102 	cmp	r1, #-2147483648	; 0x80000000
40009544:	31510000 	cmpcc	r1, r0
40009548:	31a01081 	lslcc	r1, r1, #1
4000954c:	31a03083 	lslcc	r3, r3, #1
40009550:	3afffffa 	bcc	40009540 <Lbignum>

40009554 <Loop3>:
40009554:	e3a02000 	mov	r2, #0
40009558:	e1500001 	cmp	r0, r1
4000955c:	20400001 	subcs	r0, r0, r1
40009560:	e15000a1 	cmp	r0, r1, lsr #1
40009564:	204000a1 	subcs	r0, r0, r1, lsr #1
40009568:	218220e3 	orrcs	r2, r2, r3, ror #1
4000956c:	e1500121 	cmp	r0, r1, lsr #2
40009570:	20400121 	subcs	r0, r0, r1, lsr #2
40009574:	21822163 	orrcs	r2, r2, r3, ror #2
40009578:	e15001a1 	cmp	r0, r1, lsr #3
4000957c:	204001a1 	subcs	r0, r0, r1, lsr #3
40009580:	218221e3 	orrcs	r2, r2, r3, ror #3
40009584:	e1a0c003 	mov	ip, r3
40009588:	e3500000 	cmp	r0, #0
4000958c:	11b03223 	lsrsne	r3, r3, #4
40009590:	11a01221 	lsrne	r1, r1, #4
40009594:	1affffee 	bne	40009554 <Loop3>
40009598:	e212220e 	ands	r2, r2, #-536870912	; 0xe0000000
4000959c:	01a0f00e 	moveq	pc, lr
400095a0:	e11201ec 	tst	r2, ip, ror #3
400095a4:	108001a1 	addne	r0, r0, r1, lsr #3
400095a8:	e112016c 	tst	r2, ip, ror #2
400095ac:	10800121 	addne	r0, r0, r1, lsr #2
400095b0:	e11200ec 	tst	r2, ip, ror #1
400095b4:	108000a1 	addne	r0, r0, r1, lsr #1
400095b8:	e1a0f00e 	mov	pc, lr

400095bc <Ldiv0>:
400095bc:	e52de004 	push	{lr}		; (str lr, [sp, #-4]!)
400095c0:	e3a00000 	mov	r0, #0
400095c4:	e8bd8000 	ldmfd	sp!, {pc}

400095c8 <__udivsi3>:
400095c8:	e3510000 	cmp	r1, #0
400095cc:	0a00001f 	beq	40009650 <Ldiv0>
400095d0:	e3a03001 	mov	r3, #1
400095d4:	e3a02000 	mov	r2, #0
400095d8:	e1500001 	cmp	r0, r1
400095dc:	3a000019 	bcc	40009648 <Lgot_result>

400095e0 <Loop1>:
400095e0:	e3510201 	cmp	r1, #268435456	; 0x10000000
400095e4:	31510000 	cmpcc	r1, r0
400095e8:	31a01201 	lslcc	r1, r1, #4
400095ec:	31a03203 	lslcc	r3, r3, #4
400095f0:	3afffffa 	bcc	400095e0 <Loop1>

400095f4 <Lbignum>:
400095f4:	e3510102 	cmp	r1, #-2147483648	; 0x80000000
400095f8:	31510000 	cmpcc	r1, r0
400095fc:	31a01081 	lslcc	r1, r1, #1
40009600:	31a03083 	lslcc	r3, r3, #1
40009604:	3afffffa 	bcc	400095f4 <Lbignum>

40009608 <Loop3>:
40009608:	e1500001 	cmp	r0, r1
4000960c:	20400001 	subcs	r0, r0, r1
40009610:	21822003 	orrcs	r2, r2, r3
40009614:	e15000a1 	cmp	r0, r1, lsr #1
40009618:	204000a1 	subcs	r0, r0, r1, lsr #1
4000961c:	218220a3 	orrcs	r2, r2, r3, lsr #1
40009620:	e1500121 	cmp	r0, r1, lsr #2
40009624:	20400121 	subcs	r0, r0, r1, lsr #2
40009628:	21822123 	orrcs	r2, r2, r3, lsr #2
4000962c:	e15001a1 	cmp	r0, r1, lsr #3
40009630:	204001a1 	subcs	r0, r0, r1, lsr #3
40009634:	218221a3 	orrcs	r2, r2, r3, lsr #3
40009638:	e3500000 	cmp	r0, #0
4000963c:	11b03223 	lsrsne	r3, r3, #4
40009640:	11a01221 	lsrne	r1, r1, #4
40009644:	1affffef 	bne	40009608 <Loop3>

40009648 <Lgot_result>:
40009648:	e1a00002 	mov	r0, r2
4000964c:	e1a0f00e 	mov	pc, lr

40009650 <Ldiv0>:
40009650:	e52de004 	push	{lr}		; (str lr, [sp, #-4]!)
40009654:	e3a00000 	mov	r0, #0
40009658:	e8bd8000 	ldmfd	sp!, {pc}

4000965c <do_irq>:
4000965c:	e92d4800 	push	{fp, lr}
40009660:	e28db004 	add	fp, sp, #4
40009664:	e24dd004 	sub	sp, sp, #4
40009668:	e59f305c 	ldr	r3, [pc, #92]	; 400096cc <do_irq+0x70>
4000966c:	e593300c 	ldr	r3, [r3, #12]
40009670:	e1a03b03 	lsl	r3, r3, #22
40009674:	e1a03b23 	lsr	r3, r3, #22
40009678:	e50b3008 	str	r3, [fp, #-8]
4000967c:	e51b3008 	ldr	r3, [fp, #-8]
40009680:	e3530039 	cmp	r3, #57	; 0x39
40009684:	0a000002 	beq	40009694 <do_irq+0x38>
40009688:	e353003a 	cmp	r3, #58	; 0x3a
4000968c:	0a000002 	beq	4000969c <do_irq+0x40>
40009690:	ea000003 	b	400096a4 <do_irq+0x48>
40009694:	eb0000cb 	bl	400099c8 <key2_irq>
40009698:	ea000001 	b	400096a4 <do_irq+0x48>
4000969c:	eb0000dc 	bl	40009a14 <key3_irq>
400096a0:	e1a00000 	nop			; (mov r0, r0)
400096a4:	e59f2020 	ldr	r2, [pc, #32]	; 400096cc <do_irq+0x70>
400096a8:	e59f301c 	ldr	r3, [pc, #28]	; 400096cc <do_irq+0x70>
400096ac:	e5933010 	ldr	r3, [r3, #16]
400096b0:	e3c33fff 	bic	r3, r3, #1020	; 0x3fc
400096b4:	e3c33003 	bic	r3, r3, #3
400096b8:	e51b1008 	ldr	r1, [fp, #-8]
400096bc:	e1833001 	orr	r3, r3, r1
400096c0:	e5823010 	str	r3, [r2, #16]
400096c4:	e24bd004 	sub	sp, fp, #4
400096c8:	e8bd8800 	pop	{fp, pc}
400096cc:	10480000 	subne	r0, r8, r0

400096d0 <mydelay_ms>:
400096d0:	e52db004 	push	{fp}		; (str fp, [sp, #-4]!)
400096d4:	e28db000 	add	fp, sp, #0
400096d8:	e24dd00c 	sub	sp, sp, #12
400096dc:	e50b000c 	str	r0, [fp, #-12]
400096e0:	ea000012 	b	40009730 <mydelay_ms+0x60>
400096e4:	e3a03000 	mov	r3, #0
400096e8:	e50b3004 	str	r3, [fp, #-4]
400096ec:	ea00000c 	b	40009724 <mydelay_ms+0x54>
400096f0:	e3a03000 	mov	r3, #0
400096f4:	e50b3008 	str	r3, [fp, #-8]
400096f8:	ea000002 	b	40009708 <mydelay_ms+0x38>
400096fc:	e51b3008 	ldr	r3, [fp, #-8]
40009700:	e2833001 	add	r3, r3, #1
40009704:	e50b3008 	str	r3, [fp, #-8]
40009708:	e51b2008 	ldr	r2, [fp, #-8]
4000970c:	e59f3050 	ldr	r3, [pc, #80]	; 40009764 <mydelay_ms+0x94>
40009710:	e1520003 	cmp	r2, r3
40009714:	dafffff8 	ble	400096fc <mydelay_ms+0x2c>
40009718:	e51b3004 	ldr	r3, [fp, #-4]
4000971c:	e2833001 	add	r3, r3, #1
40009720:	e50b3004 	str	r3, [fp, #-4]
40009724:	e51b3004 	ldr	r3, [fp, #-4]
40009728:	e3530004 	cmp	r3, #4
4000972c:	daffffef 	ble	400096f0 <mydelay_ms+0x20>
40009730:	e51b300c 	ldr	r3, [fp, #-12]
40009734:	e3530000 	cmp	r3, #0
40009738:	03a03000 	moveq	r3, #0
4000973c:	13a03001 	movne	r3, #1
40009740:	e6ef3073 	uxtb	r3, r3
40009744:	e51b200c 	ldr	r2, [fp, #-12]
40009748:	e2422001 	sub	r2, r2, #1
4000974c:	e50b200c 	str	r2, [fp, #-12]
40009750:	e3530000 	cmp	r3, #0
40009754:	1affffe2 	bne	400096e4 <mydelay_ms+0x14>
40009758:	e28bd000 	add	sp, fp, #0
4000975c:	e8bd0800 	ldmfd	sp!, {fp}
40009760:	e12fff1e 	bx	lr
40009764:	00000201 	andeq	r0, r0, r1, lsl #4

40009768 <main>:
40009768:	e92d4800 	push	{fp, lr}
4000976c:	e28db004 	add	fp, sp, #4
40009770:	e24dd004 	sub	sp, sp, #4
40009774:	eb0000b9 	bl	40009a60 <LED_Init>
40009778:	eb000137 	bl	40009c5c <ADC_Init>
4000977c:	ebfffee5 	bl	40009318 <UART_Init>
40009780:	eb00014b 	bl	40009cb4 <GetADCConverterData>
40009784:	e50b0008 	str	r0, [fp, #-8]
40009788:	e51b2008 	ldr	r2, [fp, #-8]
4000978c:	e1a03002 	mov	r3, r2
40009790:	e1a03203 	lsl	r3, r3, #4
40009794:	e0623003 	rsb	r3, r2, r3
40009798:	e1a02203 	lsl	r2, r3, #4
4000979c:	e0632002 	rsb	r2, r3, r2
400097a0:	e1a03182 	lsl	r3, r2, #3
400097a4:	e1a02003 	mov	r2, r3
400097a8:	e1a03002 	mov	r3, r2
400097ac:	e1a03643 	asr	r3, r3, #12
400097b0:	e50b3008 	str	r3, [fp, #-8]
400097b4:	e59f0028 	ldr	r0, [pc, #40]	; 400097e4 <main+0x7c>
400097b8:	e51b1008 	ldr	r1, [fp, #-8]
400097bc:	ebfffebf 	bl	400092c0 <printf>
400097c0:	e3a00003 	mov	r0, #3
400097c4:	eb0000ce 	bl	40009b04 <LED_ON>
400097c8:	e3a00f7d 	mov	r0, #500	; 0x1f4
400097cc:	ebffffbf 	bl	400096d0 <mydelay_ms>
400097d0:	e3a00003 	mov	r0, #3
400097d4:	eb0000f5 	bl	40009bb0 <LED_OFF>
400097d8:	e3a00f7d 	mov	r0, #500	; 0x1f4
400097dc:	ebffffbb 	bl	400096d0 <mydelay_ms>
400097e0:	eaffffe6 	b	40009780 <main+0x18>
400097e4:	40009d74 	andmi	r9, r0, r4, ror sp

400097e8 <PWM_Init>:
400097e8:	e52db004 	push	{fp}		; (str fp, [sp, #-4]!)
400097ec:	e28db000 	add	fp, sp, #0
400097f0:	e59f3094 	ldr	r3, [pc, #148]	; 4000988c <PWM_Init+0xa4>
400097f4:	e59f2090 	ldr	r2, [pc, #144]	; 4000988c <PWM_Init+0xa4>
400097f8:	e5922000 	ldr	r2, [r2]
400097fc:	e3c2200f 	bic	r2, r2, #15
40009800:	e3822002 	orr	r2, r2, #2
40009804:	e5832000 	str	r2, [r3]
40009808:	e59f3080 	ldr	r3, [pc, #128]	; 40009890 <PWM_Init+0xa8>
4000980c:	e59f207c 	ldr	r2, [pc, #124]	; 40009890 <PWM_Init+0xa8>
40009810:	e5922000 	ldr	r2, [r2]
40009814:	e3c220ff 	bic	r2, r2, #255	; 0xff
40009818:	e38220f9 	orr	r2, r2, #249	; 0xf9
4000981c:	e5832000 	str	r2, [r3]
40009820:	e59f3068 	ldr	r3, [pc, #104]	; 40009890 <PWM_Init+0xa8>
40009824:	e59f2064 	ldr	r2, [pc, #100]	; 40009890 <PWM_Init+0xa8>
40009828:	e5922004 	ldr	r2, [r2, #4]
4000982c:	e3c2200f 	bic	r2, r2, #15
40009830:	e3822002 	orr	r2, r2, #2
40009834:	e5832004 	str	r2, [r3, #4]
40009838:	e59f3050 	ldr	r3, [pc, #80]	; 40009890 <PWM_Init+0xa8>
4000983c:	e3a020c8 	mov	r2, #200	; 0xc8
40009840:	e583200c 	str	r2, [r3, #12]
40009844:	e59f3044 	ldr	r3, [pc, #68]	; 40009890 <PWM_Init+0xa8>
40009848:	e3a02064 	mov	r2, #100	; 0x64
4000984c:	e5832010 	str	r2, [r3, #16]
40009850:	e59f3038 	ldr	r3, [pc, #56]	; 40009890 <PWM_Init+0xa8>
40009854:	e59f2034 	ldr	r2, [pc, #52]	; 40009890 <PWM_Init+0xa8>
40009858:	e5922008 	ldr	r2, [r2, #8]
4000985c:	e3c2200f 	bic	r2, r2, #15
40009860:	e3822002 	orr	r2, r2, #2
40009864:	e5832008 	str	r2, [r3, #8]
40009868:	e59f3020 	ldr	r3, [pc, #32]	; 40009890 <PWM_Init+0xa8>
4000986c:	e59f201c 	ldr	r2, [pc, #28]	; 40009890 <PWM_Init+0xa8>
40009870:	e5922008 	ldr	r2, [r2, #8]
40009874:	e3c2200f 	bic	r2, r2, #15
40009878:	e3822008 	orr	r2, r2, #8
4000987c:	e5832008 	str	r2, [r3, #8]
40009880:	e28bd000 	add	sp, fp, #0
40009884:	e8bd0800 	ldmfd	sp!, {fp}
40009888:	e12fff1e 	bx	lr
4000988c:	114000a0 	smlaltbne	r0, r0, r0, r0	; <UNPREDICTABLE>
40009890:	139d0000 	orrsne	r0, sp, #0

40009894 <beep_on>:
40009894:	e52db004 	push	{fp}		; (str fp, [sp, #-4]!)
40009898:	e28db000 	add	fp, sp, #0
4000989c:	e59f3018 	ldr	r3, [pc, #24]	; 400098bc <beep_on+0x28>
400098a0:	e59f2014 	ldr	r2, [pc, #20]	; 400098bc <beep_on+0x28>
400098a4:	e5922008 	ldr	r2, [r2, #8]
400098a8:	e3822001 	orr	r2, r2, #1
400098ac:	e5832008 	str	r2, [r3, #8]
400098b0:	e28bd000 	add	sp, fp, #0
400098b4:	e8bd0800 	ldmfd	sp!, {fp}
400098b8:	e12fff1e 	bx	lr
400098bc:	139d0000 	orrsne	r0, sp, #0

400098c0 <beep_off>:
400098c0:	e52db004 	push	{fp}		; (str fp, [sp, #-4]!)
400098c4:	e28db000 	add	fp, sp, #0
400098c8:	e59f3018 	ldr	r3, [pc, #24]	; 400098e8 <beep_off+0x28>
400098cc:	e59f2014 	ldr	r2, [pc, #20]	; 400098e8 <beep_off+0x28>
400098d0:	e5922008 	ldr	r2, [r2, #8]
400098d4:	e3c22001 	bic	r2, r2, #1
400098d8:	e5832008 	str	r2, [r3, #8]
400098dc:	e28bd000 	add	sp, fp, #0
400098e0:	e8bd0800 	ldmfd	sp!, {fp}
400098e4:	e12fff1e 	bx	lr
400098e8:	139d0000 	orrsne	r0, sp, #0

400098ec <key_init>:
400098ec:	e52db004 	push	{fp}		; (str fp, [sp, #-4]!)
400098f0:	e28db000 	add	fp, sp, #0
400098f4:	e59f30b0 	ldr	r3, [pc, #176]	; 400099ac <key_init+0xc0>
400098f8:	e59f20ac 	ldr	r2, [pc, #172]	; 400099ac <key_init+0xc0>
400098fc:	e5922000 	ldr	r2, [r2]
40009900:	e3822eff 	orr	r2, r2, #4080	; 0xff0
40009904:	e5832000 	str	r2, [r3]
40009908:	e59f309c 	ldr	r3, [pc, #156]	; 400099ac <key_init+0xc0>
4000990c:	e59f2098 	ldr	r2, [pc, #152]	; 400099ac <key_init+0xc0>
40009910:	e5922008 	ldr	r2, [r2, #8]
40009914:	e3c2203c 	bic	r2, r2, #60	; 0x3c
40009918:	e5832008 	str	r2, [r3, #8]
4000991c:	e59f308c 	ldr	r3, [pc, #140]	; 400099b0 <key_init+0xc4>
40009920:	e59f2088 	ldr	r2, [pc, #136]	; 400099b0 <key_init+0xc4>
40009924:	e5922000 	ldr	r2, [r2]
40009928:	e3c22e77 	bic	r2, r2, #1904	; 0x770
4000992c:	e3822e22 	orr	r2, r2, #544	; 0x220
40009930:	e5832000 	str	r2, [r3]
40009934:	e59f3078 	ldr	r3, [pc, #120]	; 400099b4 <key_init+0xc8>
40009938:	e59f2074 	ldr	r2, [pc, #116]	; 400099b4 <key_init+0xc8>
4000993c:	e5922000 	ldr	r2, [r2]
40009940:	e3c22006 	bic	r2, r2, #6
40009944:	e5832000 	str	r2, [r3]
40009948:	e59f3068 	ldr	r3, [pc, #104]	; 400099b8 <key_init+0xcc>
4000994c:	e3a02001 	mov	r2, #1
40009950:	e5832000 	str	r2, [r3]
40009954:	e59f3060 	ldr	r3, [pc, #96]	; 400099bc <key_init+0xd0>
40009958:	e59f205c 	ldr	r2, [pc, #92]	; 400099bc <key_init+0xd0>
4000995c:	e5922004 	ldr	r2, [r2, #4]
40009960:	e3822406 	orr	r2, r2, #100663296	; 0x6000000
40009964:	e5832004 	str	r2, [r3, #4]
40009968:	e59f2050 	ldr	r2, [pc, #80]	; 400099c0 <key_init+0xd4>
4000996c:	e59f304c 	ldr	r3, [pc, #76]	; 400099c0 <key_init+0xd4>
40009970:	e5933038 	ldr	r3, [r3, #56]	; 0x38
40009974:	e3c338ff 	bic	r3, r3, #16711680	; 0xff0000
40009978:	e3c33cff 	bic	r3, r3, #65280	; 0xff00
4000997c:	e3833801 	orr	r3, r3, #65536	; 0x10000
40009980:	e3833c01 	orr	r3, r3, #256	; 0x100
40009984:	e5823038 	str	r3, [r2, #56]	; 0x38
40009988:	e59f3034 	ldr	r3, [pc, #52]	; 400099c4 <key_init+0xd8>
4000998c:	e3a02001 	mov	r2, #1
40009990:	e5832000 	str	r2, [r3]
40009994:	e59f3028 	ldr	r3, [pc, #40]	; 400099c4 <key_init+0xd8>
40009998:	e3a020ff 	mov	r2, #255	; 0xff
4000999c:	e5832004 	str	r2, [r3, #4]
400099a0:	e28bd000 	add	sp, fp, #0
400099a4:	e8bd0800 	ldmfd	sp!, {fp}
400099a8:	e12fff1e 	bx	lr
400099ac:	11000c20 	tstne	r0, r0, lsr #24
400099b0:	11000e04 	tstne	r0, r4, lsl #28
400099b4:	11000f04 	tstne	r0, r4, lsl #30
400099b8:	10490000 	subne	r0, r9, r0
400099bc:	10490100 	subne	r0, r9, r0, lsl #2
400099c0:	10490800 	subne	r0, r9, r0, lsl #16
400099c4:	10480000 	subne	r0, r8, r0

400099c8 <key2_irq>:
400099c8:	e92d4800 	push	{fp, lr}
400099cc:	e28db004 	add	fp, sp, #4
400099d0:	e3a00000 	mov	r0, #0
400099d4:	eb00004a 	bl	40009b04 <LED_ON>
400099d8:	e3a00001 	mov	r0, #1
400099dc:	eb000073 	bl	40009bb0 <LED_OFF>
400099e0:	e59f3024 	ldr	r3, [pc, #36]	; 40009a0c <key2_irq+0x44>
400099e4:	e59f2020 	ldr	r2, [pc, #32]	; 40009a0c <key2_irq+0x44>
400099e8:	e5922000 	ldr	r2, [r2]
400099ec:	e3822002 	orr	r2, r2, #2
400099f0:	e5832000 	str	r2, [r3]
400099f4:	e59f3014 	ldr	r3, [pc, #20]	; 40009a10 <key2_irq+0x48>
400099f8:	e59f2010 	ldr	r2, [pc, #16]	; 40009a10 <key2_irq+0x48>
400099fc:	e5922004 	ldr	r2, [r2, #4]
40009a00:	e3822402 	orr	r2, r2, #33554432	; 0x2000000
40009a04:	e5832004 	str	r2, [r3, #4]
40009a08:	e8bd8800 	pop	{fp, pc}
40009a0c:	11000f44 	tstne	r0, r4, asr #30
40009a10:	10490280 	subne	r0, r9, r0, lsl #5

40009a14 <key3_irq>:
40009a14:	e92d4800 	push	{fp, lr}
40009a18:	e28db004 	add	fp, sp, #4
40009a1c:	e3a00000 	mov	r0, #0
40009a20:	eb000062 	bl	40009bb0 <LED_OFF>
40009a24:	e3a00001 	mov	r0, #1
40009a28:	eb000035 	bl	40009b04 <LED_ON>
40009a2c:	e59f3024 	ldr	r3, [pc, #36]	; 40009a58 <key3_irq+0x44>
40009a30:	e59f2020 	ldr	r2, [pc, #32]	; 40009a58 <key3_irq+0x44>
40009a34:	e5922000 	ldr	r2, [r2]
40009a38:	e3822004 	orr	r2, r2, #4
40009a3c:	e5832000 	str	r2, [r3]
40009a40:	e59f3014 	ldr	r3, [pc, #20]	; 40009a5c <key3_irq+0x48>
40009a44:	e59f2010 	ldr	r2, [pc, #16]	; 40009a5c <key3_irq+0x48>
40009a48:	e5922004 	ldr	r2, [r2, #4]
40009a4c:	e3822301 	orr	r2, r2, #67108864	; 0x4000000
40009a50:	e5832004 	str	r2, [r3, #4]
40009a54:	e8bd8800 	pop	{fp, pc}
40009a58:	11000f44 	tstne	r0, r4, asr #30
40009a5c:	10490280 	subne	r0, r9, r0, lsl #5

40009a60 <LED_Init>:
40009a60:	e52db004 	push	{fp}		; (str fp, [sp, #-4]!)
40009a64:	e28db000 	add	fp, sp, #0
40009a68:	e59f3088 	ldr	r3, [pc, #136]	; 40009af8 <LED_Init+0x98>
40009a6c:	e59f2084 	ldr	r2, [pc, #132]	; 40009af8 <LED_Init+0x98>
40009a70:	e5922000 	ldr	r2, [r2]
40009a74:	e3c2220f 	bic	r2, r2, #-268435456	; 0xf0000000
40009a78:	e3822201 	orr	r2, r2, #268435456	; 0x10000000
40009a7c:	e5832000 	str	r2, [r3]
40009a80:	e59f3074 	ldr	r3, [pc, #116]	; 40009afc <LED_Init+0x9c>
40009a84:	e59f2070 	ldr	r2, [pc, #112]	; 40009afc <LED_Init+0x9c>
40009a88:	e5922000 	ldr	r2, [r2]
40009a8c:	e3c2200f 	bic	r2, r2, #15
40009a90:	e3822001 	orr	r2, r2, #1
40009a94:	e5832000 	str	r2, [r3]
40009a98:	e59f3060 	ldr	r3, [pc, #96]	; 40009b00 <LED_Init+0xa0>
40009a9c:	e59f205c 	ldr	r2, [pc, #92]	; 40009b00 <LED_Init+0xa0>
40009aa0:	e5922000 	ldr	r2, [r2]
40009aa4:	e3c228ff 	bic	r2, r2, #16711680	; 0xff0000
40009aa8:	e3822811 	orr	r2, r2, #1114112	; 0x110000
40009aac:	e5832000 	str	r2, [r3]
40009ab0:	e59f3040 	ldr	r3, [pc, #64]	; 40009af8 <LED_Init+0x98>
40009ab4:	e59f203c 	ldr	r2, [pc, #60]	; 40009af8 <LED_Init+0x98>
40009ab8:	e5922004 	ldr	r2, [r2, #4]
40009abc:	e3c22080 	bic	r2, r2, #128	; 0x80
40009ac0:	e5832004 	str	r2, [r3, #4]
40009ac4:	e59f3030 	ldr	r3, [pc, #48]	; 40009afc <LED_Init+0x9c>
40009ac8:	e59f202c 	ldr	r2, [pc, #44]	; 40009afc <LED_Init+0x9c>
40009acc:	e5922004 	ldr	r2, [r2, #4]
40009ad0:	e3c22001 	bic	r2, r2, #1
40009ad4:	e5832004 	str	r2, [r3, #4]
40009ad8:	e59f3020 	ldr	r3, [pc, #32]	; 40009b00 <LED_Init+0xa0>
40009adc:	e59f201c 	ldr	r2, [pc, #28]	; 40009b00 <LED_Init+0xa0>
40009ae0:	e5922004 	ldr	r2, [r2, #4]
40009ae4:	e3c22030 	bic	r2, r2, #48	; 0x30
40009ae8:	e5832004 	str	r2, [r3, #4]
40009aec:	e28bd000 	add	sp, fp, #0
40009af0:	e8bd0800 	ldmfd	sp!, {fp}
40009af4:	e12fff1e 	bx	lr
40009af8:	11000c40 	tstne	r0, r0, asr #24
40009afc:	11000c20 	tstne	r0, r0, lsr #24
40009b00:	114001e0 	smlalttne	r0, r0, r0, r1	; <UNPREDICTABLE>

40009b04 <LED_ON>:
40009b04:	e52db004 	push	{fp}		; (str fp, [sp, #-4]!)
40009b08:	e28db000 	add	fp, sp, #0
40009b0c:	e24dd004 	sub	sp, sp, #4
40009b10:	e50b0004 	str	r0, [fp, #-4]
40009b14:	e51b3004 	ldr	r3, [fp, #-4]
40009b18:	e3530003 	cmp	r3, #3
40009b1c:	979ff103 	ldrls	pc, [pc, r3, lsl #2]
40009b20:	ea00001b 	b	40009b94 <LED_ON+0x90>
40009b24:	40009b34 	andmi	r9, r0, r4, lsr fp
40009b28:	40009b4c 	andmi	r9, r0, ip, asr #22
40009b2c:	40009b64 	andmi	r9, r0, r4, ror #22
40009b30:	40009b7c 	andmi	r9, r0, ip, ror fp
40009b34:	e59f3068 	ldr	r3, [pc, #104]	; 40009ba4 <LED_ON+0xa0>
40009b38:	e59f2064 	ldr	r2, [pc, #100]	; 40009ba4 <LED_ON+0xa0>
40009b3c:	e5922004 	ldr	r2, [r2, #4]
40009b40:	e3822080 	orr	r2, r2, #128	; 0x80
40009b44:	e5832004 	str	r2, [r3, #4]
40009b48:	ea000012 	b	40009b98 <LED_ON+0x94>
40009b4c:	e59f3054 	ldr	r3, [pc, #84]	; 40009ba8 <LED_ON+0xa4>
40009b50:	e59f2050 	ldr	r2, [pc, #80]	; 40009ba8 <LED_ON+0xa4>
40009b54:	e5922004 	ldr	r2, [r2, #4]
40009b58:	e3822001 	orr	r2, r2, #1
40009b5c:	e5832004 	str	r2, [r3, #4]
40009b60:	ea00000c 	b	40009b98 <LED_ON+0x94>
40009b64:	e59f3040 	ldr	r3, [pc, #64]	; 40009bac <LED_ON+0xa8>
40009b68:	e59f203c 	ldr	r2, [pc, #60]	; 40009bac <LED_ON+0xa8>
40009b6c:	e5922004 	ldr	r2, [r2, #4]
40009b70:	e3822010 	orr	r2, r2, #16
40009b74:	e5832004 	str	r2, [r3, #4]
40009b78:	ea000006 	b	40009b98 <LED_ON+0x94>
40009b7c:	e59f3028 	ldr	r3, [pc, #40]	; 40009bac <LED_ON+0xa8>
40009b80:	e59f2024 	ldr	r2, [pc, #36]	; 40009bac <LED_ON+0xa8>
40009b84:	e5922004 	ldr	r2, [r2, #4]
40009b88:	e3822020 	orr	r2, r2, #32
40009b8c:	e5832004 	str	r2, [r3, #4]
40009b90:	ea000000 	b	40009b98 <LED_ON+0x94>
40009b94:	e1a00000 	nop			; (mov r0, r0)
40009b98:	e28bd000 	add	sp, fp, #0
40009b9c:	e8bd0800 	ldmfd	sp!, {fp}
40009ba0:	e12fff1e 	bx	lr
40009ba4:	11000c40 	tstne	r0, r0, asr #24
40009ba8:	11000c20 	tstne	r0, r0, lsr #24
40009bac:	114001e0 	smlalttne	r0, r0, r0, r1	; <UNPREDICTABLE>

40009bb0 <LED_OFF>:
40009bb0:	e52db004 	push	{fp}		; (str fp, [sp, #-4]!)
40009bb4:	e28db000 	add	fp, sp, #0
40009bb8:	e24dd004 	sub	sp, sp, #4
40009bbc:	e50b0004 	str	r0, [fp, #-4]
40009bc0:	e51b3004 	ldr	r3, [fp, #-4]
40009bc4:	e3530003 	cmp	r3, #3
40009bc8:	979ff103 	ldrls	pc, [pc, r3, lsl #2]
40009bcc:	ea00001b 	b	40009c40 <LED_OFF+0x90>
40009bd0:	40009be0 	andmi	r9, r0, r0, ror #23
40009bd4:	40009bf8 	strdmi	r9, [r0], -r8
40009bd8:	40009c10 	andmi	r9, r0, r0, lsl ip
40009bdc:	40009c28 	andmi	r9, r0, r8, lsr #24
40009be0:	e59f3068 	ldr	r3, [pc, #104]	; 40009c50 <LED_OFF+0xa0>
40009be4:	e59f2064 	ldr	r2, [pc, #100]	; 40009c50 <LED_OFF+0xa0>
40009be8:	e5922004 	ldr	r2, [r2, #4]
40009bec:	e3c22080 	bic	r2, r2, #128	; 0x80
40009bf0:	e5832004 	str	r2, [r3, #4]
40009bf4:	ea000012 	b	40009c44 <LED_OFF+0x94>
40009bf8:	e59f3054 	ldr	r3, [pc, #84]	; 40009c54 <LED_OFF+0xa4>
40009bfc:	e59f2050 	ldr	r2, [pc, #80]	; 40009c54 <LED_OFF+0xa4>
40009c00:	e5922004 	ldr	r2, [r2, #4]
40009c04:	e3c22001 	bic	r2, r2, #1
40009c08:	e5832004 	str	r2, [r3, #4]
40009c0c:	ea00000c 	b	40009c44 <LED_OFF+0x94>
40009c10:	e59f3040 	ldr	r3, [pc, #64]	; 40009c58 <LED_OFF+0xa8>
40009c14:	e59f203c 	ldr	r2, [pc, #60]	; 40009c58 <LED_OFF+0xa8>
40009c18:	e5922004 	ldr	r2, [r2, #4]
40009c1c:	e3c22010 	bic	r2, r2, #16
40009c20:	e5832004 	str	r2, [r3, #4]
40009c24:	ea000006 	b	40009c44 <LED_OFF+0x94>
40009c28:	e59f3028 	ldr	r3, [pc, #40]	; 40009c58 <LED_OFF+0xa8>
40009c2c:	e59f2024 	ldr	r2, [pc, #36]	; 40009c58 <LED_OFF+0xa8>
40009c30:	e5922004 	ldr	r2, [r2, #4]
40009c34:	e3c22020 	bic	r2, r2, #32
40009c38:	e5832004 	str	r2, [r3, #4]
40009c3c:	ea000000 	b	40009c44 <LED_OFF+0x94>
40009c40:	e1a00000 	nop			; (mov r0, r0)
40009c44:	e28bd000 	add	sp, fp, #0
40009c48:	e8bd0800 	ldmfd	sp!, {fp}
40009c4c:	e12fff1e 	bx	lr
40009c50:	11000c40 	tstne	r0, r0, asr #24
40009c54:	11000c20 	tstne	r0, r0, lsr #24
40009c58:	114001e0 	smlalttne	r0, r0, r0, r1	; <UNPREDICTABLE>

40009c5c <ADC_Init>:
40009c5c:	e52db004 	push	{fp}		; (str fp, [sp, #-4]!)
40009c60:	e28db000 	add	fp, sp, #0
40009c64:	e59f3038 	ldr	r3, [pc, #56]	; 40009ca4 <ADC_Init+0x48>
40009c68:	e59f2034 	ldr	r2, [pc, #52]	; 40009ca4 <ADC_Init+0x48>
40009c6c:	e5922000 	ldr	r2, [r2]
40009c70:	e3c22801 	bic	r2, r2, #65536	; 0x10000
40009c74:	e5832000 	str	r2, [r3]
40009c78:	e59f3028 	ldr	r3, [pc, #40]	; 40009ca8 <ADC_Init+0x4c>
40009c7c:	e3a02003 	mov	r2, #3
40009c80:	e5832000 	str	r2, [r3]
40009c84:	e59f3020 	ldr	r3, [pc, #32]	; 40009cac <ADC_Init+0x50>
40009c88:	e5933000 	ldr	r3, [r3]
40009c8c:	e59f3018 	ldr	r3, [pc, #24]	; 40009cac <ADC_Init+0x50>
40009c90:	e59f2018 	ldr	r2, [pc, #24]	; 40009cb0 <ADC_Init+0x54>
40009c94:	e5832000 	str	r2, [r3]
40009c98:	e28bd000 	add	sp, fp, #0
40009c9c:	e8bd0800 	ldmfd	sp!, {fp}
40009ca0:	e12fff1e 	bx	lr
40009ca4:	10010118 	andne	r0, r1, r8, lsl r1
40009ca8:	126c001c 	rsbne	r0, ip, #28
40009cac:	126c0000 	rsbne	r0, ip, #0
40009cb0:	00017fc0 	andeq	r7, r1, r0, asr #31

40009cb4 <GetADCConverterData>:
40009cb4:	e52db004 	push	{fp}		; (str fp, [sp, #-4]!)
40009cb8:	e28db000 	add	fp, sp, #0
40009cbc:	e24dd004 	sub	sp, sp, #4
40009cc0:	e59f304c 	ldr	r3, [pc, #76]	; 40009d14 <GetADCConverterData+0x60>
40009cc4:	e59f2048 	ldr	r2, [pc, #72]	; 40009d14 <GetADCConverterData+0x60>
40009cc8:	e5922000 	ldr	r2, [r2]
40009ccc:	e3822001 	orr	r2, r2, #1
40009cd0:	e5832000 	str	r2, [r3]
40009cd4:	e1a00000 	nop			; (mov r0, r0)
40009cd8:	e59f3034 	ldr	r3, [pc, #52]	; 40009d14 <GetADCConverterData+0x60>
40009cdc:	e5933000 	ldr	r3, [r3]
40009ce0:	e2033902 	and	r3, r3, #32768	; 0x8000
40009ce4:	e3530000 	cmp	r3, #0
40009ce8:	0afffffa 	beq	40009cd8 <GetADCConverterData+0x24>
40009cec:	e59f3024 	ldr	r3, [pc, #36]	; 40009d18 <GetADCConverterData+0x64>
40009cf0:	e5933000 	ldr	r3, [r3]
40009cf4:	e1a03a03 	lsl	r3, r3, #20
40009cf8:	e1a03a23 	lsr	r3, r3, #20
40009cfc:	e50b3004 	str	r3, [fp, #-4]
40009d00:	e51b3004 	ldr	r3, [fp, #-4]
40009d04:	e1a00003 	mov	r0, r3
40009d08:	e28bd000 	add	sp, fp, #0
40009d0c:	e8bd0800 	ldmfd	sp!, {fp}
40009d10:	e12fff1e 	bx	lr
40009d14:	126c0000 	rsbne	r0, ip, #0
40009d18:	126c000c 	rsbne	r0, ip, #12

Disassembly of section .rodata:

40009d1c <.rodata>:
40009d1c:	33323130 	teqcc	r2, #48, 2
40009d20:	37363534 			; <UNDEFINED> instruction: 0x37363534
40009d24:	62613938 	rsbvs	r3, r1, #56, 18	; 0xe0000
40009d28:	66656463 	strbtvs	r6, [r5], -r3, ror #8
40009d2c:	6a696867 	bvs	41a63ed0 <_ctype+0x1a59950>
40009d30:	6e6d6c6b 	cdpvs	12, 6, cr6, cr13, cr11, {3}
40009d34:	7271706f 	rsbsvc	r7, r1, #111	; 0x6f
40009d38:	76757473 			; <UNDEFINED> instruction: 0x76757473
40009d3c:	7a797877 	bvc	41e67f20 <_ctype+0x1e5d9a0>
40009d40:	00000000 	andeq	r0, r0, r0
40009d44:	33323130 	teqcc	r2, #48, 2
40009d48:	37363534 			; <UNDEFINED> instruction: 0x37363534
40009d4c:	42413938 	submi	r3, r1, #56, 18	; 0xe0000
40009d50:	46454443 	strbmi	r4, [r5], -r3, asr #8
40009d54:	4a494847 	bmi	4125be78 <_ctype+0x12518f8>
40009d58:	4e4d4c4b 	cdpmi	12, 4, cr4, cr13, cr11, {2}
40009d5c:	5251504f 	subspl	r5, r1, #79	; 0x4f
40009d60:	56555453 			; <UNDEFINED> instruction: 0x56555453
40009d64:	5a595857 	bpl	4165fec8 <_ctype+0x1655948>
40009d68:	00000000 	andeq	r0, r0, r0
40009d6c:	4c554e3c 	mrrcmi	14, 3, r4, r5, cr12
40009d70:	00003e4c 	andeq	r3, r0, ip, asr #28
40009d74:	206c6176 	rsbcs	r6, ip, r6, ror r1
40009d78:	6425203d 	strtvs	r2, [r5], #-61	; 0x3d
40009d7c:	0000000a 	andeq	r0, r0, sl

Disassembly of section .data:

40009d80 <stack>:
	...

4000a580 <_ctype>:
4000a580:	08080808 	stmdaeq	r8, {r3, fp}
4000a584:	08080808 	stmdaeq	r8, {r3, fp}
4000a588:	28282808 	stmdacs	r8!, {r3, fp, sp}
4000a58c:	08082828 	stmdaeq	r8, {r3, r5, fp, sp}
4000a590:	08080808 	stmdaeq	r8, {r3, fp}
4000a594:	08080808 	stmdaeq	r8, {r3, fp}
4000a598:	08080808 	stmdaeq	r8, {r3, fp}
4000a59c:	08080808 	stmdaeq	r8, {r3, fp}
4000a5a0:	101010a0 	andsne	r1, r0, r0, lsr #1
4000a5a4:	10101010 	andsne	r1, r0, r0, lsl r0
4000a5a8:	10101010 	andsne	r1, r0, r0, lsl r0
4000a5ac:	10101010 	andsne	r1, r0, r0, lsl r0
4000a5b0:	04040404 	streq	r0, [r4], #-1028	; 0x404
4000a5b4:	04040404 	streq	r0, [r4], #-1028	; 0x404
4000a5b8:	10100404 	andsne	r0, r0, r4, lsl #8
4000a5bc:	10101010 	andsne	r1, r0, r0, lsl r0
4000a5c0:	41414110 	cmpmi	r1, r0, lsl r1
4000a5c4:	01414141 	cmpeq	r1, r1, asr #2
4000a5c8:	01010101 	tsteq	r1, r1, lsl #2
4000a5cc:	01010101 	tsteq	r1, r1, lsl #2
4000a5d0:	01010101 	tsteq	r1, r1, lsl #2
4000a5d4:	01010101 	tsteq	r1, r1, lsl #2
4000a5d8:	10010101 	andne	r0, r1, r1, lsl #2
4000a5dc:	10101010 	andsne	r1, r0, r0, lsl r0
4000a5e0:	42424210 	submi	r4, r2, #16, 4
4000a5e4:	02424242 	subeq	r4, r2, #536870916	; 0x20000004
4000a5e8:	02020202 	andeq	r0, r2, #536870912	; 0x20000000
4000a5ec:	02020202 	andeq	r0, r2, #536870912	; 0x20000000
4000a5f0:	02020202 	andeq	r0, r2, #536870912	; 0x20000000
4000a5f4:	02020202 	andeq	r0, r2, #536870912	; 0x20000000
4000a5f8:	10020202 	andne	r0, r2, r2, lsl #4
4000a5fc:	08101010 	ldmdaeq	r0, {r4, ip}
	...
4000a620:	101010a0 	andsne	r1, r0, r0, lsr #1
4000a624:	10101010 	andsne	r1, r0, r0, lsl r0
4000a628:	10101010 	andsne	r1, r0, r0, lsl r0
4000a62c:	10101010 	andsne	r1, r0, r0, lsl r0
4000a630:	10101010 	andsne	r1, r0, r0, lsl r0
4000a634:	10101010 	andsne	r1, r0, r0, lsl r0
4000a638:	10101010 	andsne	r1, r0, r0, lsl r0
4000a63c:	10101010 	andsne	r1, r0, r0, lsl r0
4000a640:	01010101 	tsteq	r1, r1, lsl #2
4000a644:	01010101 	tsteq	r1, r1, lsl #2
4000a648:	01010101 	tsteq	r1, r1, lsl #2
4000a64c:	01010101 	tsteq	r1, r1, lsl #2
4000a650:	01010101 	tsteq	r1, r1, lsl #2
4000a654:	10010101 	andne	r0, r1, r1, lsl #2
4000a658:	01010101 	tsteq	r1, r1, lsl #2
4000a65c:	02010101 	andeq	r0, r1, #1073741824	; 0x40000000
4000a660:	02020202 	andeq	r0, r2, #536870912	; 0x20000000
4000a664:	02020202 	andeq	r0, r2, #536870912	; 0x20000000
4000a668:	02020202 	andeq	r0, r2, #536870912	; 0x20000000
4000a66c:	02020202 	andeq	r0, r2, #536870912	; 0x20000000
4000a670:	02020202 	andeq	r0, r2, #536870912	; 0x20000000
4000a674:	10020202 	andne	r0, r2, r2, lsl #4
4000a678:	02020202 	andeq	r0, r2, #536870912	; 0x20000000
4000a67c:	02020202 	andeq	r0, r2, #536870912	; 0x20000000

Disassembly of section .ARM.attributes:

00000000 <.ARM.attributes>:
   0:	00000f41 	andeq	r0, r0, r1, asr #30
   4:	61656100 	cmnvs	r5, r0, lsl #2
   8:	01006962 	tsteq	r0, r2, ror #18
   c:	00000005 	andeq	r0, r0, r5

Disassembly of section .comment:

00000000 <.comment>:
   0:	3a434347 	bcc	10d0d24 <_start-0x3ef372dc>
   4:	72632820 	rsbvc	r2, r3, #32, 16	; 0x200000
   8:	7473736f 	ldrbtvc	r7, [r3], #-879	; 0x36f
   c:	2d6c6f6f 	stclcs	15, cr6, [ip, #-444]!	; 0xfffffe44
  10:	6820474e 	stmdavs	r0!, {r1, r2, r3, r6, r8, r9, sl, lr}
  14:	65642b67 	strbvs	r2, [r4, #-2919]!	; 0xb67
  18:	6c756166 	ldfvse	f6, [r5], #-408	; 0xfffffe68
  1c:	36322d74 			; <UNDEFINED> instruction: 0x36322d74
  20:	66643538 			; <UNDEFINED> instruction: 0x66643538
  24:	65643961 	strbvs	r3, [r4, #-2401]!	; 0x961
  28:	2d203431 	cfstrscs	mvf3, [r0, #-196]!	; 0xffffff3c
  2c:	30637420 	rsbcc	r7, r3, r0, lsr #8
  30:	29323030 	ldmdbcs	r2!, {r4, r5, ip, sp}
  34:	362e3420 	strtcc	r3, [lr], -r0, lsr #8
  38:	Address 0x00000038 is out of bounds.


Disassembly of section .debug_line:

00000000 <.debug_line>:
   0:	00000082 	andeq	r0, r0, r2, lsl #1
   4:	00240002 	eoreq	r0, r4, r2
   8:	01020000 	mrseq	r0, (UNDEF: 2)
   c:	000d0efb 	strdeq	r0, [sp], -fp
  10:	01010101 	tsteq	r1, r1, lsl #2
  14:	01000000 	mrseq	r0, (UNDEF: 0)
  18:	73010000 	movwvc	r0, #4096	; 0x1000
  1c:	74726174 	ldrbtvc	r6, [r2], #-372	; 0x174
  20:	74730000 	ldrbtvc	r0, [r3], #-0
  24:	2e747261 	cdpcs	2, 7, cr7, cr4, cr1, {3}
  28:	00010053 	andeq	r0, r1, r3, asr r0
  2c:	05000000 	streq	r0, [r0, #-0]
  30:	00800002 	addeq	r0, r0, r2
  34:	2f2f1540 	svccs	0x002f1540
  38:	2f2f2f2f 	svccs	0x002f2f2f
  3c:	f20d032f 	vcgt.s8	d0, d13, d31
  40:	2f2f302f 	svccs	0x002f302f
  44:	342f302f 	strtcc	r3, [pc], #-47	; 4c <_start-0x40007fb4>
  48:	2f322f2f 	svccs	0x00322f2f
  4c:	2f2f2f33 	svccs	0x002f2f33
  50:	322f2f2f 	eorcc	r2, pc, #47, 30	; 0xbc
  54:	2f2f2f2f 	svccs	0x002f2f2f
  58:	2f2f2f30 	svccs	0x002f2f30
  5c:	2f2f2f30 	svccs	0x002f2f30
  60:	302f3131 	eorcc	r3, pc, r1, lsr r1	; <UNPREDICTABLE>
  64:	2f302f2f 	svccs	0x00302f2f
  68:	2f2f302f 	svccs	0x002f302f
  6c:	302f2f30 	eorcc	r2, pc, r0, lsr pc	; <UNPREDICTABLE>
  70:	0a03302f 	beq	cc134 <_start-0x3ff3becc>
  74:	2f2f2f66 	svccs	0x002f2f66
  78:	4a7fa403 	bmi	1fe908c <_start-0x3e01ef74>
  7c:	342e2503 	strtcc	r2, [lr], #-1283	; 0x503
  80:	00020233 	andeq	r0, r2, r3, lsr r2
  84:	02530101 	subseq	r0, r3, #1073741824	; 0x40000000
  88:	00020000 	andeq	r0, r2, r0
  8c:	00000052 	andeq	r0, r0, r2, asr r0
  90:	0efb0102 	cdpeq	1, 15, cr0, cr11, cr2, {0}
  94:	0101000d 	tsteq	r1, sp
  98:	00000101 	andeq	r0, r0, r1, lsl #2
  9c:	00000100 	andeq	r0, r0, r0, lsl #2
  a0:	632f2e01 	teqvs	pc, #1, 28
  a4:	6f6d6d6f 	svcvs	0x006d6d6f
  a8:	6e692f6e 	cdpvs	15, 6, cr2, cr9, cr14, {3}
  ac:	64756c63 	ldrbtvs	r6, [r5], #-3171	; 0xc63
  b0:	6f630065 	svcvs	0x00630065
  b4:	6e6f6d6d 	cdpvs	13, 6, cr6, cr15, cr13, {3}
  b8:	6372732f 	cmnvs	r2, #-1140850688	; 0xbc000000
  bc:	74630000 	strbtvc	r0, [r3], #-0
  c0:	2e657079 	mcrcs	0, 3, r7, cr5, cr9, {3}
  c4:	00010068 	andeq	r0, r1, r8, rrx
  c8:	69727000 	ldmdbvs	r2!, {ip, sp, lr}^
  cc:	2e66746e 	cdpcs	4, 6, cr7, cr6, cr14, {3}
  d0:	00020063 	andeq	r0, r2, r3, rrx
  d4:	64747300 	ldrbtvs	r7, [r4], #-768	; 0x300
  d8:	2e677261 	cdpcs	2, 6, cr7, cr7, cr1, {3}
  dc:	00010068 	andeq	r0, r1, r8, rrx
  e0:	05000000 	streq	r0, [r0, #-0]
  e4:	00814002 	addeq	r4, r1, r2
  e8:	00c40340 	sbceq	r0, r4, r0, asr #6
  ec:	67bb9f01 	ldrvs	r9, [fp, r1, lsl #30]!
  f0:	0302042f 	movweq	r0, #9263	; 0x242f
  f4:	bb9e7fbf 	bllt	fe79fff8 <_ctype+0xbe795a78>
  f8:	0067834c 	rsbeq	r8, r7, ip, asr #6
  fc:	06010402 	streq	r0, [r1], -r2, lsl #8
 100:	4bf30682 	blmi	ffcc1b10 <_ctype+0xbfcb7590>
 104:	674d6768 	strbvs	r6, [sp, -r8, ror #14]
 108:	7fbb304c 	svcvc	0x00bb304c
 10c:	01040200 	mrseq	r0, R12_usr
 110:	02002e06 	andeq	r2, r0, #6, 28	; 0x60
 114:	00d60204 	sbcseq	r0, r6, r4, lsl #4
 118:	d6010402 	strle	r0, [r1], -r2, lsl #8
 11c:	02040200 	andeq	r0, r4, #0, 4
 120:	00d70682 	sbcseq	r0, r7, r2, lsl #13
 124:	06030402 	streq	r0, [r3], -r2, lsl #8
 128:	040200d6 	streq	r0, [r2], #-214	; 0xd6
 12c:	a3650605 	cmnge	r5, #5242880	; 0x500000
 130:	852f6767 	strhi	r6, [pc, #-1895]!	; fffff9d1 <_ctype+0xbfff5451>
 134:	210883bb 			; <UNDEFINED> instruction: 0x210883bb
 138:	6624039f 			; <UNDEFINED> instruction: 0x6624039f
 13c:	002f4c83 	eoreq	r4, pc, r3, lsl #25
 140:	08010402 	stmdaeq	r1, {r1, sl}
 144:	040200c7 	streq	r0, [r2], #-199	; 0xc7
 148:	069e0602 	ldreq	r0, [lr], r2, lsl #12
 14c:	20032fa0 	andcs	r2, r3, r0, lsr #31
 150:	834dd882 	movthi	sp, #55426	; 0xd882
 154:	0067834b 	rsbeq	r8, r7, fp, asr #6
 158:	06010402 	streq	r0, [r1], -r2, lsl #8
 15c:	4b670666 	blmi	19c1afc <_start-0x3e646504>
 160:	01040200 	mrseq	r0, R12_usr
 164:	02009e06 	andeq	r9, r0, #6, 28	; 0x60
 168:	004a0204 	subeq	r0, sl, r4, lsl #4
 16c:	2e030402 	cdpcs	4, 0, cr0, cr3, cr2, {0}
 170:	03040200 	movweq	r0, #16896	; 0x4200
 174:	02002f06 	andeq	r2, r0, #6, 30
 178:	834b0304 	movthi	r0, #45828	; 0xb304
 17c:	83674b67 	cmnhi	r7, #105472	; 0x19c00
 180:	83834b83 	orrhi	r4, r3, #134144	; 0x20c00
 184:	6783694b 	strvs	r6, [r3, fp, asr #18]
 188:	4b686783 	blmi	1a19f9c <_start-0x3e5ee064>
 18c:	835a0867 	cmphi	sl, #6750208	; 0x670000
 190:	01040200 	mrseq	r0, R12_usr
 194:	69103202 	ldmdbvs	r0, {r1, r9, ip, sp}
 198:	2f83834b 	svccs	0x0083834b
 19c:	01040200 	mrseq	r0, R12_usr
 1a0:	673e08b9 			; <UNDEFINED> instruction: 0x673e08b9
 1a4:	d76783bb 			; <UNDEFINED> instruction: 0xd76783bb
 1a8:	83d9bb67 	bicshi	fp, r9, #105472	; 0x19c00
 1ac:	0402002f 	streq	r0, [r2], #-47	; 0x2f
 1b0:	3e08b901 	cdpcc	9, 0, cr11, cr8, cr1, {0}
 1b4:	0200d52f 	andeq	sp, r0, #197132288	; 0xbc00000
 1b8:	2e060104 	adfcss	f0, f6, f4
 1bc:	2f5a0806 	svccs	0x005a0806
 1c0:	01040200 	mrseq	r0, R12_usr
 1c4:	3e085708 	cdpcc	7, 0, cr5, cr8, cr8, {0}
 1c8:	0402002f 	streq	r0, [r2], #-47	; 0x2f
 1cc:	3e08b901 	cdpcc	9, 0, cr11, cr8, cr1, {0}
 1d0:	00a1a32f 	adceq	sl, r1, pc, lsr #6
 1d4:	06010402 	streq	r0, [r1], -r2, lsl #8
 1d8:	04020066 	streq	r0, [r2], #-102	; 0x66
 1dc:	06900802 	ldreq	r0, [r0], r2, lsl #16
 1e0:	03846784 	orreq	r6, r4, #132, 14	; 0x2100000
 1e4:	8367ba12 	cmnhi	r7, #73728	; 0x12000
 1e8:	674c32d7 			; <UNDEFINED> instruction: 0x674c32d7
 1ec:	83132e02 	tsthi	r3, #2, 28
 1f0:	86838383 	strhi	r8, [r3], r3, lsl #7
 1f4:	0402004b 	streq	r0, [r2], #-75	; 0x4b
 1f8:	06820601 	streq	r0, [r2], r1, lsl #12
 1fc:	68839f83 	stmvs	r3, {r0, r1, r7, r8, r9, sl, fp, ip, pc}
 200:	6b67679f 	blvs	19da084 <_start-0x3e62df7c>
 204:	0067834b 	rsbeq	r8, r7, fp, asr #6
 208:	06010402 	streq	r0, [r1], -r2, lsl #8
 20c:	9f830682 	svcls	0x00830682
 210:	67a06883 	strvs	r6, [r0, r3, lsl #17]!
 214:	02004b4e 	andeq	r4, r0, #79872	; 0x13800
 218:	82060104 	andhi	r0, r6, #4, 2
 21c:	01040200 	mrseq	r0, R12_usr
 220:	0200f306 	andeq	pc, r0, #402653184	; 0x18000000
 224:	4b490104 	blmi	124063c <_start-0x3edc79c4>
 228:	01040200 	mrseq	r0, R12_usr
 22c:	02008206 	andeq	r8, r0, #1610612736	; 0x60000000
 230:	83060104 	movwhi	r0, #24836	; 0x6104
 234:	01040200 	mrseq	r0, R12_usr
 238:	00674c49 	rsbeq	r4, r7, r9, asr #24
 23c:	06010402 	streq	r0, [r1], -r2, lsl #8
 240:	4b9f0666 	blmi	fe7c1be0 <_ctype+0xbe7b7660>
 244:	024c6a68 	subeq	r6, ip, #104, 20	; 0x68000
 248:	831401b4 	tsthi	r4, #180, 2	; 0x2d
 24c:	0402002f 	streq	r0, [r2], #-47	; 0x2f
 250:	08bcb901 	ldmeq	ip!, {r0, r8, fp, ip, sp, pc}
 254:	02002f3d 	andeq	r2, r0, #61, 30	; 0xf4
 258:	bcb90104 	ldflts	f0, [r9], #16
 25c:	4c679f31 	stclmi	15, cr9, [r7], #-196	; 0xffffff3c
 260:	002f83bc 			; <UNDEFINED> instruction: 0x002f83bc
 264:	b9010402 	stmdblt	r1, {r1, sl}
 268:	02005a08 	andeq	r5, r0, #8, 20	; 0x8000
 26c:	00670204 	rsbeq	r0, r7, r4, lsl #4
 270:	08020402 	stmdaeq	r2, {r1, sl}
 274:	0402003b 	streq	r0, [r2], #-59	; 0x3b
 278:	06660601 	strbteq	r0, [r6], -r1, lsl #12
 27c:	02002f84 	andeq	r2, r0, #132, 30	; 0x210
 280:	08b90104 	ldmeq	r9!, {r2, r8}
 284:	4b67315a 	blmi	19cc7f4 <_start-0x3e63b80c>
 288:	3f088169 	svccc	0x00088169
 28c:	a39f6732 	orrsge	r6, pc, #13107200	; 0xc80000
 290:	31a09f2b 	lsrcc	r9, fp, #30
 294:	314b32bb 	strhcc	r3, [fp, #-43]	; 0xffffffd5
 298:	68324b68 	ldmdavs	r2!, {r3, r5, r6, r8, r9, fp, lr}
 29c:	d983bb31 	stmible	r3, {r0, r4, r5, r8, r9, fp, ip, sp, pc}
 2a0:	7803672d 	stmdavc	r3, {r0, r2, r3, r5, r8, r9, sl, sp, lr}
 2a4:	2e0f032e 	cdpcs	3, 0, cr0, cr15, cr14, {1}
 2a8:	0200bb67 	andeq	fp, r0, #105472	; 0x19c00
 2ac:	66060104 	strvs	r0, [r6], -r4, lsl #2
 2b0:	67bb6706 	ldrvs	r6, [fp, r6, lsl #14]!
 2b4:	83bb67bb 			; <UNDEFINED> instruction: 0x83bb67bb
 2b8:	9fbc839f 	svcls	0x00bc839f
 2bc:	087ee203 	ldmdaeq	lr!, {r0, r1, r9, sp, lr, pc}^
 2c0:	04020074 	streq	r0, [r2], #-116	; 0x74
 2c4:	06660601 	strbteq	r0, [r6], -r1, lsl #12
 2c8:	8201a003 	andhi	sl, r1, #3
 2cc:	a2856767 	addge	r6, r5, #27000832	; 0x19c0000
 2d0:	a12fbc67 	teqge	pc, r7, ror #24
 2d4:	67f46b86 	ldrbvs	r6, [r4, r6, lsl #23]!
 2d8:	01000802 	tsteq	r0, r2, lsl #16
 2dc:	00009701 	andeq	r9, r0, r1, lsl #14
 2e0:	4a000200 	bmi	ae8 <_start-0x40007518>
 2e4:	02000000 	andeq	r0, r0, #0
 2e8:	0d0efb01 	vstreq	d15, [lr, #-4]
 2ec:	01010100 	mrseq	r0, (UNDEF: 17)
 2f0:	00000001 	andeq	r0, r0, r1
 2f4:	01000001 	tsteq	r0, r1
 2f8:	6d6d6f63 	stclvs	15, cr6, [sp, #-396]!	; 0xfffffe74
 2fc:	732f6e6f 	teqvc	pc, #1776	; 0x6f0
 300:	2e006372 	mcrcs	3, 0, r6, cr0, cr2, {3}
 304:	6d6f632f 	stclvs	3, cr6, [pc, #-188]!	; 250 <_start-0x40007db0>
 308:	2f6e6f6d 	svccs	0x006e6f6d
 30c:	6c636e69 	stclvs	14, cr6, [r3], #-420	; 0xfffffe5c
 310:	00656475 	rsbeq	r6, r5, r5, ror r4
 314:	72617500 	rsbvc	r7, r1, #0, 10
 318:	00632e74 	rsbeq	r2, r3, r4, ror lr
 31c:	65000001 	strvs	r0, [r0, #-1]
 320:	6f6e7978 	svcvs	0x006e7978
 324:	34345f73 	ldrtcc	r5, [r4], #-3955	; 0xf73
 328:	682e3231 	stmdavs	lr!, {r0, r4, r5, r9, ip, sp}
 32c:	00000200 	andeq	r0, r0, r0, lsl #4
 330:	02050000 	andeq	r0, r5, #0
 334:	40009318 	andmi	r9, r0, r8, lsl r3
 338:	4c011003 	stcmi	0, cr1, [r1], {3}
 33c:	68a0a2bb 	stmiavs	r0!, {r0, r1, r3, r4, r5, r7, r9, sp, pc}
 340:	68a16768 	stmiavs	r1!, {r3, r5, r6, r8, r9, sl, sp, lr}
 344:	01040200 	mrseq	r0, R12_usr
 348:	9f062e06 	svcls	0x00062e06
 34c:	2f4b6767 	svccs	0x004b6767
 350:	833084a5 	teqhi	r0, #-1526726656	; 0xa5000000
 354:	01040200 	mrseq	r0, R12_usr
 358:	83250863 	teqhi	r5, #6488064	; 0x630000
 35c:	009f4ebb 			; <UNDEFINED> instruction: 0x009f4ebb
 360:	06010402 	streq	r0, [r1], -r2, lsl #8
 364:	679f062e 	ldrvs	r0, [pc, lr, lsr #12]
 368:	83684b67 	cmnhi	r8, #105472	; 0x19c00
 36c:	0402002f 	streq	r0, [r2], #-47	; 0x2f
 370:	0284d501 	addeq	sp, r4, #4194304	; 0x400000
 374:	01010004 	tsteq	r1, r4
 378:	0000006c 	andeq	r0, r0, ip, rrx
 37c:	002c0002 	eoreq	r0, ip, r2
 380:	01020000 	mrseq	r0, (UNDEF: 2)
 384:	000d0efb 	strdeq	r0, [sp], -fp
 388:	01010101 	tsteq	r1, r1, lsl #2
 38c:	01000000 	mrseq	r0, (UNDEF: 0)
 390:	63010000 	movwvs	r0, #4096	; 0x1000
 394:	6f6d6d6f 	svcvs	0x006d6d6f
 398:	72732f6e 	rsbsvc	r2, r3, #440	; 0x1b8
 39c:	5f000063 	svcpl	0x00000063
 3a0:	646f6d75 	strbtvs	r6, [pc], #-3445	; 3a8 <_start-0x40007c58>
 3a4:	2e336973 	mrccs	9, 1, r6, cr3, cr3, {3}
 3a8:	00010053 	andeq	r0, r1, r3, asr r0
 3ac:	05000000 	streq	r0, [r0, #-0]
 3b0:	00951802 	addseq	r1, r5, r2, lsl #16
 3b4:	01120340 	tsteq	r2, r0, asr #6
 3b8:	2f2f2f2f 	svccs	0x002f2f2f
 3bc:	2f2f2f34 	svccs	0x002f2f34
 3c0:	2f2f322f 	svccs	0x002f322f
 3c4:	2f332f2f 	svccs	0x00332f2f
 3c8:	2f2f2f2f 	svccs	0x002f2f2f
 3cc:	2f2f2f2f 	svccs	0x002f2f2f
 3d0:	2f2f2f2f 	svccs	0x002f2f2f
 3d4:	352f2f2f 	strcc	r2, [pc, #-3887]!	; fffff4ad <_ctype+0xbfff4f2d>
 3d8:	2f2f2f2f 	svccs	0x002f2f2f
 3dc:	2f2f2f2f 	svccs	0x002f2f2f
 3e0:	022f3030 	eoreq	r3, pc, #48	; 0x30
 3e4:	01010002 	tsteq	r1, r2
 3e8:	00000065 	andeq	r0, r0, r5, rrx
 3ec:	002c0002 	eoreq	r0, ip, r2
 3f0:	01020000 	mrseq	r0, (UNDEF: 2)
 3f4:	000d0efb 	strdeq	r0, [sp], -fp
 3f8:	01010101 	tsteq	r1, r1, lsl #2
 3fc:	01000000 	mrseq	r0, (UNDEF: 0)
 400:	63010000 	movwvs	r0, #4096	; 0x1000
 404:	6f6d6d6f 	svcvs	0x006d6d6f
 408:	72732f6e 	rsbsvc	r2, r3, #440	; 0x1b8
 40c:	5f000063 	svcpl	0x00000063
 410:	76696475 			; <UNDEFINED> instruction: 0x76696475
 414:	2e336973 	mrccs	9, 1, r6, cr3, cr3, {3}
 418:	00010053 	andeq	r0, r1, r3, asr r0
 41c:	05000000 	streq	r0, [r0, #-0]
 420:	0095c802 	addseq	ip, r5, r2, lsl #16
 424:	01110340 	tsteq	r1, r0, asr #6
 428:	2f2f2f2f 	svccs	0x002f2f2f
 42c:	2f2f342f 	svccs	0x002f342f
 430:	2f322f2f 	svccs	0x00322f2f
 434:	342f2f2f 	strtcc	r2, [pc], #-3887	; 43c <_start-0x40007bc4>
 438:	2f2f2f2f 	svccs	0x002f2f2f
 43c:	2f2f2f2f 	svccs	0x002f2f2f
 440:	2f2f2f2f 	svccs	0x002f2f2f
 444:	302f2f2f 	eorcc	r2, pc, pc, lsr #30
 448:	2f30302f 	svccs	0x0030302f
 44c:	01000202 	tsteq	r0, r2, lsl #4
 450:	00005b01 	andeq	r5, r0, r1, lsl #22
 454:	3e000200 	cdpcc	2, 0, cr0, cr0, cr0, {0}
 458:	02000000 	andeq	r0, r0, #0
 45c:	0d0efb01 	vstreq	d15, [lr, #-4]
 460:	01010100 	mrseq	r0, (UNDEF: 17)
 464:	00000001 	andeq	r0, r0, r1
 468:	01000001 	tsteq	r0, r1
 46c:	6f632f2e 	svcvs	0x00632f2e
 470:	6e6f6d6d 	cdpvs	13, 6, cr6, cr15, cr13, {3}
 474:	636e692f 	cmnvs	lr, #770048	; 0xbc000
 478:	6564756c 	strbvs	r7, [r4, #-1388]!	; 0x56c
 47c:	72690000 	rsbvc	r0, r9, #0
 480:	00632e71 	rsbeq	r2, r3, r1, ror lr
 484:	65000000 	strvs	r0, [r0, #-0]
 488:	6f6e7978 	svcvs	0x006e7978
 48c:	34345f73 	ldrtcc	r5, [r4], #-3955	; 0xf73
 490:	682e3231 	stmdavs	lr!, {r0, r4, r5, r9, ip, sp}
 494:	00000100 	andeq	r0, r0, r0, lsl #2
 498:	02050000 	andeq	r0, r5, #0
 49c:	4000965c 	andmi	r9, r0, ip, asr r6
 4a0:	69011203 	stmdbvs	r1, {r0, r1, r9, ip}
 4a4:	302fbe9f 	mlacc	pc, pc, lr, fp	; <UNPREDICTABLE>
 4a8:	02f3312f 	rscseq	r3, r3, #-1073741813	; 0xc000000b
 4ac:	01010006 	tsteq	r1, r6
 4b0:	0000007f 	andeq	r0, r0, pc, ror r0
 4b4:	001d0002 	andseq	r0, sp, r2
 4b8:	01020000 	mrseq	r0, (UNDEF: 2)
 4bc:	000d0efb 	strdeq	r0, [sp], -fp
 4c0:	01010101 	tsteq	r1, r1, lsl #2
 4c4:	01000000 	mrseq	r0, (UNDEF: 0)
 4c8:	00010000 	andeq	r0, r1, r0
 4cc:	6e69616d 	powvsez	f6, f1, #5.0
 4d0:	0000632e 	andeq	r6, r0, lr, lsr #6
 4d4:	00000000 	andeq	r0, r0, r0
 4d8:	96d00205 	ldrbls	r0, [r0], r5, lsl #4
 4dc:	12034000 	andne	r4, r3, #0
 4e0:	67308401 	ldrvs	r8, [r0, -r1, lsl #8]!
 4e4:	02040200 	andeq	r0, r4, #0, 4
 4e8:	02006606 	andeq	r6, r0, #6291456	; 0x600000
 4ec:	06660104 	strbteq	r0, [r6], -r4, lsl #2
 4f0:	04020081 	streq	r0, [r2], #-129	; 0x81
 4f4:	00660601 	rsbeq	r0, r6, r1, lsl #12
 4f8:	06010402 	streq	r0, [r1], -r2, lsl #8
 4fc:	03410864 	movteq	r0, #6244	; 0x1864
 500:	2f68820a 	svccs	0x0068820a
 504:	0402002f 	streq	r0, [r2], #-47	; 0x2f
 508:	02003301 	andeq	r3, r0, #67108864	; 0x4000000
 50c:	004b0104 	subeq	r0, fp, r4, lsl #2
 510:	08010402 	stmdaeq	r1, {r1, sl}
 514:	04020059 	streq	r0, [r2], #-89	; 0x59
 518:	02006701 	andeq	r6, r0, #262144	; 0x40000
 51c:	004b0104 	subeq	r0, fp, r4, lsl #2
 520:	4b010402 	blmi	41530 <_start-0x3ffc6ad0>
 524:	01040200 	mrseq	r0, R12_usr
 528:	0402004b 	streq	r0, [r2], #-75	; 0x4b
 52c:	04024b01 	streq	r4, [r2], #-2817	; 0xb01
 530:	65010100 	strvs	r0, [r1, #-256]	; 0x100
 534:	02000000 	andeq	r0, r0, #0
 538:	00004200 	andeq	r4, r0, r0, lsl #4
 53c:	fb010200 	blx	40d46 <_start-0x3ffc72ba>
 540:	01000d0e 	tsteq	r0, lr, lsl #26
 544:	00010101 	andeq	r0, r1, r1, lsl #2
 548:	00010000 	andeq	r0, r1, r0
 54c:	72730100 	rsbsvc	r0, r3, #0, 2
 550:	2f2e0063 	svccs	0x002e0063
 554:	6d6d6f63 	stclvs	15, cr6, [sp, #-396]!	; 0xfffffe74
 558:	692f6e6f 	stmdbvs	pc!, {r0, r1, r2, r3, r5, r6, r9, sl, fp, sp, lr}	; <UNPREDICTABLE>
 55c:	756c636e 	strbvc	r6, [ip, #-878]!	; 0x36e
 560:	00006564 	andeq	r6, r0, r4, ror #10
 564:	2e6d7770 	mcrcs	7, 3, r7, cr13, cr0, {3}
 568:	00010063 	andeq	r0, r1, r3, rrx
 56c:	79786500 	ldmdbvc	r8!, {r8, sl, sp, lr}^
 570:	5f736f6e 	svcpl	0x00736f6e
 574:	32313434 	eorscc	r3, r1, #52, 8	; 0x34000000
 578:	0200682e 	andeq	r6, r0, #3014656	; 0x2e0000
 57c:	00000000 	andeq	r0, r0, r0
 580:	97e80205 	strbls	r0, [r8, r5, lsl #4]!
 584:	0c034000 	stceq	0, cr4, [r3], {-0}
 588:	bbbc4c01 	bllt	fef13594 <_ctype+0xbef09014>
 58c:	bb6867bc 	bllt	1a1a484 <_start-0x3e5edb7c>
 590:	9f4ba3bb 	svcls	0x004ba3bb
 594:	029f4b86 	addseq	r4, pc, #137216	; 0x21800
 598:	01010008 	tsteq	r1, r8
 59c:	0000006e 	andeq	r0, r0, lr, rrx
 5a0:	00420002 	subeq	r0, r2, r2
 5a4:	01020000 	mrseq	r0, (UNDEF: 2)
 5a8:	000d0efb 	strdeq	r0, [sp], -fp
 5ac:	01010101 	tsteq	r1, r1, lsl #2
 5b0:	01000000 	mrseq	r0, (UNDEF: 0)
 5b4:	73010000 	movwvc	r0, #4096	; 0x1000
 5b8:	2e006372 	mcrcs	3, 0, r6, cr0, cr2, {3}
 5bc:	6d6f632f 	stclvs	3, cr6, [pc, #-188]!	; 508 <_start-0x40007af8>
 5c0:	2f6e6f6d 	svccs	0x006e6f6d
 5c4:	6c636e69 	stclvs	14, cr6, [r3], #-420	; 0xfffffe5c
 5c8:	00656475 	rsbeq	r6, r5, r5, ror r4
 5cc:	79656b00 	stmdbvc	r5!, {r8, r9, fp, sp, lr}^
 5d0:	0100632e 	tsteq	r0, lr, lsr #6
 5d4:	78650000 	stmdavc	r5!, {}^	; <UNPREDICTABLE>
 5d8:	736f6e79 	cmnvc	pc, #1936	; 0x790
 5dc:	3134345f 	teqcc	r4, pc, asr r4
 5e0:	00682e32 	rsbeq	r2, r8, r2, lsr lr
 5e4:	00000002 	andeq	r0, r0, r2
 5e8:	ec020500 	cfstr32	mvfx0, [r2], {-0}
 5ec:	03400098 	movteq	r0, #152	; 0x98
 5f0:	a04d0129 	subge	r0, sp, r9, lsr #2
 5f4:	68a2bea1 	stmiavs	r2!, {r0, r5, r7, r9, sl, fp, ip, sp, pc}
 5f8:	6768f5a0 	strbvs	pc, [r8, -r0, lsr #11]!	; <UNPREDICTABLE>
 5fc:	4b4c3f08 	blmi	1310224 <_start-0x3ecf7ddc>
 600:	699f9f4d 	ldmibvs	pc, {r0, r2, r3, r6, r8, r9, sl, fp, ip, pc}	; <UNPREDICTABLE>
 604:	9f4d4b4d 	svcls	0x004d4b4d
 608:	0006029f 	muleq	r6, pc, r2	; <UNPREDICTABLE>
 60c:	00760101 	rsbseq	r0, r6, r1, lsl #2
 610:	00020000 	andeq	r0, r2, r0
 614:	00000042 	andeq	r0, r0, r2, asr #32
 618:	0efb0102 	cdpeq	1, 15, cr0, cr11, cr2, {0}
 61c:	0101000d 	tsteq	r1, sp
 620:	00000101 	andeq	r0, r0, r1, lsl #2
 624:	00000100 	andeq	r0, r0, r0, lsl #2
 628:	63727301 	cmnvs	r2, #67108864	; 0x4000000
 62c:	632f2e00 	teqvs	pc, #0, 28
 630:	6f6d6d6f 	svcvs	0x006d6d6f
 634:	6e692f6e 	cdpvs	15, 6, cr2, cr9, cr14, {3}
 638:	64756c63 	ldrbtvs	r6, [r5], #-3171	; 0xc63
 63c:	6c000065 	stcvs	0, cr0, [r0], {101}	; 0x65
 640:	632e6465 	teqvs	lr, #1694498816	; 0x65000000
 644:	00000100 	andeq	r0, r0, r0, lsl #2
 648:	6e797865 	cdpvs	8, 7, cr7, cr9, cr5, {3}
 64c:	345f736f 	ldrbcc	r7, [pc], #-879	; 654 <_start-0x400079ac>
 650:	2e323134 	mrccs	1, 1, r3, cr2, cr4, {1}
 654:	00020068 	andeq	r0, r2, r8, rrx
 658:	05000000 	streq	r0, [r0, #-0]
 65c:	009a6002 	addseq	r6, sl, r2
 660:	01090340 	tsteq	r9, r0, asr #6
 664:	bbbbbb4b 	bllt	feeef398 <_ctype+0xbeee4e18>
 668:	bc9f9f9f 	ldclt	15, cr9, [pc], {159}	; 0x9f
 66c:	309ff583 	addscc	pc, pc, r3, lsl #11
 670:	309f319f 	umullscc	r3, pc, pc, r1	; <UNPREDICTABLE>
 674:	bc30309f 	ldclt	0, cr3, [r0], #-636	; 0xfffffd84
 678:	309ff583 	addscc	pc, pc, r3, lsl #11
 67c:	309f309f 	umullscc	r3, pc, pc, r0	; <UNPREDICTABLE>
 680:	0230309f 	eorseq	r3, r0, #159	; 0x9f
 684:	0101000c 	tsteq	r1, ip
 688:	00000046 	andeq	r0, r0, r6, asr #32
 68c:	00200002 	eoreq	r0, r0, r2
 690:	01020000 	mrseq	r0, (UNDEF: 2)
 694:	000d0efb 	strdeq	r0, [sp], -fp
 698:	01010101 	tsteq	r1, r1, lsl #2
 69c:	01000000 	mrseq	r0, (UNDEF: 0)
 6a0:	73010000 	movwvc	r0, #4096	; 0x1000
 6a4:	00006372 	andeq	r6, r0, r2, ror r3
 6a8:	2e636461 	cdpcs	4, 6, cr6, cr3, cr1, {3}
 6ac:	00010063 	andeq	r0, r1, r3, rrx
 6b0:	05000000 	streq	r0, [r0, #-0]
 6b4:	009c5c02 	addseq	r5, ip, r2, lsl #24
 6b8:	010c0340 	tsteq	ip, r0, asr #6
 6bc:	9f68a04c 	svcls	0x0068a04c
 6c0:	00a06adb 	ldrdeq	r6, [r0], fp	; <UNPREDICTABLE>
 6c4:	06010402 	streq	r0, [r1], -r2, lsl #8
 6c8:	9f9f062e 	svcls	0x009f062e
 6cc:	000c022f 	andeq	r0, ip, pc, lsr #4
 6d0:	Address 0x000006d0 is out of bounds.


Disassembly of section .debug_info:

00000000 <.debug_info>:
       0:	00000098 	muleq	r0, r8, r0
       4:	00000002 	andeq	r0, r0, r2
       8:	01040000 	mrseq	r0, (UNDEF: 4)
       c:	00000000 	andeq	r0, r0, r0
      10:	40008000 	andmi	r8, r0, r0
      14:	40008134 	andmi	r8, r0, r4, lsr r1
      18:	72617473 	rsbvc	r7, r1, #1929379840	; 0x73000000
      1c:	74732f74 	ldrbtvc	r2, [r3], #-3956	; 0xf74
      20:	2e747261 	cdpcs	2, 7, cr7, cr4, cr1, {3}
      24:	682f0053 	stmdavs	pc!, {r0, r1, r4, r6}	; <UNPREDICTABLE>
      28:	2f656d6f 	svccs	0x00656d6f
      2c:	646c6977 	strbtvs	r6, [ip], #-2423	; 0x977
      30:	6b6f6f62 	blvs	1bdbdc0 <_start-0x3e42c240>
      34:	636f442f 	cmnvs	pc, #788529152	; 0x2f000000
      38:	6e656d75 	mcrvs	13, 3, r6, cr5, cr5, {3}
      3c:	302f7374 	eorcc	r7, pc, r4, ror r3	; <UNPREDICTABLE>
      40:	8de52e34 	stclhi	14, cr2, [r5, #208]!	; 0xd0
      44:	85b8e68e 	ldrhi	lr, [r8, #1678]!	; 0x68e
      48:	e89cbfe8 	ldm	ip, {r3, r5, r6, r7, r8, r9, sl, fp, ip, sp, pc}
      4c:	9fe581a7 	svcls	0x00e581a7
      50:	adaee8b9 	stcge	8, cr14, [lr, #740]!	; 0x2e4
      54:	e894ace7 	ldm	r4, {r0, r1, r2, r5, r6, r7, sl, fp, sp, pc}
      58:	302fb0ae 	eorcc	fp, pc, lr, lsr #1
      5c:	72612e36 	rsbvc	r2, r1, #864	; 0x360
      60:	2e342f6d 	cdpcs	15, 3, cr2, cr4, cr13, {3}
      64:	e6b8a3e8 	ldrt	sl, [r8], r8, ror #7
      68:	a8e7ba9c 	stmiage	r7!, {r2, r3, r4, r7, r9, fp, ip, sp, pc}^
      6c:	8fbae58b 	svchi	0x00bae58b
      70:	e42e322f 	strt	r3, [lr], #-559	; 0x22f
      74:	bae4aab8 	blt	ff92ab5c <_ctype+0xbf9205dc>
      78:	a3bbe4ba 			; <UNDEFINED> instruction: 0xa3bbe4ba
      7c:	2f81a0e7 	svccs	0x0081a0e7
      80:	64612e35 	strbtvs	r2, [r1], #-3637	; 0xe35
      84:	2e312f63 	cdpcs	15, 3, cr2, cr1, cr3, {3}
      88:	00636461 	rsbeq	r6, r3, r1, ror #8
      8c:	20554e47 	subscs	r4, r5, r7, asr #28
      90:	32205341 	eorcc	r5, r0, #67108865	; 0x4000001
      94:	2e33322e 	cdpcs	2, 3, cr3, cr3, cr14, {1}
      98:	80010031 	andhi	r0, r1, r1, lsr r0
      9c:	000004b1 			; <UNDEFINED> instruction: 0x000004b1
      a0:	00140002 	andseq	r0, r4, r2
      a4:	01040000 	mrseq	r0, (UNDEF: 4)
      a8:	00000063 	andeq	r0, r0, r3, rrx
      ac:	00008f01 	andeq	r8, r0, r1, lsl #30
      b0:	0000c700 	andeq	ip, r0, r0, lsl #14
      b4:	00814000 	addeq	r4, r1, r0
      b8:	00931840 	addseq	r1, r3, r0, asr #16
      bc:	00008640 	andeq	r8, r0, r0, asr #12
      c0:	00370200 	eorseq	r0, r7, r0, lsl #4
      c4:	28030000 	stmdacs	r3, {}	; <UNPREDICTABLE>
      c8:	00000030 	andeq	r0, r0, r0, lsr r0
      cc:	00000403 	andeq	r0, r0, r3, lsl #8
      d0:	3e020000 	cdpcc	0, 0, cr0, cr2, cr0, {0}
      d4:	03000000 	movweq	r0, #0
      d8:	00002566 	andeq	r2, r0, r6, ror #10
      dc:	07040400 	streq	r0, [r4, -r0, lsl #8]
      e0:	00000074 	andeq	r0, r0, r4, ror r0
      e4:	00002d05 	andeq	r2, r0, r5, lsl #26
      e8:	01440100 	mrseq	r0, (UNDEF: 84)
      ec:	00000071 	andeq	r0, r0, r1, ror r0
      f0:	40008140 	andmi	r8, r0, r0, asr #2
      f4:	40008190 	mulmi	r0, r0, r1
      f8:	00000000 	andeq	r0, r0, r0
      fc:	00000071 	andeq	r0, r0, r1, ror r0
     100:	01006306 	tsteq	r0, r6, lsl #6
     104:	00007144 	andeq	r7, r0, r4, asr #2
     108:	78910200 	ldmvc	r1, {r9}
     10c:	08010400 	stmdaeq	r1, {sl}
     110:	00000050 	andeq	r0, r0, r0, asr r0
     114:	00120107 	andseq	r0, r2, r7, lsl #2
     118:	07020000 	streq	r0, [r2, -r0]
     11c:	0000db01 	andeq	sp, r0, r1, lsl #22
     120:	00819000 	addeq	r9, r1, r0
     124:	00833440 	addeq	r3, r3, r0, asr #8
     128:	00002c40 	andeq	r2, r0, r0, asr #24
     12c:	0000db00 	andeq	sp, r0, r0, lsl #22
     130:	70630600 	rsbvc	r0, r3, r0, lsl #12
     134:	e2070200 	and	r0, r7, #0, 4
     138:	02000000 	andeq	r0, r0, #0
     13c:	43086c91 	movwmi	r6, #35985	; 0x8c91
     140:	02000001 	andeq	r0, r0, #1
     144:	0000f407 	andeq	pc, r0, r7, lsl #8
     148:	68910200 	ldmvs	r1, {r9}
     14c:	0000a308 	andeq	sl, r0, r8, lsl #6
     150:	41070200 	mrsmi	r0, (UNDEF: 39)
     154:	02000000 	andeq	r0, r0, #0
     158:	2d096491 	cfstrscs	mvf6, [r9, #-580]	; 0xfffffdbc
     15c:	02000001 	andeq	r0, r0, #1
     160:	0000db09 	andeq	sp, r0, r9, lsl #22
     164:	74910200 	ldrvc	r0, [r1], #512	; 0x200
     168:	00002109 	andeq	r2, r0, r9, lsl #2
     16c:	db090200 	blle	240974 <_start-0x3fdc768c>
     170:	02000000 	andeq	r0, r0, #0
     174:	04007091 	streq	r7, [r0], #-145	; 0x91
     178:	006f0704 	rsbeq	r0, pc, r4, lsl #14
     17c:	040a0000 	streq	r0, [sl], #-0
     180:	000000e8 	andeq	r0, r0, r8, ror #1
     184:	0000ed0b 	andeq	lr, r0, fp, lsl #26
     188:	08010400 	stmdaeq	r1, {sl}
     18c:	00000059 	andeq	r0, r0, r9, asr r0
     190:	00fa040a 	rscseq	r0, sl, sl, lsl #8
     194:	040a0000 	streq	r0, [sl], #-0
     198:	000000ed 	andeq	r0, r0, sp, ror #1
     19c:	00810107 	addeq	r0, r1, r7, lsl #2
     1a0:	22020000 	andcs	r0, r2, #0
     1a4:	00014701 	andeq	r4, r1, r1, lsl #14
     1a8:	00833400 	addeq	r3, r3, r0, lsl #8
     1ac:	0083a040 	addeq	sl, r3, r0, asr #32
     1b0:	00005840 	andeq	r5, r0, r0, asr #16
     1b4:	00014700 	andeq	r4, r1, r0, lsl #14
     1b8:	70630600 	rsbvc	r0, r3, r0, lsl #12
     1bc:	e2220200 	eor	r0, r2, #0, 4
     1c0:	02000000 	andeq	r0, r0, #0
     1c4:	43087491 	movwmi	r7, #33937	; 0x8491
     1c8:	02000001 	andeq	r0, r0, #1
     1cc:	0000f422 	andeq	pc, r0, r2, lsr #8
     1d0:	70910200 	addsvc	r0, r1, r0, lsl #4
     1d4:	0000a308 	andeq	sl, r0, r8, lsl #6
     1d8:	41220200 	teqmi	r2, r0, lsl #4
     1dc:	02000000 	andeq	r0, r0, #0
     1e0:	04006c91 	streq	r6, [r0], #-3217	; 0xc91
     1e4:	017a0504 	cmneq	sl, r4, lsl #10
     1e8:	bd050000 	stclt	0, cr0, [r5, #-0]
     1ec:	02000000 	andeq	r0, r0, #0
     1f0:	0183014a 	orreq	r0, r3, sl, asr #2
     1f4:	83a00000 	movhi	r0, #0
     1f8:	84344000 	ldrthi	r4, [r4], #-0
     1fc:	00844000 	addeq	r4, r4, r0
     200:	01830000 	orreq	r0, r3, r0
     204:	73060000 	movwvc	r0, #24576	; 0x6000
     208:	8a4a0200 	bhi	1280a10 <_start-0x3ed875f0>
     20c:	02000001 	andeq	r0, r0, #1
     210:	690c7491 	stmdbvs	ip, {r0, r4, r7, sl, ip, sp, lr}
     214:	834c0200 	movthi	r0, #49664	; 0xc200
     218:	02000001 	andeq	r0, r0, #1
     21c:	0d007891 	stceq	8, cr7, [r0, #-580]	; 0xfffffdbc
     220:	6e690504 	cdpvs	5, 6, cr0, cr9, cr4, {0}
     224:	040a0074 	streq	r0, [sl], #-116	; 0x74
     228:	000000e2 	andeq	r0, r0, r2, ror #1
     22c:	00017305 	andeq	r7, r1, r5, lsl #6
     230:	016f0200 	cmneq	pc, r0, lsl #4
     234:	000000fa 	strdeq	r0, [r0], -sl
     238:	40008434 	andmi	r8, r0, r4, lsr r4
     23c:	400088c8 	andmi	r8, r0, r8, asr #17
     240:	000000b0 	strheq	r0, [r0], -r0	; <UNPREDICTABLE>
     244:	00000260 	andeq	r0, r0, r0, ror #4
     248:	72747306 	rsbsvc	r7, r4, #402653184	; 0x18000000
     24c:	fa6f0200 	blx	1bc0a54 <_start-0x3e4475ac>
     250:	03000000 	movweq	r0, #0
     254:	067f9c91 			; <UNDEFINED> instruction: 0x067f9c91
     258:	006d756e 	rsbeq	r7, sp, lr, ror #10
     25c:	01476f02 	cmpeq	r7, r2, lsl #30
     260:	91030000 	mrsls	r0, (UNDEF: 3)
     264:	a3087f98 	movwge	r7, #36760	; 0x8f98
     268:	02000000 	andeq	r0, r0, #0
     26c:	0000416f 	andeq	r4, r0, pc, ror #2
     270:	94910300 	ldrls	r0, [r1], #768	; 0x300
     274:	00ae087f 	adceq	r0, lr, pc, ror r8
     278:	6f020000 	svcvs	0x00020000
     27c:	00000183 	andeq	r0, r0, r3, lsl #3
     280:	7f909103 	svcvc	0x00909103
     284:	00004608 	andeq	r4, r0, r8, lsl #12
     288:	836f0200 	cmnhi	pc, #0, 4
     28c:	02000001 	andeq	r0, r0, #1
     290:	4a080091 	bmi	2004dc <_start-0x3fe07b24>
     294:	02000001 	andeq	r0, r0, #1
     298:	0001836f 	andeq	r8, r1, pc, ror #6
     29c:	04910200 	ldreq	r0, [r1], #512	; 0x200
     2a0:	0200630c 	andeq	r6, r0, #12, 6	; 0x30000000
     2a4:	0000ed72 	andeq	lr, r0, r2, ror sp
     2a8:	6b910200 	blvs	fe440ab0 <_ctype+0xbe436530>
     2ac:	00005e09 	andeq	r5, r0, r9, lsl #28
     2b0:	ed720200 	lfm	f0, 2, [r2, #-0]
     2b4:	02000000 	andeq	r0, r0, #0
     2b8:	740c7791 	strvc	r7, [ip], #-1937	; 0x791
     2bc:	0200706d 	andeq	r7, r0, #109	; 0x6d
     2c0:	00026072 	andeq	r6, r2, r2, ror r0
     2c4:	a0910300 	addsge	r0, r1, r0, lsl #6
     2c8:	014f097f 	hvceq	61599	; 0xf09f
     2cc:	73020000 	movwvc	r0, #8192	; 0x2000
     2d0:	000000e2 	andeq	r0, r0, r2, ror #1
     2d4:	0c709102 	ldfeqp	f1, [r0], #-8
     2d8:	74020069 	strvc	r0, [r2], #-105	; 0x69
     2dc:	00000183 	andeq	r0, r0, r3, lsl #3
     2e0:	0e6c9102 	lgneqe	f1, f2
     2e4:	400085f8 	strdmi	r8, [r0], -r8	; <UNPREDICTABLE>
     2e8:	4000862c 	andmi	r8, r0, ip, lsr #12
     2ec:	00018309 	andeq	r8, r1, r9, lsl #6
     2f0:	83960200 	orrshi	r0, r6, #0, 4
     2f4:	02000001 	andeq	r0, r0, #1
     2f8:	00006491 	muleq	r0, r1, r4
     2fc:	0000ed0f 	andeq	lr, r0, pc, lsl #26
     300:	00027000 	andeq	r7, r2, r0
     304:	00411000 	subeq	r1, r1, r0
     308:	00410000 	subeq	r0, r1, r0
     30c:	013b0107 	teqeq	fp, r7, lsl #2
     310:	b4020000 	strlt	r0, [r2], #-0
     314:	00004101 	andeq	r4, r0, r1, lsl #2
     318:	0088c800 	addeq	ip, r8, r0, lsl #16
     31c:	00894840 	addeq	r4, r9, r0, asr #16
     320:	0000dc40 	andeq	sp, r0, r0, asr #24
     324:	0002b500 	andeq	fp, r2, r0, lsl #10
     328:	00730600 	rsbseq	r0, r3, r0, lsl #12
     32c:	00e2b402 	rsceq	fp, r2, r2, lsl #8
     330:	91020000 	mrsls	r0, (UNDEF: 2)
     334:	00270874 	eoreq	r0, r7, r4, ror r8
     338:	b4020000 	strlt	r0, [r2], #-0
     33c:	00000041 	andeq	r0, r0, r1, asr #32
     340:	0c709102 	ldfeqp	f1, [r0], #-8
     344:	02006373 	andeq	r6, r0, #-872415231	; 0xcc000001
     348:	0000e2b6 			; <UNDEFINED> instruction: 0x0000e2b6
     34c:	78910200 	ldmvc	r1, {r9}
     350:	89010700 	stmdbhi	r1, {r8, r9, sl}
     354:	02000001 	andeq	r0, r0, #1
     358:	018301bc 			; <UNDEFINED> instruction: 0x018301bc
     35c:	89480000 	stmdbhi	r8, {}^	; <UNPREDICTABLE>
     360:	92704000 	rsbsls	r4, r0, #0
     364:	01084000 	mrseq	r4, (UNDEF: 8)
     368:	03c50000 	biceq	r0, r5, #0
     36c:	62060000 	andvs	r0, r6, #0
     370:	02006675 	andeq	r6, r0, #122683392	; 0x7500000
     374:	0000fabc 			; <UNDEFINED> instruction: 0x0000fabc
     378:	44910200 	ldrmi	r0, [r1], #512	; 0x200
     37c:	746d6606 	strbtvc	r6, [sp], #-1542	; 0x606
     380:	e2bc0200 	adcs	r0, ip, #0, 4
     384:	02000000 	andeq	r0, r0, #0
     388:	6e084091 	mcrvs	0, 0, r4, cr8, cr1, {4}
     38c:	02000001 	andeq	r0, r0, #1
     390:	000036bc 			; <UNDEFINED> instruction: 0x000036bc
     394:	bc910300 	ldclt	3, cr0, [r1], {0}
     398:	656c0c7f 	strbvs	r0, [ip, #-3199]!	; 0xc7f
     39c:	be02006e 	cdplt	0, 0, cr0, cr2, cr14, {3}
     3a0:	00000183 	andeq	r0, r0, r3, lsl #3
     3a4:	0c509102 	ldfeqp	f1, [r0], {2}
     3a8:	006d756e 	rsbeq	r7, sp, lr, ror #10
     3ac:	00dbc202 	sbcseq	ip, fp, r2, lsl #4
     3b0:	91020000 	mrsls	r0, (UNDEF: 2)
     3b4:	00690c74 	rsbeq	r0, r9, r4, ror ip
     3b8:	0183c402 	orreq	ip, r3, r2, lsl #8
     3bc:	91020000 	mrsls	r0, (UNDEF: 2)
     3c0:	00a30970 	adceq	r0, r3, r0, ror r9
     3c4:	c4020000 	strgt	r0, [r2], #-0
     3c8:	00000183 	andeq	r0, r0, r3, lsl #3
     3cc:	0c6c9102 	stfeqp	f1, [ip], #-8
     3d0:	00727473 	rsbseq	r7, r2, r3, ror r4
     3d4:	00fac502 	rscseq	ip, sl, r2, lsl #10
     3d8:	91020000 	mrsls	r0, (UNDEF: 2)
     3dc:	00730c68 	rsbseq	r0, r3, r8, ror #24
     3e0:	00e2c602 	rsceq	ip, r2, r2, lsl #12
     3e4:	91020000 	mrsls	r0, (UNDEF: 2)
     3e8:	00a80964 	adceq	r0, r8, r4, ror #18
     3ec:	c8020000 	stmdagt	r2, {}	; <UNPREDICTABLE>
     3f0:	00000183 	andeq	r0, r0, r3, lsl #3
     3f4:	09609102 	stmdbeq	r0!, {r1, r8, ip, pc}^
     3f8:	00000162 	andeq	r0, r0, r2, ror #2
     3fc:	0183ca02 	orreq	ip, r3, r2, lsl #20
     400:	91020000 	mrsls	r0, (UNDEF: 2)
     404:	0046095c 	subeq	r0, r6, ip, asr r9
     408:	cb020000 	blgt	80410 <_start-0x3ff87bf0>
     40c:	00000183 	andeq	r0, r0, r3, lsl #3
     410:	09589102 	ldmdbeq	r8, {r1, r8, ip, pc}^
     414:	000000b3 	strheq	r0, [r0], -r3
     418:	0183cd02 	orreq	ip, r3, r2, lsl #26
     41c:	91020000 	mrsls	r0, (UNDEF: 2)
     420:	01341154 	teqeq	r4, r4, asr r1
     424:	d7020000 	strle	r0, [r2, -r0]
     428:	400089a4 	andmi	r8, r0, r4, lsr #19
     42c:	008ffc12 	addeq	pc, pc, r2, lsl ip	; <UNPREDICTABLE>
     430:	00902440 	addseq	r2, r0, r0, asr #8
     434:	0003ac40 	andeq	sl, r3, r0, asr #24
     438:	70691300 	rsbvc	r1, r9, r0, lsl #6
     43c:	01350200 	teqeq	r5, r0, lsl #4
     440:	000003c5 	andeq	r0, r0, r5, asr #7
     444:	004c9102 	subeq	r9, ip, r2, lsl #2
     448:	0090280e 	addseq	r2, r0, lr, lsl #16
     44c:	00905040 	addseq	r5, r0, r0, asr #32
     450:	70691340 	rsbvc	r1, r9, r0, asr #6
     454:	01380200 	teqeq	r8, r0, lsl #4
     458:	000003cb 	andeq	r0, r0, fp, asr #7
     45c:	00489102 	subeq	r9, r8, r2, lsl #2
     460:	47040a00 	strmi	r0, [r4, -r0, lsl #20]
     464:	0a000001 	beq	470 <_start-0x40007b90>
     468:	00018304 	andeq	r8, r1, r4, lsl #6
     46c:	8a011400 	bhi	45474 <_start-0x3ffc2b8c>
     470:	02000001 	andeq	r0, r0, #1
     474:	83010173 	movwhi	r0, #4467	; 0x1173
     478:	70000001 	andvc	r0, r0, r1
     47c:	c0400092 	umaalgt	r0, r0, r2, r0
     480:	34400092 	strbcc	r0, [r0], #-146	; 0x92
     484:	2b000001 	blcs	490 <_start-0x40007b70>
     488:	15000004 	strne	r0, [r0, #-4]
     48c:	00667562 	rsbeq	r7, r6, r2, ror #10
     490:	fa017302 	blx	5d0a0 <_start-0x3ffaaf60>
     494:	02000000 	andeq	r0, r0, #0
     498:	66156091 			; <UNDEFINED> instruction: 0x66156091
     49c:	0200746d 	andeq	r7, r0, #1828716544	; 0x6d000000
     4a0:	00e20173 	rsceq	r0, r2, r3, ror r1
     4a4:	91020000 	mrsls	r0, (UNDEF: 2)
     4a8:	6e171674 	mrcvs	6, 0, r1, cr7, cr4, {3}
     4ac:	02000001 	andeq	r0, r0, #1
     4b0:	00360175 	eorseq	r0, r6, r5, ror r1
     4b4:	91020000 	mrsls	r0, (UNDEF: 2)
     4b8:	00691364 	rsbeq	r1, r9, r4, ror #6
     4bc:	83017602 	movwhi	r7, #5634	; 0x1602
     4c0:	02000001 	andeq	r0, r0, #1
     4c4:	18006891 	stmdane	r0, {r0, r4, r7, fp, sp, lr}
     4c8:	00018b01 	andeq	r8, r1, r1, lsl #22
     4cc:	017e0200 	cmneq	lr, r0, lsl #4
     4d0:	0092c001 	addseq	ip, r2, r1
     4d4:	00931840 	addseq	r1, r3, r0, asr #16
     4d8:	00016c40 	andeq	r6, r1, r0, asr #24
     4dc:	00048200 	andeq	r8, r4, r0, lsl #4
     4e0:	6d661500 	cfstr64vs	mvdx1, [r6, #-0]
     4e4:	7e020074 	mcrvc	0, 0, r0, cr2, cr4, {3}
     4e8:	0000e201 	andeq	lr, r0, r1, lsl #4
     4ec:	70910200 	addsvc	r0, r1, r0, lsl #4
     4f0:	016e1716 	cmneq	lr, r6, lsl r7
     4f4:	80020000 	andhi	r0, r2, r0
     4f8:	00003601 	andeq	r3, r0, r1, lsl #12
     4fc:	60910200 	addsvs	r0, r1, r0, lsl #4
     500:	02006913 	andeq	r6, r0, #311296	; 0x4c000
     504:	00410181 	subeq	r0, r1, r1, lsl #3
     508:	91020000 	mrsls	r0, (UNDEF: 2)
     50c:	01561764 	cmpeq	r6, r4, ror #14
     510:	82020000 	andhi	r0, r2, #0
     514:	00048201 	andeq	r8, r4, r1, lsl #4
     518:	fc910300 	ldc2	3, cr0, [r1], {0}
     51c:	ed0f007e 	stc	0, cr0, [pc, #-504]	; 32c <_start-0x40007cd4>
     520:	92000000 	andls	r0, r0, #0
     524:	10000004 	andne	r0, r0, r4
     528:	00000041 	andeq	r0, r0, r1, asr #32
     52c:	710f0063 	tstvc	pc, r3, rrx
     530:	a2000000 	andge	r0, r0, #0
     534:	10000004 	andne	r0, r0, r4
     538:	00000041 	andeq	r0, r0, r1, asr #32
     53c:	481900ff 	ldmdami	r9, {r0, r1, r2, r3, r4, r5, r6, r7}
     540:	01000001 	tsteq	r0, r1
     544:	00049211 	andeq	r9, r4, r1, lsl r2
     548:	03050100 	movweq	r0, #20736	; 0x5100
     54c:	4000a580 	andmi	sl, r0, r0, lsl #11
     550:	00025f00 	andeq	r5, r2, r0, lsl #30
     554:	76000200 	strvc	r0, [r0], -r0, lsl #4
     558:	04000001 	streq	r0, [r0], #-1
     55c:	00006301 	andeq	r6, r0, r1, lsl #6
     560:	022e0100 	eoreq	r0, lr, #0, 2
     564:	00c70000 	sbceq	r0, r7, r0
     568:	93180000 	tstls	r8, #0
     56c:	95184000 	ldrls	r4, [r8, #-0]
     570:	02dd4000 	sbcseq	r4, sp, #0
     574:	04020000 	streq	r0, [r2], #-0
     578:	00007407 	andeq	r7, r0, r7, lsl #8
     57c:	02180300 	andseq	r0, r8, #0, 6
     580:	00900189 	addseq	r0, r0, r9, lsl #3
     584:	43040000 	movwmi	r0, #16384	; 0x4000
     588:	02004e4f 	andeq	r4, r0, #1264	; 0x4f0
     58c:	0025018a 	eoreq	r0, r5, sl, lsl #3
     590:	23020000 	movwcs	r0, #8192	; 0x2000
     594:	41440400 	cmpmi	r4, r0, lsl #8
     598:	8b020054 	blhi	806f0 <_start-0x3ff87910>
     59c:	00002501 	andeq	r2, r0, r1, lsl #10
     5a0:	04230200 	strteq	r0, [r3], #-512	; 0x200
     5a4:	44555004 	ldrbmi	r5, [r5], #-4
     5a8:	018c0200 	orreq	r0, ip, r0, lsl #4
     5ac:	00000025 	andeq	r0, r0, r5, lsr #32
     5b0:	04082302 	streq	r2, [r8], #-770	; 0x302
     5b4:	00565244 	subseq	r5, r6, r4, asr #4
     5b8:	25018d02 	strcs	r8, [r1, #-3330]	; 0xd02
     5bc:	02000000 	andeq	r0, r0, #0
     5c0:	e1050c23 	tst	r5, r3, lsr #24
     5c4:	02000001 	andeq	r0, r0, #1
     5c8:	0025018e 	eoreq	r0, r5, lr, lsl #3
     5cc:	23020000 	movwcs	r0, #8192	; 0x2000
     5d0:	02270510 	eoreq	r0, r7, #16, 10	; 0x4000000
     5d4:	8f020000 	svchi	0x00020000
     5d8:	00002501 	andeq	r2, r0, r1, lsl #10
     5dc:	14230200 	strtne	r0, [r3], #-512	; 0x200
     5e0:	02130600 	andseq	r0, r3, #0, 12
     5e4:	90020000 	andls	r0, r2, r0
     5e8:	00002c01 	andeq	r2, r0, r1, lsl #24
     5ec:	023c0300 	eorseq	r0, ip, #0, 6
     5f0:	018703c9 	orreq	r0, r7, r9, asr #7
     5f4:	0c050000 	stceq	0, cr0, [r5], {-0}
     5f8:	02000002 	andeq	r0, r0, #2
     5fc:	002503ca 	eoreq	r0, r5, sl, asr #7
     600:	23020000 	movwcs	r0, #8192	; 0x2000
     604:	02180500 	andseq	r0, r8, #0, 10
     608:	cb020000 	blgt	80610 <_start-0x3ff879f0>
     60c:	00002503 	andeq	r2, r0, r3, lsl #10
     610:	04230200 	strteq	r0, [r3], #-512	; 0x200
     614:	0001d405 	andeq	sp, r1, r5, lsl #8
     618:	03cc0200 	biceq	r0, ip, #0, 4
     61c:	00000025 	andeq	r0, r0, r5, lsr #32
     620:	05082302 	streq	r2, [r8, #-770]	; 0x302
     624:	00000245 	andeq	r0, r0, r5, asr #4
     628:	2503cd02 	strcs	ip, [r3, #-3330]	; 0xd02
     62c:	02000000 	andeq	r0, r0, #0
     630:	bc050c23 	stclt	12, cr0, [r5], {35}	; 0x23
     634:	02000001 	andeq	r0, r0, #1
     638:	002503ce 	eoreq	r0, r5, lr, asr #7
     63c:	23020000 	movwcs	r0, #8192	; 0x2000
     640:	021e0510 	andseq	r0, lr, #16, 10	; 0x4000000
     644:	cf020000 	svcgt	0x00020000
     648:	00002503 	andeq	r2, r0, r3, lsl #10
     64c:	14230200 	strtne	r0, [r3], #-512	; 0x200
     650:	0001b405 	andeq	fp, r1, r5, lsl #8
     654:	03d00200 	bicseq	r0, r0, #0, 4
     658:	00000025 	andeq	r0, r0, r5, lsr #32
     65c:	05182302 	ldreq	r2, [r8, #-770]	; 0x302
     660:	000001ed 	andeq	r0, r0, sp, ror #3
     664:	2503d102 	strcs	sp, [r3, #-258]	; 0x102
     668:	02000000 	andeq	r0, r0, #0
     66c:	db051c23 	blle	147700 <_start-0x3fec0900>
     670:	02000001 	andeq	r0, r0, #1
     674:	002503d2 	ldrdeq	r0, [r5], -r2	; <UNPREDICTABLE>
     678:	23020000 	movwcs	r0, #8192	; 0x2000
     67c:	024c0520 	subeq	r0, ip, #32, 10	; 0x8000000
     680:	d3020000 	movwle	r0, #8192	; 0x2000
     684:	00002503 	andeq	r2, r0, r3, lsl #10
     688:	24230200 	strtcs	r0, [r3], #-512	; 0x200
     68c:	0001a705 	andeq	sl, r1, r5, lsl #14
     690:	03d40200 	bicseq	r0, r4, #0, 4
     694:	00000025 	andeq	r0, r0, r5, lsr #32
     698:	05282302 	streq	r2, [r8, #-770]!	; 0x302
     69c:	00000252 	andeq	r0, r0, r2, asr r2
     6a0:	2503d502 	strcs	sp, [r3, #-1282]	; 0x502
     6a4:	02000000 	andeq	r0, r0, #0
     6a8:	98052c23 	stmdals	r5, {r0, r1, r5, sl, fp, sp}
     6ac:	02000001 	andeq	r0, r0, #1
     6b0:	002503d6 	ldrdeq	r0, [r5], -r6	; <UNPREDICTABLE>
     6b4:	23020000 	movwcs	r0, #8192	; 0x2000
     6b8:	019f0530 	orrseq	r0, pc, r0, lsr r5	; <UNPREDICTABLE>
     6bc:	d7020000 	strle	r0, [r2, -r0]
     6c0:	00002503 	andeq	r2, r0, r3, lsl #10
     6c4:	34230200 	strtcc	r0, [r3], #-512	; 0x200
     6c8:	0001f505 	andeq	pc, r1, r5, lsl #10
     6cc:	03d80200 	bicseq	r0, r8, #0, 4
     6d0:	00000025 	andeq	r0, r0, r5, lsr #32
     6d4:	00382302 	eorseq	r2, r8, r2, lsl #6
     6d8:	00019206 	andeq	r9, r1, r6, lsl #4
     6dc:	03d90200 	bicseq	r0, r9, #0, 4
     6e0:	0000009c 	muleq	r0, ip, r0
     6e4:	01ca0107 	biceq	r0, sl, r7, lsl #2
     6e8:	10010000 	andne	r0, r1, r0
     6ec:	40009318 	andmi	r9, r0, r8, lsl r3
     6f0:	40009398 	mulmi	r0, r8, r3
     6f4:	000001a4 	andeq	r0, r0, r4, lsr #3
     6f8:	02040108 	andeq	r0, r4, #8, 2
     6fc:	21010000 	mrscs	r0, (UNDEF: 1)
     700:	000001d2 	ldrdeq	r0, [r0], -r2
     704:	40009398 	mulmi	r0, r8, r3
     708:	400093f4 	strdmi	r9, [r0], -r4
     70c:	000001d0 	ldrdeq	r0, [r0], -r0	; <UNPREDICTABLE>
     710:	000001d2 	ldrdeq	r0, [r0], -r2
     714:	0001c509 	andeq	ip, r1, r9, lsl #10
     718:	d2230100 	eorle	r0, r3, #0, 2
     71c:	02000001 	andeq	r0, r0, #1
     720:	02007b91 	andeq	r7, r0, #148480	; 0x24400
     724:	00590801 	subseq	r0, r9, r1, lsl #16
     728:	010a0000 	mrseq	r0, (UNDEF: 10)
     72c:	000001e8 	andeq	r0, r0, r8, ror #3
     730:	f4012f01 			; <UNDEFINED> instruction: 0xf4012f01
     734:	78400093 	stmdavc	r0, {r0, r1, r4, r7}^
     738:	fc400094 	mcrr2	0, 9, r0, r0, cr4
     73c:	01000001 	tsteq	r0, r1
     740:	0b000002 	bleq	750 <_start-0x400078b0>
     744:	000001af 	andeq	r0, r0, pc, lsr #3
     748:	02012f01 	andeq	r2, r1, #1, 30
     74c:	91020000 	mrsls	r0, (UNDEF: 2)
     750:	040c0074 	streq	r0, [ip], #-116	; 0x74
     754:	000001d2 	ldrdeq	r0, [r0], -r2
     758:	01fc010a 	mvnseq	r0, sl, lsl #2
     75c:	3c010000 	stccc	0, cr0, [r1], {-0}
     760:	00947801 	addseq	r7, r4, r1, lsl #16
     764:	0094d040 	addseq	sp, r4, r0, asr #32
     768:	00022840 	andeq	r2, r2, r0, asr #16
     76c:	00022f00 	andeq	r2, r2, r0, lsl #30
     770:	01c50b00 	biceq	r0, r5, r0, lsl #22
     774:	3c010000 	stccc	0, cr0, [r1], {-0}
     778:	0000022f 	andeq	r0, r0, pc, lsr #4
     77c:	00749102 	rsbseq	r9, r4, r2, lsl #2
     780:	0001d20d 	andeq	sp, r1, sp, lsl #4
     784:	40010a00 	andmi	r0, r1, r0, lsl #20
     788:	01000002 	tsteq	r0, r2
     78c:	94d00143 	ldrbls	r0, [r0], #323	; 0x143
     790:	95184000 	ldrls	r4, [r8, #-0]
     794:	02544000 	subseq	r4, r4, #0
     798:	025c0000 	subseq	r0, ip, #0
     79c:	af0b0000 	svcge	0x000b0000
     7a0:	01000001 	tsteq	r0, r1
     7a4:	00025c43 	andeq	r5, r2, r3, asr #24
     7a8:	74910200 	ldrvc	r0, [r1], #512	; 0x200
     7ac:	2f040c00 	svccs	0x00040c00
     7b0:	00000002 	andeq	r0, r0, r2
     7b4:	000000a0 	andeq	r0, r0, r0, lsr #1
     7b8:	023c0002 	eorseq	r0, ip, #2
     7bc:	01040000 	mrseq	r0, (UNDEF: 4)
     7c0:	00000378 	andeq	r0, r0, r8, ror r3
     7c4:	40009518 	andmi	r9, r0, r8, lsl r5
     7c8:	400095c8 	andmi	r9, r0, r8, asr #11
     7cc:	6d6d6f63 	stclvs	15, cr6, [sp, #-396]!	; 0xfffffe74
     7d0:	732f6e6f 	teqvc	pc, #1776	; 0x6f0
     7d4:	5f2f6372 	svcpl	0x002f6372
     7d8:	646f6d75 	strbtvs	r6, [pc], #-3445	; 7e0 <_start-0x40007820>
     7dc:	2e336973 	mrccs	9, 1, r6, cr3, cr3, {3}
     7e0:	682f0053 	stmdavs	pc!, {r0, r1, r4, r6}	; <UNPREDICTABLE>
     7e4:	2f656d6f 	svccs	0x00656d6f
     7e8:	646c6977 	strbtvs	r6, [ip], #-2423	; 0x977
     7ec:	6b6f6f62 	blvs	1bdc57c <_start-0x3e42ba84>
     7f0:	636f442f 	cmnvs	pc, #788529152	; 0x2f000000
     7f4:	6e656d75 	mcrvs	13, 3, r6, cr5, cr5, {3}
     7f8:	302f7374 	eorcc	r7, pc, r4, ror r3	; <UNPREDICTABLE>
     7fc:	8de52e34 	stclhi	14, cr2, [r5, #208]!	; 0xd0
     800:	85b8e68e 	ldrhi	lr, [r8, #1678]!	; 0x68e
     804:	e89cbfe8 	ldm	ip, {r3, r5, r6, r7, r8, r9, sl, fp, ip, sp, pc}
     808:	9fe581a7 	svcls	0x00e581a7
     80c:	adaee8b9 	stcge	8, cr14, [lr, #740]!	; 0x2e4
     810:	e894ace7 	ldm	r4, {r0, r1, r2, r5, r6, r7, sl, fp, sp, pc}
     814:	302fb0ae 	eorcc	fp, pc, lr, lsr #1
     818:	72612e36 	rsbvc	r2, r1, #864	; 0x360
     81c:	2e342f6d 	cdpcs	15, 3, cr2, cr4, cr13, {3}
     820:	e6b8a3e8 	ldrt	sl, [r8], r8, ror #7
     824:	a8e7ba9c 	stmiage	r7!, {r2, r3, r4, r7, r9, fp, ip, sp, pc}^
     828:	8fbae58b 	svchi	0x00bae58b
     82c:	e42e322f 	strt	r3, [lr], #-559	; 0x22f
     830:	bae4aab8 	blt	ff92b318 <_ctype+0xbf920d98>
     834:	a3bbe4ba 			; <UNDEFINED> instruction: 0xa3bbe4ba
     838:	2f81a0e7 	svccs	0x0081a0e7
     83c:	64612e35 	strbtvs	r2, [r1], #-3637	; 0xe35
     840:	2e312f63 	cdpcs	15, 3, cr2, cr1, cr3, {3}
     844:	00636461 	rsbeq	r6, r3, r1, ror #8
     848:	20554e47 	subscs	r4, r5, r7, asr #28
     84c:	32205341 	eorcc	r5, r0, #67108865	; 0x4000001
     850:	2e33322e 	cdpcs	2, 3, cr3, cr3, cr14, {1}
     854:	80010031 	andhi	r0, r1, r1, lsr r0
     858:	000000a0 	andeq	r0, r0, r0, lsr #1
     85c:	02500002 	subseq	r0, r0, #2
     860:	01040000 	mrseq	r0, (UNDEF: 4)
     864:	000003e8 	andeq	r0, r0, r8, ror #7
     868:	400095c8 	andmi	r9, r0, r8, asr #11
     86c:	4000965c 	andmi	r9, r0, ip, asr r6
     870:	6d6d6f63 	stclvs	15, cr6, [sp, #-396]!	; 0xfffffe74
     874:	732f6e6f 	teqvc	pc, #1776	; 0x6f0
     878:	5f2f6372 	svcpl	0x002f6372
     87c:	76696475 			; <UNDEFINED> instruction: 0x76696475
     880:	2e336973 	mrccs	9, 1, r6, cr3, cr3, {3}
     884:	682f0053 	stmdavs	pc!, {r0, r1, r4, r6}	; <UNPREDICTABLE>
     888:	2f656d6f 	svccs	0x00656d6f
     88c:	646c6977 	strbtvs	r6, [ip], #-2423	; 0x977
     890:	6b6f6f62 	blvs	1bdc620 <_start-0x3e42b9e0>
     894:	636f442f 	cmnvs	pc, #788529152	; 0x2f000000
     898:	6e656d75 	mcrvs	13, 3, r6, cr5, cr5, {3}
     89c:	302f7374 	eorcc	r7, pc, r4, ror r3	; <UNPREDICTABLE>
     8a0:	8de52e34 	stclhi	14, cr2, [r5, #208]!	; 0xd0
     8a4:	85b8e68e 	ldrhi	lr, [r8, #1678]!	; 0x68e
     8a8:	e89cbfe8 	ldm	ip, {r3, r5, r6, r7, r8, r9, sl, fp, ip, sp, pc}
     8ac:	9fe581a7 	svcls	0x00e581a7
     8b0:	adaee8b9 	stcge	8, cr14, [lr, #740]!	; 0x2e4
     8b4:	e894ace7 	ldm	r4, {r0, r1, r2, r5, r6, r7, sl, fp, sp, pc}
     8b8:	302fb0ae 	eorcc	fp, pc, lr, lsr #1
     8bc:	72612e36 	rsbvc	r2, r1, #864	; 0x360
     8c0:	2e342f6d 	cdpcs	15, 3, cr2, cr4, cr13, {3}
     8c4:	e6b8a3e8 	ldrt	sl, [r8], r8, ror #7
     8c8:	a8e7ba9c 	stmiage	r7!, {r2, r3, r4, r7, r9, fp, ip, sp, pc}^
     8cc:	8fbae58b 	svchi	0x00bae58b
     8d0:	e42e322f 	strt	r3, [lr], #-559	; 0x22f
     8d4:	bae4aab8 	blt	ff92b3bc <_ctype+0xbf920e3c>
     8d8:	a3bbe4ba 			; <UNDEFINED> instruction: 0xa3bbe4ba
     8dc:	2f81a0e7 	svccs	0x0081a0e7
     8e0:	64612e35 	strbtvs	r2, [r1], #-3637	; 0xe35
     8e4:	2e312f63 	cdpcs	15, 3, cr2, cr1, cr3, {3}
     8e8:	00636461 	rsbeq	r6, r3, r1, ror #8
     8ec:	20554e47 	subscs	r4, r5, r7, asr #28
     8f0:	32205341 	eorcc	r5, r0, #67108865	; 0x4000001
     8f4:	2e33322e 	cdpcs	2, 3, cr3, cr3, cr14, {1}
     8f8:	80010031 	andhi	r0, r1, r1, lsr r0
     8fc:	00000104 	andeq	r0, r0, r4, lsl #2
     900:	02640002 	rsbeq	r0, r4, #2
     904:	01040000 	mrseq	r0, (UNDEF: 4)
     908:	00000063 	andeq	r0, r0, r3, rrx
     90c:	0002a801 	andeq	sl, r2, r1, lsl #16
     910:	0000c700 	andeq	ip, r0, r0, lsl #14
     914:	00965c00 	addseq	r5, r6, r0, lsl #24
     918:	0096d040 	addseq	sp, r6, r0, asr #32
     91c:	00045140 	andeq	r5, r4, r0, asr #2
     920:	07040200 	streq	r0, [r4, -r0, lsl #4]
     924:	00000074 	andeq	r0, r0, r4, ror r0
     928:	4b022803 	blmi	8a93c <_start-0x3ff7d6c4>
     92c:	0000cc02 	andeq	ip, r0, r2, lsl #24
     930:	02730400 	rsbseq	r0, r3, #0, 8
     934:	4c020000 	stcmi	0, cr0, [r2], {-0}
     938:	00002502 	andeq	r2, r0, r2, lsl #10
     93c:	00230200 	eoreq	r0, r3, r0, lsl #4
     940:	00028a04 	andeq	r8, r2, r4, lsl #20
     944:	024d0200 	subeq	r0, sp, #0, 4
     948:	00000025 	andeq	r0, r0, r5, lsr #32
     94c:	04042302 	streq	r2, [r4], #-770	; 0x302
     950:	0000029a 	muleq	r0, sl, r2
     954:	25024e02 	strcs	r4, [r2, #-3586]	; 0xe02
     958:	02000000 	andeq	r0, r0, #0
     95c:	64040823 	strvs	r0, [r4], #-2083	; 0x823
     960:	02000002 	andeq	r0, r0, #2
     964:	0025024f 	eoreq	r0, r5, pc, asr #4
     968:	23020000 	movwcs	r0, #8192	; 0x2000
     96c:	026b040c 	rsbeq	r0, fp, #12, 8	; 0xc000000
     970:	50020000 	andpl	r0, r2, r0
     974:	00002502 	andeq	r2, r0, r2, lsl #10
     978:	10230200 	eorne	r0, r3, r0, lsl #4
     97c:	0002c104 	andeq	ip, r2, r4, lsl #2
     980:	02510200 	subseq	r0, r1, #0, 4
     984:	00000025 	andeq	r0, r0, r5, lsr #32
     988:	04142302 	ldreq	r2, [r4], #-770	; 0x302
     98c:	0000027a 	andeq	r0, r0, sl, ror r2
     990:	25025202 	strcs	r5, [r2, #-514]	; 0x202
     994:	02000000 	andeq	r0, r0, #0
     998:	5c041823 	stcpl	8, cr1, [r4], {35}	; 0x23
     99c:	02000002 	andeq	r0, r0, #2
     9a0:	00250253 	eoreq	r0, r5, r3, asr r2
     9a4:	23020000 	movwcs	r0, #8192	; 0x2000
     9a8:	0291041c 	addseq	r0, r1, #28, 8	; 0x1c000000
     9ac:	54020000 	strpl	r0, [r2], #-0
     9b0:	00002502 	andeq	r2, r0, r2, lsl #10
     9b4:	20230200 	eorcs	r0, r3, r0, lsl #4
     9b8:	0002ae04 	andeq	sl, r2, r4, lsl #28
     9bc:	02550200 	subseq	r0, r5, #0, 4
     9c0:	00000025 	andeq	r0, r0, r5, lsr #32
     9c4:	00242302 	eoreq	r2, r4, r2, lsl #6
     9c8:	0002bc05 	andeq	fp, r2, r5, lsl #24
     9cc:	02560200 	subseq	r0, r6, #0, 4
     9d0:	0000002c 	andeq	r0, r0, ip, lsr #32
     9d4:	02a10106 	adceq	r0, r1, #-2147483647	; 0x80000001
     9d8:	12010000 	andne	r0, r1, #0
     9dc:	00965c01 	addseq	r5, r6, r1, lsl #24
     9e0:	0096d040 	addseq	sp, r6, r0, asr #32
     9e4:	00028040 	andeq	r8, r2, r0, asr #32
     9e8:	00010000 	andeq	r0, r1, r0
     9ec:	02820700 	addeq	r0, r2, #0, 14
     9f0:	14010000 	strne	r0, [r1], #-0
     9f4:	00000100 	andeq	r0, r0, r0, lsl #2
     9f8:	00749102 	rsbseq	r9, r4, r2, lsl #2
     9fc:	69050408 	stmdbvs	r5, {r3, sl}
     a00:	0000746e 	andeq	r7, r0, lr, ror #8
     a04:	00000097 	muleq	r0, r7, r0
     a08:	02dd0002 	sbcseq	r0, sp, #2
     a0c:	01040000 	mrseq	r0, (UNDEF: 4)
     a10:	00000063 	andeq	r0, r0, r3, rrx
     a14:	0002c801 	andeq	ip, r2, r1, lsl #16
     a18:	0000c700 	andeq	ip, r0, r0, lsl #14
     a1c:	0096d000 	addseq	sp, r6, r0
     a20:	0097e840 	addseq	lr, r7, r0, asr #16
     a24:	0004b040 	andeq	fp, r4, r0, asr #32
     a28:	07040200 	streq	r0, [r4, -r0, lsl #4]
     a2c:	00000074 	andeq	r0, r0, r4, ror r0
     a30:	02cf0103 	sbceq	r0, pc, #-1073741824	; 0xc0000000
     a34:	12010000 	andne	r0, r1, #0
     a38:	0096d001 	addseq	sp, r6, r1
     a3c:	00976840 	addseq	r6, r7, r0, asr #16
     a40:	0002ac40 	andeq	sl, r2, r0, asr #24
     a44:	00006b00 	andeq	r6, r0, r0, lsl #22
     a48:	736d0400 	cmnvc	sp, #0, 8
     a4c:	6b120100 	blvs	480e54 <_start-0x3fb871ac>
     a50:	02000000 	andeq	r0, r0, #0
     a54:	69057091 	stmdbvs	r5, {r0, r4, r7, ip, sp, lr}
     a58:	6b140100 	blvs	500e60 <_start-0x3fb071a0>
     a5c:	02000000 	andeq	r0, r0, #0
     a60:	6a057891 	bvs	15ecac <_start-0x3fea9354>
     a64:	6b140100 	blvs	500e6c <_start-0x3fb07194>
     a68:	02000000 	andeq	r0, r0, #0
     a6c:	06007491 			; <UNDEFINED> instruction: 0x06007491
     a70:	6e690504 	cdpvs	5, 6, cr0, cr9, cr4, {0}
     a74:	01070074 	tsteq	r7, r4, ror r0
     a78:	000002da 	ldrdeq	r0, [r0], -sl
     a7c:	6b012301 	blvs	49688 <_start-0x3ffbe978>
     a80:	68000000 	stmdavs	r0, {}	; <UNPREDICTABLE>
     a84:	e8400097 	stmda	r0, {r0, r1, r2, r4, r7}^
     a88:	d8400097 	stmdale	r0, {r0, r1, r2, r4, r7}^
     a8c:	08000002 	stmdaeq	r0, {r1}
     a90:	000001c5 	andeq	r0, r0, r5, asr #3
     a94:	006b2901 	rsbeq	r2, fp, r1, lsl #18
     a98:	91020000 	mrsls	r0, (UNDEF: 2)
     a9c:	f9000074 			; <UNDEFINED> instruction: 0xf9000074
     aa0:	02000001 	andeq	r0, r0, #1
     aa4:	00036200 	andeq	r6, r3, r0, lsl #4
     aa8:	63010400 	movwvs	r0, #5120	; 0x1400
     aac:	01000000 	mrseq	r0, (UNDEF: 0)
     ab0:	00000310 	andeq	r0, r0, r0, lsl r3
     ab4:	000000c7 	andeq	r0, r0, r7, asr #1
     ab8:	400097e8 	andmi	r9, r0, r8, ror #15
     abc:	400098ec 	andmi	r9, r0, ip, ror #17
     ac0:	00000533 	andeq	r0, r0, r3, lsr r5
     ac4:	2d024802 	stccs	8, cr4, [r2, #-8]
     ac8:	00013d01 	andeq	r3, r1, r1, lsl #26
     acc:	03390300 	teqeq	r9, #0, 6
     ad0:	2e020000 	cdpcs	0, 0, cr0, cr2, cr0, {0}
     ad4:	00013d01 	andeq	r3, r1, r1, lsl #26
     ad8:	00230200 	eoreq	r0, r3, r0, lsl #4
     adc:	00033f03 	andeq	r3, r3, r3, lsl #30
     ae0:	012f0200 	teqeq	pc, r0, lsl #4
     ae4:	0000013d 	andeq	r0, r0, sp, lsr r1
     ae8:	03042302 	movweq	r2, #17154	; 0x4302
     aec:	00000345 	andeq	r0, r0, r5, asr #6
     af0:	3d013002 	stccc	0, cr3, [r1, #-8]
     af4:	02000001 	andeq	r0, r0, #1
     af8:	78030823 	stmdavc	r3, {r0, r1, r5, fp}
     afc:	02000003 	andeq	r0, r0, #3
     b00:	013d0131 	teqeq	sp, r1, lsr r1
     b04:	23020000 	movwcs	r0, #8192	; 0x2000
     b08:	02e6030c 	rsceq	r0, r6, #12, 6	; 0x30000000
     b0c:	32020000 	andcc	r0, r2, #0
     b10:	00013d01 	andeq	r3, r1, r1, lsl #26
     b14:	10230200 	eorne	r0, r3, r0, lsl #4
     b18:	00034a03 	andeq	r4, r3, r3, lsl #20
     b1c:	01330200 	teqeq	r3, r0, lsl #4
     b20:	0000013d 	andeq	r0, r0, sp, lsr r1
     b24:	03142302 	tsteq	r4, #134217728	; 0x8000000
     b28:	000002df 	ldrdeq	r0, [r0], -pc	; <UNPREDICTABLE>
     b2c:	3d013402 	cfstrscc	mvf3, [r1, #-8]
     b30:	02000001 	andeq	r0, r0, #1
     b34:	f2031823 	vadd.i8	d1, d3, d19
     b38:	02000002 	andeq	r0, r0, #2
     b3c:	013d0135 	teqeq	sp, r5, lsr r1
     b40:	23020000 	movwcs	r0, #8192	; 0x2000
     b44:	0351031c 	cmpeq	r1, #28, 6	; 0x70000000
     b48:	36020000 	strcc	r0, [r2], -r0
     b4c:	00013d01 	andeq	r3, r1, r1, lsl #26
     b50:	20230200 	eorcs	r0, r3, r0, lsl #4
     b54:	00032b03 	andeq	r2, r3, r3, lsl #22
     b58:	01370200 	teqeq	r7, r0, lsl #4
     b5c:	0000013d 	andeq	r0, r0, sp, lsr r1
     b60:	03242302 	teqeq	r4, #134217728	; 0x8000000
     b64:	000002f9 	strdeq	r0, [r0], -r9
     b68:	3d013802 	stccc	8, cr3, [r1, #-8]
     b6c:	02000001 	andeq	r0, r0, #1
     b70:	58032823 	stmdapl	r3, {r0, r1, r5, fp, sp}
     b74:	02000003 	andeq	r0, r0, #3
     b78:	013d0139 	teqeq	sp, r9, lsr r1
     b7c:	23020000 	movwcs	r0, #8192	; 0x2000
     b80:	0332032c 	teqeq	r2, #44, 6	; 0xb0000000
     b84:	3a020000 	bcc	80b8c <_start-0x3ff87474>
     b88:	00013d01 	andeq	r3, r1, r1, lsl #26
     b8c:	30230200 	eorcc	r0, r3, r0, lsl #4
     b90:	00030003 	andeq	r0, r3, r3
     b94:	013b0200 	teqeq	fp, r0, lsl #4
     b98:	0000013d 	andeq	r0, r0, sp, lsr r1
     b9c:	03342302 	teqeq	r4, #134217728	; 0x8000000
     ba0:	0000035f 	andeq	r0, r0, pc, asr r3
     ba4:	3d013c02 	stccc	12, cr3, [r1, #-8]
     ba8:	02000001 	andeq	r0, r0, #1
     bac:	7f033823 	svcvc	0x00033823
     bb0:	02000003 	andeq	r0, r0, #3
     bb4:	013d013d 	teqeq	sp, sp, lsr r1
     bb8:	23020000 	movwcs	r0, #8192	; 0x2000
     bbc:	0366033c 	cmneq	r6, #60, 6	; 0xf0000000
     bc0:	3e020000 	cdpcc	0, 0, cr0, cr2, cr0, {0}
     bc4:	00013d01 	andeq	r3, r1, r1, lsl #26
     bc8:	40230200 	eormi	r0, r3, r0, lsl #4
     bcc:	00036d03 	andeq	r6, r3, r3, lsl #26
     bd0:	013f0200 	teqeq	pc, r0, lsl #4
     bd4:	0000013d 	andeq	r0, r0, sp, lsr r1
     bd8:	00442302 	subeq	r2, r4, r2, lsl #6
     bdc:	74070404 	strvc	r0, [r7], #-1028	; 0x404
     be0:	05000000 	streq	r0, [r0, #-0]
     be4:	006d7770 	rsbeq	r7, sp, r0, ror r7
     be8:	25014002 	strcs	r4, [r1, #-2]
     bec:	02000000 	andeq	r0, r0, #0
     bf0:	01b50218 			; <UNDEFINED> instruction: 0x01b50218
     bf4:	000001b4 			; <UNDEFINED> instruction: 0x000001b4
     bf8:	4e4f4306 	cdpmi	3, 4, cr4, cr15, cr6, {0}
     bfc:	01b60200 			; <UNDEFINED> instruction: 0x01b60200
     c00:	0000013d 	andeq	r0, r0, sp, lsr r1
     c04:	06002302 	streq	r2, [r0], -r2, lsl #6
     c08:	00544144 	subseq	r4, r4, r4, asr #2
     c0c:	3d01b702 	stccc	7, cr11, [r1, #-8]
     c10:	02000001 	andeq	r0, r0, #1
     c14:	50060423 	andpl	r0, r6, r3, lsr #8
     c18:	02004455 	andeq	r4, r0, #1426063360	; 0x55000000
     c1c:	013d01b8 			; <UNDEFINED> instruction: 0x013d01b8
     c20:	23020000 	movwcs	r0, #8192	; 0x2000
     c24:	52440608 	subpl	r0, r4, #8, 12	; 0x800000
     c28:	b9020056 	stmdblt	r2, {r1, r2, r4, r6}
     c2c:	00013d01 	andeq	r3, r1, r1, lsl #26
     c30:	0c230200 	sfmeq	f0, 4, [r3], #-0
     c34:	0001e103 	andeq	lr, r1, r3, lsl #2
     c38:	01ba0200 			; <UNDEFINED> instruction: 0x01ba0200
     c3c:	0000013d 	andeq	r0, r0, sp, lsr r1
     c40:	03102302 	tsteq	r0, #134217728	; 0x8000000
     c44:	00000227 	andeq	r0, r0, r7, lsr #4
     c48:	3d01bb02 	vstrcc	d11, [r1, #-8]
     c4c:	02000001 	andeq	r0, r0, #1
     c50:	07001423 	streq	r1, [r0, -r3, lsr #8]
     c54:	000002ed 	andeq	r0, r0, sp, ror #5
     c58:	5001bc02 	andpl	fp, r1, r2, lsl #24
     c5c:	08000001 	stmdaeq	r0, {r0}
     c60:	00032201 	andeq	r2, r3, r1, lsl #4
     c64:	e80c0100 	stmda	ip, {r8}
     c68:	94400097 	strbls	r0, [r0], #-151	; 0x97
     c6c:	04400098 	strbeq	r0, [r0], #-152	; 0x98
     c70:	08000003 	stmdaeq	r0, {r0, r1}
     c74:	00031a01 	andeq	r1, r3, r1, lsl #20
     c78:	941d0100 	ldrls	r0, [sp], #-256	; 0x100
     c7c:	c0400098 	umaalgt	r0, r0, r8, r0
     c80:	30400098 	umaalcc	r0, r0, r8, r0
     c84:	08000003 	stmdaeq	r0, {r0, r1}
     c88:	00030701 	andeq	r0, r3, r1, lsl #14
     c8c:	c0230100 	eorgt	r0, r3, r0, lsl #2
     c90:	ec400098 	mcrr	0, 9, r0, r0, cr8
     c94:	5c400098 	mcrrpl	0, 9, r0, r0, cr8
     c98:	00000003 	andeq	r0, r0, r3
     c9c:	0000049b 	muleq	r0, fp, r4
     ca0:	03d90002 	bicseq	r0, r9, #2
     ca4:	01040000 	mrseq	r0, (UNDEF: 4)
     ca8:	00000063 	andeq	r0, r0, r3, rrx
     cac:	00039d01 	andeq	r9, r3, r1, lsl #26
     cb0:	0000c700 	andeq	ip, r0, r0, lsl #14
     cb4:	0098ec00 	addseq	lr, r8, r0, lsl #24
     cb8:	009a6040 	addseq	r6, sl, r0, asr #32
     cbc:	00059c40 	andeq	r9, r5, r0, asr #24
     cc0:	07040200 	streq	r0, [r4, -r0, lsl #4]
     cc4:	00000074 	andeq	r0, r0, r4, ror r0
     cc8:	00021003 	andeq	r1, r2, r3
     ccc:	00007202 	andeq	r7, r0, r2, lsl #4
     cd0:	4f430400 	svcmi	0x00430400
     cd4:	0102004e 	tsteq	r2, lr, asr #32
     cd8:	00002502 	andeq	r2, r0, r2, lsl #10
     cdc:	00230200 	eoreq	r0, r3, r0, lsl #4
     ce0:	54414404 	strbpl	r4, [r1], #-1028	; 0x404
     ce4:	02020200 	andeq	r0, r2, #0, 4
     ce8:	00000025 	andeq	r0, r0, r5, lsr #32
     cec:	04042302 	streq	r2, [r4], #-770	; 0x302
     cf0:	00445550 	subeq	r5, r4, r0, asr r5
     cf4:	25020302 	strcs	r0, [r2, #-770]	; 0x302
     cf8:	02000000 	andeq	r0, r0, #0
     cfc:	44040823 	strmi	r0, [r4], #-2083	; 0x823
     d00:	02005652 	andeq	r5, r0, #85983232	; 0x5200000
     d04:	00250204 	eoreq	r0, r5, r4, lsl #4
     d08:	23020000 	movwcs	r0, #8192	; 0x2000
     d0c:	e205000c 	and	r0, r5, #12
     d10:	02000004 	andeq	r0, r0, #4
     d14:	002c0205 	eoreq	r0, ip, r5, lsl #4
     d18:	28030000 	stmdacs	r3, {}	; <UNPREDICTABLE>
     d1c:	1e024b02 	vmlane.f64	d4, d2, d2
     d20:	06000001 	streq	r0, [r0], -r1
     d24:	00000273 	andeq	r0, r0, r3, ror r2
     d28:	25024c02 	strcs	r4, [r2, #-3074]	; 0xc02
     d2c:	02000000 	andeq	r0, r0, #0
     d30:	8a060023 	bhi	180dc4 <_start-0x3fe8723c>
     d34:	02000002 	andeq	r0, r0, #2
     d38:	0025024d 	eoreq	r0, r5, sp, asr #4
     d3c:	23020000 	movwcs	r0, #8192	; 0x2000
     d40:	029a0604 	addseq	r0, sl, #4, 12	; 0x400000
     d44:	4e020000 	cdpmi	0, 0, cr0, cr2, cr0, {0}
     d48:	00002502 	andeq	r2, r0, r2, lsl #10
     d4c:	08230200 	stmdaeq	r3!, {r9}
     d50:	00026406 	andeq	r6, r2, r6, lsl #8
     d54:	024f0200 	subeq	r0, pc, #0, 4
     d58:	00000025 	andeq	r0, r0, r5, lsr #32
     d5c:	060c2302 	streq	r2, [ip], -r2, lsl #6
     d60:	0000026b 	andeq	r0, r0, fp, ror #4
     d64:	25025002 	strcs	r5, [r2, #-2]
     d68:	02000000 	andeq	r0, r0, #0
     d6c:	c1061023 	tstgt	r6, r3, lsr #32
     d70:	02000002 	andeq	r0, r0, #2
     d74:	00250251 	eoreq	r0, r5, r1, asr r2
     d78:	23020000 	movwcs	r0, #8192	; 0x2000
     d7c:	027a0614 	rsbseq	r0, sl, #20, 12	; 0x1400000
     d80:	52020000 	andpl	r0, r2, #0
     d84:	00002502 	andeq	r2, r0, r2, lsl #10
     d88:	18230200 	stmdane	r3!, {r9}
     d8c:	00025c06 	andeq	r5, r2, r6, lsl #24
     d90:	02530200 	subseq	r0, r3, #0, 4
     d94:	00000025 	andeq	r0, r0, r5, lsr #32
     d98:	061c2302 	ldreq	r2, [ip], -r2, lsl #6
     d9c:	00000291 	muleq	r0, r1, r2
     da0:	25025402 	strcs	r5, [r2, #-1026]	; 0x402
     da4:	02000000 	andeq	r0, r0, #0
     da8:	ae062023 	cdpge	0, 0, cr2, cr6, cr3, {1}
     dac:	02000002 	andeq	r0, r0, #2
     db0:	00250255 	eoreq	r0, r5, r5, asr r2
     db4:	23020000 	movwcs	r0, #8192	; 0x2000
     db8:	bc050024 	stclt	0, cr0, [r5], {36}	; 0x24
     dbc:	02000002 	andeq	r0, r0, #2
     dc0:	007e0256 	rsbseq	r0, lr, r6, asr r2
     dc4:	14030000 	strne	r0, [r3], #-0
     dc8:	7f029702 	svcvc	0x00029702
     dcc:	06000001 	streq	r0, [r0], -r1
     dd0:	00000565 	andeq	r0, r0, r5, ror #10
     dd4:	25029802 	strcs	r9, [r2, #-2050]	; 0x802
     dd8:	02000000 	andeq	r0, r0, #0
     ddc:	8b060023 	blhi	180e70 <_start-0x3fe87190>
     de0:	02000005 	andeq	r0, r0, #5
     de4:	00250299 	mlaeq	r5, r9, r2, r0
     de8:	23020000 	movwcs	r0, #8192	; 0x2000
     dec:	05940604 	ldreq	r0, [r4, #1540]	; 0x604
     df0:	9a020000 	bls	80df8 <_start-0x3ff87208>
     df4:	00002502 	andeq	r2, r0, r2, lsl #10
     df8:	08230200 	stmdaeq	r3!, {r9}
     dfc:	00059d06 	andeq	r9, r5, r6, lsl #26
     e00:	029b0200 	addseq	r0, fp, #0, 4
     e04:	00000025 	andeq	r0, r0, r5, lsr #32
     e08:	060c2302 	streq	r2, [ip], -r2, lsl #6
     e0c:	00000508 	andeq	r0, r0, r8, lsl #10
     e10:	25029c02 	strcs	r9, [r2, #-3074]	; 0xc02
     e14:	02000000 	andeq	r0, r0, #0
     e18:	05001023 	streq	r1, [r0, #-35]	; 0x23
     e1c:	000005c2 	andeq	r0, r0, r2, asr #11
     e20:	2a029d02 	bcs	a8230 <_start-0x3ff5fdd0>
     e24:	03000001 	movweq	r0, #1
     e28:	02b50214 	adcseq	r0, r5, #20, 4	; 0x40000001
     e2c:	000001e0 	andeq	r0, r0, r0, ror #3
     e30:	00038606 	andeq	r8, r3, r6, lsl #12
     e34:	02b60200 	adcseq	r0, r6, #0, 4
     e38:	00000025 	andeq	r0, r0, r5, lsr #32
     e3c:	06002302 	streq	r2, [r0], -r2, lsl #6
     e40:	0000044c 	andeq	r0, r0, ip, asr #8
     e44:	2502b702 	strcs	fp, [r2, #-1794]	; 0x702
     e48:	02000000 	andeq	r0, r0, #0
     e4c:	55060423 	strpl	r0, [r6, #-1059]	; 0x423
     e50:	02000004 	andeq	r0, r0, #4
     e54:	002502b8 			; <UNDEFINED> instruction: 0x002502b8
     e58:	23020000 	movwcs	r0, #8192	; 0x2000
     e5c:	045e0608 	ldrbeq	r0, [lr], #-1544	; 0x608
     e60:	b9020000 	stmdblt	r2, {}	; <UNPREDICTABLE>
     e64:	00002502 	andeq	r2, r0, r2, lsl #10
     e68:	0c230200 	sfmeq	f0, 4, [r3], #-0
     e6c:	00046706 	andeq	r6, r4, r6, lsl #14
     e70:	02ba0200 	adcseq	r0, sl, #0, 4
     e74:	00000025 	andeq	r0, r0, r5, lsr #32
     e78:	00102302 	andseq	r2, r0, r2, lsl #6
     e7c:	0004fe05 	andeq	pc, r4, r5, lsl #28
     e80:	02bb0200 	adcseq	r0, fp, #0, 4
     e84:	0000018b 	andeq	r0, r0, fp, lsl #3
     e88:	f602a003 			; <UNDEFINED> instruction: 0xf602a003
     e8c:	00045602 	andeq	r5, r4, r2, lsl #12
     e90:	05a60600 	streq	r0, [r6, #1536]!	; 0x600
     e94:	f7020000 			; <UNDEFINED> instruction: 0xf7020000
     e98:	00002502 	andeq	r2, r0, r2, lsl #10
     e9c:	00230200 	eoreq	r0, r3, r0, lsl #4
     ea0:	0005b406 	andeq	fp, r5, r6, lsl #8
     ea4:	02f80200 	rscseq	r0, r8, #0, 4
     ea8:	00000025 	andeq	r0, r0, r5, lsr #32
     eac:	06042302 	streq	r2, [r4], -r2, lsl #6
     eb0:	000004d4 	ldrdeq	r0, [r0], -r4
     eb4:	2502f902 	strcs	pc, [r2, #-2306]	; 0x902
     eb8:	02000000 	andeq	r0, r0, #0
     ebc:	f0060823 			; <UNDEFINED> instruction: 0xf0060823
     ec0:	02000004 	andeq	r0, r0, #4
     ec4:	002502fa 	strdeq	r0, [r5], -sl	; <UNPREDICTABLE>
     ec8:	23020000 	movwcs	r0, #8192	; 0x2000
     ecc:	0511060c 	ldreq	r0, [r1, #-1548]	; 0x60c
     ed0:	fb020000 	blx	80eda <_start-0x3ff87126>
     ed4:	00002502 	andeq	r2, r0, r2, lsl #10
     ed8:	10230200 	eorne	r0, r3, r0, lsl #4
     edc:	00042c06 	andeq	r2, r4, r6, lsl #24
     ee0:	02fc0200 	rscseq	r0, ip, #0, 4
     ee4:	00000025 	andeq	r0, r0, r5, lsr #32
     ee8:	06142302 	ldreq	r2, [r4], -r2, lsl #6
     eec:	0000057d 	andeq	r0, r0, sp, ror r5
     ef0:	2502fd02 	strcs	pc, [r2, #-3330]	; 0xd02
     ef4:	02000000 	andeq	r0, r0, #0
     ef8:	1e061823 	cdpne	8, 0, cr1, cr6, cr3, {1}
     efc:	02000004 	andeq	r0, r0, #4
     f00:	002502fe 	strdeq	r0, [r5], -lr	; <UNPREDICTABLE>
     f04:	23020000 	movwcs	r0, #8192	; 0x2000
     f08:	043a061c 	ldrteq	r0, [sl], #-1564	; 0x61c
     f0c:	ff020000 			; <UNDEFINED> instruction: 0xff020000
     f10:	00002502 	andeq	r2, r0, r2, lsl #10
     f14:	20230200 	eorcs	r0, r3, r0, lsl #4
     f18:	00044306 	andeq	r4, r4, r6, lsl #6
     f1c:	03000200 	movweq	r0, #512	; 0x200
     f20:	00000025 	andeq	r0, r0, r5, lsr #32
     f24:	06242302 	strteq	r2, [r4], -r2, lsl #6
     f28:	000003ba 			; <UNDEFINED> instruction: 0x000003ba
     f2c:	25030102 	strcs	r0, [r3, #-258]	; 0x102
     f30:	02000000 	andeq	r0, r0, #0
     f34:	c4062823 	strgt	r2, [r6], #-2083	; 0x823
     f38:	02000003 	andeq	r0, r0, #3
     f3c:	00250302 	eoreq	r0, r5, r2, lsl #6
     f40:	23020000 	movwcs	r0, #8192	; 0x2000
     f44:	03ce062c 	biceq	r0, lr, #44, 12	; 0x2c00000
     f48:	03020000 	movweq	r0, #8192	; 0x2000
     f4c:	00002503 	andeq	r2, r0, r3, lsl #10
     f50:	30230200 	eorcc	r0, r3, r0, lsl #4
     f54:	0003d806 	andeq	sp, r3, r6, lsl #16
     f58:	03040200 	movweq	r0, #16896	; 0x4200
     f5c:	00000025 	andeq	r0, r0, r5, lsr #32
     f60:	06342302 	ldrteq	r2, [r4], -r2, lsl #6
     f64:	000003e2 	andeq	r0, r0, r2, ror #7
     f68:	25030502 	strcs	r0, [r3, #-1282]	; 0x502
     f6c:	02000000 	andeq	r0, r0, #0
     f70:	ec063823 	stc	8, cr3, [r6], {35}	; 0x23
     f74:	02000003 	andeq	r0, r0, #3
     f78:	00250306 	eoreq	r0, r5, r6, lsl #6
     f7c:	23020000 	movwcs	r0, #8192	; 0x2000
     f80:	03f6063c 	mvnseq	r0, #60, 12	; 0x3c00000
     f84:	07020000 	streq	r0, [r2, -r0]
     f88:	00002503 	andeq	r2, r0, r3, lsl #10
     f8c:	40230200 	eormi	r0, r3, r0, lsl #4
     f90:	00040006 	andeq	r0, r4, r6
     f94:	03080200 	movweq	r0, #33280	; 0x8200
     f98:	00000025 	andeq	r0, r0, r5, lsr #32
     f9c:	06442302 	strbeq	r2, [r4], -r2, lsl #6
     fa0:	0000040a 	andeq	r0, r0, sl, lsl #8
     fa4:	25030902 	strcs	r0, [r3, #-2306]	; 0x902
     fa8:	02000000 	andeq	r0, r0, #0
     fac:	14064823 	strne	r4, [r6], #-2083	; 0x823
     fb0:	02000004 	andeq	r0, r0, #4
     fb4:	0025030a 	eoreq	r0, r5, sl, lsl #6
     fb8:	23020000 	movwcs	r0, #8192	; 0x2000
     fbc:	047a064c 	ldrbteq	r0, [sl], #-1612	; 0x64c
     fc0:	0b020000 	bleq	80fc8 <_start-0x3ff87038>
     fc4:	00002503 	andeq	r2, r0, r3, lsl #10
     fc8:	50230200 	eorpl	r0, r3, r0, lsl #4
     fcc:	00048406 	andeq	r8, r4, r6, lsl #8
     fd0:	030c0200 	movweq	r0, #49664	; 0xc200
     fd4:	00000025 	andeq	r0, r0, r5, lsr #32
     fd8:	06542302 	ldrbeq	r2, [r4], -r2, lsl #6
     fdc:	00000470 	andeq	r0, r0, r0, ror r4
     fe0:	25030d02 	strcs	r0, [r3, #-3330]	; 0xd02
     fe4:	02000000 	andeq	r0, r0, #0
     fe8:	8e065823 	cdphi	8, 0, cr5, cr6, cr3, {1}
     fec:	02000004 	andeq	r0, r0, #4
     ff0:	0025030e 	eoreq	r0, r5, lr, lsl #6
     ff4:	23020000 	movwcs	r0, #8192	; 0x2000
     ff8:	0498065c 	ldreq	r0, [r8], #1628	; 0x65c
     ffc:	0f020000 	svceq	0x00020000
    1000:	00002503 	andeq	r2, r0, r3, lsl #10
    1004:	60230200 	eorvs	r0, r3, r0, lsl #4
    1008:	0004a206 	andeq	sl, r4, r6, lsl #4
    100c:	03100200 	tsteq	r0, #0, 4
    1010:	00000025 	andeq	r0, r0, r5, lsr #32
    1014:	06642302 	strbteq	r2, [r4], -r2, lsl #6
    1018:	000004ac 	andeq	r0, r0, ip, lsr #9
    101c:	25031102 	strcs	r1, [r3, #-258]	; 0x102
    1020:	02000000 	andeq	r0, r0, #0
    1024:	b6066823 	strlt	r6, [r6], -r3, lsr #16
    1028:	02000004 	andeq	r0, r0, #4
    102c:	00250312 	eoreq	r0, r5, r2, lsl r3
    1030:	23020000 	movwcs	r0, #8192	; 0x2000
    1034:	04c0066c 	strbeq	r0, [r0], #1644	; 0x66c
    1038:	13020000 	movwne	r0, #8192	; 0x2000
    103c:	00002503 	andeq	r2, r0, r3, lsl #10
    1040:	70230200 	eorvc	r0, r3, r0, lsl #4
    1044:	0004ca06 	andeq	ip, r4, r6, lsl #20
    1048:	03140200 	tsteq	r4, #0, 4
    104c:	00000025 	andeq	r0, r0, r5, lsr #32
    1050:	06742302 	ldrbteq	r2, [r4], -r2, lsl #6
    1054:	0000051f 	andeq	r0, r0, pc, lsl r5
    1058:	25031502 	strcs	r1, [r3, #-1282]	; 0x502
    105c:	02000000 	andeq	r0, r0, #0
    1060:	c7067823 	strgt	r7, [r6, -r3, lsr #16]
    1064:	02000005 	andeq	r0, r0, #5
    1068:	00250316 	eoreq	r0, r5, r6, lsl r3
    106c:	23020000 	movwcs	r0, #8192	; 0x2000
    1070:	0529067c 	streq	r0, [r9, #-1660]!	; 0x67c
    1074:	17020000 	strne	r0, [r2, -r0]
    1078:	00002503 	andeq	r2, r0, r3, lsl #10
    107c:	80230300 	eorhi	r0, r3, r0, lsl #6
    1080:	05330601 	ldreq	r0, [r3, #-1537]!	; 0x601
    1084:	18020000 	stmdane	r2, {}	; <UNPREDICTABLE>
    1088:	00002503 	andeq	r2, r0, r3, lsl #10
    108c:	84230300 	strthi	r0, [r3], #-768	; 0x300
    1090:	053d0601 	ldreq	r0, [sp, #-1537]!	; 0x601
    1094:	19020000 	stmdbne	r2, {}	; <UNPREDICTABLE>
    1098:	00002503 	andeq	r2, r0, r3, lsl #10
    109c:	88230300 	stmdahi	r3!, {r8, r9}
    10a0:	05470601 	strbeq	r0, [r7, #-1537]	; 0x601
    10a4:	1a020000 	bne	810ac <_start-0x3ff86f54>
    10a8:	00002503 	andeq	r2, r0, r3, lsl #10
    10ac:	8c230300 	stchi	3, cr0, [r3], #-0
    10b0:	05510601 	ldrbeq	r0, [r1, #-1537]	; 0x601
    10b4:	1b020000 	blne	810bc <_start-0x3ff86f44>
    10b8:	00002503 	andeq	r2, r0, r3, lsl #10
    10bc:	90230300 	eorls	r0, r3, r0, lsl #6
    10c0:	055b0601 	ldrbeq	r0, [fp, #-1537]	; 0x601
    10c4:	1c020000 	stcne	0, cr0, [r2], {-0}
    10c8:	00002503 	andeq	r2, r0, r3, lsl #10
    10cc:	94230300 	strtls	r0, [r3], #-768	; 0x300
    10d0:	03b00601 	movseq	r0, #1048576	; 0x100000
    10d4:	1d020000 	stcne	0, cr0, [r2, #-0]
    10d8:	00002503 	andeq	r2, r0, r3, lsl #10
    10dc:	98230300 	stmdals	r3!, {r8, r9}
    10e0:	05730601 	ldrbeq	r0, [r3, #-1537]!	; 0x601
    10e4:	1e020000 	cdpne	0, 0, cr0, cr2, cr0, {0}
    10e8:	00002503 	andeq	r2, r0, r3, lsl #10
    10ec:	9c230300 	stcls	3, cr0, [r3], #-0
    10f0:	03050001 	movweq	r0, #20481	; 0x5001
    10f4:	02000005 	andeq	r0, r0, #5
    10f8:	01ec031f 	mvneq	r0, pc, lsl r3
    10fc:	01070000 	mrseq	r0, (UNDEF: 7)
    1100:	000003a7 	andeq	r0, r0, r7, lsr #7
    1104:	98ec2901 	stmials	ip!, {r0, r8, fp, sp}^
    1108:	99c84000 	stmibls	r8, {lr}^
    110c:	03884000 	orreq	r4, r8, #0
    1110:	01070000 	mrseq	r0, (UNDEF: 7)
    1114:	000004e7 	andeq	r0, r0, r7, ror #9
    1118:	99c84601 	stmibls	r8, {r0, r9, sl, lr}^
    111c:	9a144000 	bls	511124 <_start-0x3faf6edc>
    1120:	03b44000 			; <UNDEFINED> instruction: 0x03b44000
    1124:	01070000 	mrseq	r0, (UNDEF: 7)
    1128:	00000394 	muleq	r0, r4, r3
    112c:	9a145101 	bls	515538 <_start-0x3faf2ac8>
    1130:	9a604000 	bls	1811138 <_start-0x3e7f6ec8>
    1134:	03e04000 	mvneq	r4, #0
    1138:	a4000000 	strge	r0, [r0], #-0
    113c:	02000001 	andeq	r0, r0, #1
    1140:	00044300 	andeq	r4, r4, r0, lsl #6
    1144:	63010400 	movwvs	r0, #5120	; 0x1400
    1148:	01000000 	mrseq	r0, (UNDEF: 0)
    114c:	000005d1 	ldrdeq	r0, [r0], -r1
    1150:	000000c7 	andeq	r0, r0, r7, asr #1
    1154:	40009a60 	andmi	r9, r0, r0, ror #20
    1158:	40009c5c 	andmi	r9, r0, ip, asr ip
    115c:	0000060e 	andeq	r0, r0, lr, lsl #12
    1160:	74070402 	strvc	r0, [r7], #-1026	; 0x402
    1164:	03000000 	movweq	r0, #0
    1168:	01ec0218 	mvneq	r0, r8, lsl r2
    116c:	00000090 	muleq	r0, r0, r0
    1170:	4e4f4304 	cdpmi	3, 4, cr4, cr15, cr4, {0}
    1174:	01ed0200 	mvneq	r0, r0, lsl #4
    1178:	00000025 	andeq	r0, r0, r5, lsr #32
    117c:	04002302 	streq	r2, [r0], #-770	; 0x302
    1180:	00544144 	subseq	r4, r4, r4, asr #2
    1184:	2501ee02 	strcs	lr, [r1, #-3586]	; 0xe02
    1188:	02000000 	andeq	r0, r0, #0
    118c:	50040423 	andpl	r0, r4, r3, lsr #8
    1190:	02004455 	andeq	r4, r0, #1426063360	; 0x55000000
    1194:	002501ef 	eoreq	r0, r5, pc, ror #3
    1198:	23020000 	movwcs	r0, #8192	; 0x2000
    119c:	52440408 	subpl	r0, r4, #8, 8	; 0x8000000
    11a0:	f0020056 			; <UNDEFINED> instruction: 0xf0020056
    11a4:	00002501 	andeq	r2, r0, r1, lsl #10
    11a8:	0c230200 	sfmeq	f0, 4, [r3], #-0
    11ac:	0001e105 	andeq	lr, r1, r5, lsl #2
    11b0:	01f10200 	mvnseq	r0, r0, lsl #4
    11b4:	00000025 	andeq	r0, r0, r5, lsr #32
    11b8:	05102302 	ldreq	r2, [r0, #-770]	; 0x302
    11bc:	00000227 	andeq	r0, r0, r7, lsr #4
    11c0:	2501f202 	strcs	pc, [r1, #-514]	; 0x202
    11c4:	02000000 	andeq	r0, r0, #0
    11c8:	06001423 	streq	r1, [r0], -r3, lsr #8
    11cc:	000005f1 	strdeq	r0, [r0], -r1
    11d0:	2c01f302 	stccs	3, cr15, [r1], {2}
    11d4:	03000000 	movweq	r0, #0
    11d8:	02000210 	andeq	r0, r0, #16, 4
    11dc:	000000e2 	andeq	r0, r0, r2, ror #1
    11e0:	4e4f4304 	cdpmi	3, 4, cr4, cr15, cr4, {0}
    11e4:	02010200 	andeq	r0, r1, #0, 4
    11e8:	00000025 	andeq	r0, r0, r5, lsr #32
    11ec:	04002302 	streq	r2, [r0], #-770	; 0x302
    11f0:	00544144 	subseq	r4, r4, r4, asr #2
    11f4:	25020202 	strcs	r0, [r2, #-514]	; 0x202
    11f8:	02000000 	andeq	r0, r0, #0
    11fc:	50040423 	andpl	r0, r4, r3, lsr #8
    1200:	02004455 	andeq	r4, r0, #1426063360	; 0x55000000
    1204:	00250203 	eoreq	r0, r5, r3, lsl #4
    1208:	23020000 	movwcs	r0, #8192	; 0x2000
    120c:	52440408 	subpl	r0, r4, #8, 8	; 0x8000000
    1210:	04020056 	streq	r0, [r2], #-86	; 0x56
    1214:	00002502 	andeq	r2, r0, r2, lsl #10
    1218:	0c230200 	sfmeq	f0, 4, [r3], #-0
    121c:	04e20600 	strbteq	r0, [r2], #1536	; 0x600
    1220:	05020000 	streq	r0, [r2, #-0]
    1224:	00009c02 	andeq	r9, r0, r2, lsl #24
    1228:	02100300 	andseq	r0, r0, #0, 6
    122c:	01340209 	teqeq	r4, r9, lsl #4
    1230:	43040000 	movwmi	r0, #16384	; 0x4000
    1234:	02004e4f 	andeq	r4, r0, #1264	; 0x4f0
    1238:	0025020a 	eoreq	r0, r5, sl, lsl #4
    123c:	23020000 	movwcs	r0, #8192	; 0x2000
    1240:	41440400 	cmpmi	r4, r0, lsl #8
    1244:	0b020054 	bleq	8139c <_start-0x3ff86c64>
    1248:	00002502 	andeq	r2, r0, r2, lsl #10
    124c:	04230200 	strteq	r0, [r3], #-512	; 0x200
    1250:	44555004 	ldrbmi	r5, [r5], #-4
    1254:	020c0200 	andeq	r0, ip, #0, 4
    1258:	00000025 	andeq	r0, r0, r5, lsr #32
    125c:	04082302 	streq	r2, [r8], #-770	; 0x302
    1260:	00565244 	subseq	r5, r6, r4, asr #4
    1264:	25020d02 	strcs	r0, [r2, #-3330]	; 0xd02
    1268:	02000000 	andeq	r0, r0, #0
    126c:	06000c23 	streq	r0, [r0], -r3, lsr #24
    1270:	000005db 	ldrdeq	r0, [r0], -fp
    1274:	ee020e02 	cdp	14, 0, cr0, cr2, cr2, {0}
    1278:	07000000 	streq	r0, [r0, -r0]
    127c:	0005e801 	andeq	lr, r5, r1, lsl #16
    1280:	60090100 	andvs	r0, r9, r0, lsl #2
    1284:	0440009a 	strbeq	r0, [r0], #-154	; 0x9a
    1288:	0c40009b 	mcrreq	0, 9, r0, r0, cr11
    128c:	08000004 	stmdaeq	r0, {r2}
    1290:	0005f601 	andeq	pc, r5, r1, lsl #12
    1294:	01120100 	tsteq	r2, r0, lsl #2
    1298:	40009b04 	andmi	r9, r0, r4, lsl #22
    129c:	40009bb0 			; <UNDEFINED> instruction: 0x40009bb0
    12a0:	00000438 	andeq	r0, r0, r8, lsr r4
    12a4:	0000017c 	andeq	r0, r0, ip, ror r1
    12a8:	64656c09 	strbtvs	r6, [r5], #-3081	; 0xc09
    12ac:	7c120100 	ldfvcs	f0, [r2], {-0}
    12b0:	02000001 	andeq	r0, r0, #1
    12b4:	0a007891 	beq	1f500 <_start-0x3ffe8b00>
    12b8:	6e690504 	cdpvs	5, 6, cr0, cr9, cr4, {0}
    12bc:	010b0074 	tsteq	fp, r4, ror r0
    12c0:	000005e0 	andeq	r0, r0, r0, ror #11
    12c4:	b0012701 	andlt	r2, r1, r1, lsl #14
    12c8:	5c40009b 	mcrrpl	0, 9, r0, r0, cr11
    12cc:	6440009c 	strbvs	r0, [r0], #-156	; 0x9c
    12d0:	09000004 	stmdbeq	r0, {r2}
    12d4:	0064656c 	rsbeq	r6, r4, ip, ror #10
    12d8:	017c2701 	cmneq	ip, r1, lsl #14
    12dc:	91020000 	mrsls	r0, (UNDEF: 2)
    12e0:	6f000078 	svcvs	0x00000078
    12e4:	02000000 	andeq	r0, r0, #0
    12e8:	0004f300 	andeq	pc, r4, r0, lsl #6
    12ec:	63010400 	movwvs	r0, #5120	; 0x1400
    12f0:	01000000 	mrseq	r0, (UNDEF: 0)
    12f4:	00000606 	andeq	r0, r0, r6, lsl #12
    12f8:	000000c7 	andeq	r0, r0, r7, asr #1
    12fc:	40009c5c 	andmi	r9, r0, ip, asr ip
    1300:	40009d1c 	andmi	r9, r0, ip, lsl sp
    1304:	00000688 	andeq	r0, r0, r8, lsl #13
    1308:	74070402 	strvc	r0, [r7], #-1026	; 0x402
    130c:	03000000 	movweq	r0, #0
    1310:	0005fd01 	andeq	pc, r5, r1, lsl #26
    1314:	5c0c0100 	stfpls	f0, [ip], {-0}
    1318:	b440009c 	strblt	r0, [r0], #-156	; 0x9c
    131c:	9040009c 	umaalls	r0, r0, ip, r0
    1320:	04000004 	streq	r0, [r0], #-4
    1324:	00061001 	andeq	r1, r6, r1
    1328:	6b180100 	blvs	601730 <_start-0x3fa068d0>
    132c:	b4000000 	strlt	r0, [r0], #-0
    1330:	1c40009c 	mcrrne	0, 9, r0, r0, cr12
    1334:	bc40009d 	mcrrlt	0, 9, r0, r0, cr13
    1338:	6b000004 	blvs	1350 <_start-0x40006cb0>
    133c:	05000000 	streq	r0, [r0, #-0]
    1340:	00706d74 	rsbseq	r6, r0, r4, ror sp
    1344:	006b1a01 	rsbeq	r1, fp, r1, lsl #20
    1348:	91020000 	mrsls	r0, (UNDEF: 2)
    134c:	04060078 	streq	r0, [r6], #-120	; 0x78
    1350:	746e6905 	strbtvc	r6, [lr], #-2309	; 0x905
	...

Disassembly of section .debug_abbrev:

00000000 <.debug_abbrev>:
   0:	10001101 	andne	r1, r0, r1, lsl #2
   4:	12011106 	andne	r1, r1, #-2147483647	; 0x80000001
   8:	1b080301 	blne	200c14 <_start-0x3fe073ec>
   c:	13082508 	movwne	r2, #34056	; 0x8508
  10:	00000005 	andeq	r0, r0, r5
  14:	25011101 	strcs	r1, [r1, #-257]	; 0x101
  18:	030b130e 	movweq	r1, #45838	; 0xb30e
  1c:	110e1b0e 	tstne	lr, lr, lsl #22
  20:	10011201 	andne	r1, r1, r1, lsl #4
  24:	02000006 	andeq	r0, r0, #6
  28:	0e030016 	mcreq	0, 0, r0, cr3, cr6, {0}
  2c:	0b3b0b3a 	bleq	ec2d1c <_start-0x3f1452e4>
  30:	00001349 	andeq	r1, r0, r9, asr #6
  34:	0b000f03 	bleq	3c48 <_start-0x400043b8>
  38:	000e030b 	andeq	r0, lr, fp, lsl #6
  3c:	00240400 	eoreq	r0, r4, r0, lsl #8
  40:	0b3e0b0b 	bleq	f82c74 <_start-0x3f08538c>
  44:	00000e03 	andeq	r0, r0, r3, lsl #28
  48:	03012e05 	movweq	r2, #7685	; 0x1e05
  4c:	3b0b3a0e 	blcc	2ce88c <_start-0x3fd39774>
  50:	490c270b 	stmdbmi	ip, {r0, r1, r3, r8, r9, sl, sp}
  54:	12011113 	andne	r1, r1, #-1073741820	; 0xc0000004
  58:	01064001 	tsteq	r6, r1
  5c:	06000013 			; <UNDEFINED> instruction: 0x06000013
  60:	08030005 	stmdaeq	r3, {r0, r2}
  64:	0b3b0b3a 	bleq	ec2d54 <_start-0x3f1452ac>
  68:	0a021349 	beq	84d94 <_start-0x3ff8326c>
  6c:	2e070000 	cdpcs	0, 0, cr0, cr7, cr0, {0}
  70:	030c3f01 	movweq	r3, #52993	; 0xcf01
  74:	3b0b3a0e 	blcc	2ce8b4 <_start-0x3fd3974c>
  78:	490c270b 	stmdbmi	ip, {r0, r1, r3, r8, r9, sl, sp}
  7c:	12011113 	andne	r1, r1, #-1073741820	; 0xc0000004
  80:	01064001 	tsteq	r6, r1
  84:	08000013 	stmdaeq	r0, {r0, r1, r4}
  88:	0e030005 	cdpeq	0, 0, cr0, cr3, cr5, {0}
  8c:	0b3b0b3a 	bleq	ec2d7c <_start-0x3f145284>
  90:	0a021349 	beq	84dbc <_start-0x3ff83244>
  94:	34090000 	strcc	r0, [r9], #-0
  98:	3a0e0300 	bcc	380ca0 <_start-0x3fc87360>
  9c:	490b3b0b 	stmdbmi	fp, {r0, r1, r3, r8, r9, fp, ip, sp}
  a0:	000a0213 	andeq	r0, sl, r3, lsl r2
  a4:	000f0a00 	andeq	r0, pc, r0, lsl #20
  a8:	13490b0b 	movtne	r0, #39691	; 0x9b0b
  ac:	260b0000 	strcs	r0, [fp], -r0
  b0:	00134900 	andseq	r4, r3, r0, lsl #18
  b4:	00340c00 	eorseq	r0, r4, r0, lsl #24
  b8:	0b3a0803 	bleq	e820cc <_start-0x3f185f34>
  bc:	13490b3b 	movtne	r0, #39739	; 0x9b3b
  c0:	00000a02 	andeq	r0, r0, r2, lsl #20
  c4:	0b00240d 	bleq	9100 <_start-0x3fffef00>
  c8:	030b3e0b 	movweq	r3, #48651	; 0xbe0b
  cc:	0e000008 	cdpeq	0, 0, cr0, cr0, cr8, {0}
  d0:	0111010b 	tsteq	r1, fp, lsl #2
  d4:	00000112 	andeq	r0, r0, r2, lsl r1
  d8:	4901010f 	stmdbmi	r1, {r0, r1, r2, r3, r8}
  dc:	00130113 	andseq	r0, r3, r3, lsl r1
  e0:	00211000 	eoreq	r1, r1, r0
  e4:	0b2f1349 	bleq	bc4e10 <_start-0x3f4431f0>
  e8:	0a110000 	beq	4400f0 <_start-0x3fbc7f10>
  ec:	3a0e0300 	bcc	380cf4 <_start-0x3fc8730c>
  f0:	110b3b0b 	tstne	fp, fp, lsl #22
  f4:	12000001 	andne	r0, r0, #1
  f8:	0111010b 	tsteq	r1, fp, lsl #2
  fc:	13010112 	movwne	r0, #4370	; 0x1112
 100:	34130000 	ldrcc	r0, [r3], #-0
 104:	3a080300 	bcc	200d0c <_start-0x3fe072f4>
 108:	49053b0b 	stmdbmi	r5, {r0, r1, r3, r8, r9, fp, ip, sp}
 10c:	000a0213 	andeq	r0, sl, r3, lsl r2
 110:	012e1400 	teqeq	lr, r0, lsl #8
 114:	0e030c3f 	mcreq	12, 0, r0, cr3, cr15, {1}
 118:	053b0b3a 	ldreq	r0, [fp, #-2874]!	; 0xb3a
 11c:	13490c27 	movtne	r0, #39975	; 0x9c27
 120:	01120111 	tsteq	r2, r1, lsl r1
 124:	13010640 	movwne	r0, #5696	; 0x1640
 128:	05150000 	ldreq	r0, [r5, #-0]
 12c:	3a080300 	bcc	200d34 <_start-0x3fe072cc>
 130:	49053b0b 	stmdbmi	r5, {r0, r1, r3, r8, r9, fp, ip, sp}
 134:	000a0213 	andeq	r0, sl, r3, lsl r2
 138:	00181600 	andseq	r1, r8, r0, lsl #12
 13c:	34170000 	ldrcc	r0, [r7], #-0
 140:	3a0e0300 	bcc	380d48 <_start-0x3fc872b8>
 144:	49053b0b 	stmdbmi	r5, {r0, r1, r3, r8, r9, fp, ip, sp}
 148:	000a0213 	andeq	r0, sl, r3, lsl r2
 14c:	012e1800 	teqeq	lr, r0, lsl #16
 150:	0e030c3f 	mcreq	12, 0, r0, cr3, cr15, {1}
 154:	053b0b3a 	ldreq	r0, [fp, #-2874]!	; 0xb3a
 158:	01110c27 	tsteq	r1, r7, lsr #24
 15c:	06400112 			; <UNDEFINED> instruction: 0x06400112
 160:	00001301 	andeq	r1, r0, r1, lsl #6
 164:	03003419 	movweq	r3, #1049	; 0x419
 168:	3b0b3a0e 	blcc	2ce9a8 <_start-0x3fd39658>
 16c:	3f13490b 	svccc	0x0013490b
 170:	000a020c 	andeq	r0, sl, ip, lsl #4
 174:	11010000 	mrsne	r0, (UNDEF: 1)
 178:	130e2501 	movwne	r2, #58625	; 0xe501
 17c:	1b0e030b 	blne	380db0 <_start-0x3fc87250>
 180:	1201110e 	andne	r1, r1, #-2147483645	; 0x80000003
 184:	00061001 	andeq	r1, r6, r1
 188:	00240200 	eoreq	r0, r4, r0, lsl #4
 18c:	0b3e0b0b 	bleq	f82dc0 <_start-0x3f085240>
 190:	00000e03 	andeq	r0, r0, r3, lsl #28
 194:	0b011303 	bleq	44da8 <_start-0x3ffc3258>
 198:	3b0b3a0b 	blcc	2ce9cc <_start-0x3fd39634>
 19c:	00130105 	andseq	r0, r3, r5, lsl #2
 1a0:	000d0400 	andeq	r0, sp, r0, lsl #8
 1a4:	0b3a0803 	bleq	e821b8 <_start-0x3f185e48>
 1a8:	1349053b 	movtne	r0, #38203	; 0x953b
 1ac:	00000a38 	andeq	r0, r0, r8, lsr sl
 1b0:	03000d05 	movweq	r0, #3333	; 0xd05
 1b4:	3b0b3a0e 	blcc	2ce9f4 <_start-0x3fd3960c>
 1b8:	38134905 	ldmdacc	r3, {r0, r2, r8, fp, lr}
 1bc:	0600000a 	streq	r0, [r0], -sl
 1c0:	0e030016 	mcreq	0, 0, r0, cr3, cr6, {0}
 1c4:	053b0b3a 	ldreq	r0, [fp, #-2874]!	; 0xb3a
 1c8:	00001349 	andeq	r1, r0, r9, asr #6
 1cc:	3f002e07 	svccc	0x00002e07
 1d0:	3a0e030c 	bcc	380e08 <_start-0x3fc871f8>
 1d4:	110b3b0b 	tstne	fp, fp, lsl #22
 1d8:	40011201 	andmi	r1, r1, r1, lsl #4
 1dc:	08000006 	stmdaeq	r0, {r1, r2}
 1e0:	0c3f012e 	ldfeqs	f0, [pc], #-184	; 130 <_start-0x40007ed0>
 1e4:	0b3a0e03 	bleq	e839f8 <_start-0x3f184608>
 1e8:	13490b3b 	movtne	r0, #39739	; 0x9b3b
 1ec:	01120111 	tsteq	r2, r1, lsl r1
 1f0:	13010640 	movwne	r0, #5696	; 0x1640
 1f4:	34090000 	strcc	r0, [r9], #-0
 1f8:	3a0e0300 	bcc	380e00 <_start-0x3fc87200>
 1fc:	490b3b0b 	stmdbmi	fp, {r0, r1, r3, r8, r9, fp, ip, sp}
 200:	000a0213 	andeq	r0, sl, r3, lsl r2
 204:	012e0a00 	teqeq	lr, r0, lsl #20
 208:	0e030c3f 	mcreq	12, 0, r0, cr3, cr15, {1}
 20c:	0b3b0b3a 	bleq	ec2efc <_start-0x3f145104>
 210:	01110c27 	tsteq	r1, r7, lsr #24
 214:	06400112 			; <UNDEFINED> instruction: 0x06400112
 218:	00001301 	andeq	r1, r0, r1, lsl #6
 21c:	0300050b 	movweq	r0, #1291	; 0x50b
 220:	3b0b3a0e 	blcc	2cea60 <_start-0x3fd395a0>
 224:	0213490b 	andseq	r4, r3, #180224	; 0x2c000
 228:	0c00000a 	stceq	0, cr0, [r0], {10}
 22c:	0b0b000f 	bleq	2c0270 <_start-0x3fd47d90>
 230:	00001349 	andeq	r1, r0, r9, asr #6
 234:	4900260d 	stmdbmi	r0, {r0, r2, r3, r9, sl, sp}
 238:	00000013 	andeq	r0, r0, r3, lsl r0
 23c:	10001101 	andne	r1, r0, r1, lsl #2
 240:	12011106 	andne	r1, r1, #-2147483647	; 0x80000001
 244:	1b080301 	blne	200e50 <_start-0x3fe071b0>
 248:	13082508 	movwne	r2, #34056	; 0x8508
 24c:	00000005 	andeq	r0, r0, r5
 250:	10001101 	andne	r1, r0, r1, lsl #2
 254:	12011106 	andne	r1, r1, #-2147483647	; 0x80000001
 258:	1b080301 	blne	200e64 <_start-0x3fe0719c>
 25c:	13082508 	movwne	r2, #34056	; 0x8508
 260:	00000005 	andeq	r0, r0, r5
 264:	25011101 	strcs	r1, [r1, #-257]	; 0x101
 268:	030b130e 	movweq	r1, #45838	; 0xb30e
 26c:	110e1b0e 	tstne	lr, lr, lsl #22
 270:	10011201 	andne	r1, r1, r1, lsl #4
 274:	02000006 	andeq	r0, r0, #6
 278:	0b0b0024 	bleq	2c0310 <_start-0x3fd47cf0>
 27c:	0e030b3e 	vmoveq.16	d3[0], r0
 280:	13030000 	movwne	r0, #12288	; 0x3000
 284:	3a0b0b01 	bcc	2c2e90 <_start-0x3fd45170>
 288:	01053b0b 	tsteq	r5, fp, lsl #22
 28c:	04000013 	streq	r0, [r0], #-19
 290:	0e03000d 	cdpeq	0, 0, cr0, cr3, cr13, {0}
 294:	053b0b3a 	ldreq	r0, [fp, #-2874]!	; 0xb3a
 298:	0a381349 	beq	e04fc4 <_start-0x3f20303c>
 29c:	16050000 	strne	r0, [r5], -r0
 2a0:	3a0e0300 	bcc	380ea8 <_start-0x3fc87158>
 2a4:	49053b0b 	stmdbmi	r5, {r0, r1, r3, r8, r9, fp, ip, sp}
 2a8:	06000013 			; <UNDEFINED> instruction: 0x06000013
 2ac:	0c3f012e 	ldfeqs	f0, [pc], #-184	; 1fc <_start-0x40007e04>
 2b0:	0b3a0e03 	bleq	e83ac4 <_start-0x3f18453c>
 2b4:	0c270b3b 	stceq	11, cr0, [r7], #-236	; 0xffffff14
 2b8:	01120111 	tsteq	r2, r1, lsl r1
 2bc:	13010640 	movwne	r0, #5696	; 0x1640
 2c0:	34070000 	strcc	r0, [r7], #-0
 2c4:	3a0e0300 	bcc	380ecc <_start-0x3fc87134>
 2c8:	490b3b0b 	stmdbmi	fp, {r0, r1, r3, r8, r9, fp, ip, sp}
 2cc:	000a0213 	andeq	r0, sl, r3, lsl r2
 2d0:	00240800 	eoreq	r0, r4, r0, lsl #16
 2d4:	0b3e0b0b 	bleq	f82f08 <_start-0x3f0850f8>
 2d8:	00000803 	andeq	r0, r0, r3, lsl #16
 2dc:	01110100 	tsteq	r1, r0, lsl #2
 2e0:	0b130e25 	bleq	4c3b7c <_start-0x3fb44484>
 2e4:	0e1b0e03 	cdpeq	14, 1, cr0, cr11, cr3, {0}
 2e8:	01120111 	tsteq	r2, r1, lsl r1
 2ec:	00000610 	andeq	r0, r0, r0, lsl r6
 2f0:	0b002402 	bleq	9300 <_start-0x3fffed00>
 2f4:	030b3e0b 	movweq	r3, #48651	; 0xbe0b
 2f8:	0300000e 	movweq	r0, #14
 2fc:	0c3f012e 	ldfeqs	f0, [pc], #-184	; 24c <_start-0x40007db4>
 300:	0b3a0e03 	bleq	e83b14 <_start-0x3f1844ec>
 304:	0c270b3b 	stceq	11, cr0, [r7], #-236	; 0xffffff14
 308:	01120111 	tsteq	r2, r1, lsl r1
 30c:	13010640 	movwne	r0, #5696	; 0x1640
 310:	05040000 	streq	r0, [r4, #-0]
 314:	3a080300 	bcc	200f1c <_start-0x3fe070e4>
 318:	490b3b0b 	stmdbmi	fp, {r0, r1, r3, r8, r9, fp, ip, sp}
 31c:	000a0213 	andeq	r0, sl, r3, lsl r2
 320:	00340500 	eorseq	r0, r4, r0, lsl #10
 324:	0b3a0803 	bleq	e82338 <_start-0x3f185cc8>
 328:	13490b3b 	movtne	r0, #39739	; 0x9b3b
 32c:	00000a02 	andeq	r0, r0, r2, lsl #20
 330:	0b002406 	bleq	9350 <_start-0x3fffecb0>
 334:	030b3e0b 	movweq	r3, #48651	; 0xbe0b
 338:	07000008 	streq	r0, [r0, -r8]
 33c:	0c3f012e 	ldfeqs	f0, [pc], #-184	; 28c <_start-0x40007d74>
 340:	0b3a0e03 	bleq	e83b54 <_start-0x3f1844ac>
 344:	0c270b3b 	stceq	11, cr0, [r7], #-236	; 0xffffff14
 348:	01111349 	tsteq	r1, r9, asr #6
 34c:	06400112 			; <UNDEFINED> instruction: 0x06400112
 350:	34080000 	strcc	r0, [r8], #-0
 354:	3a0e0300 	bcc	380f5c <_start-0x3fc870a4>
 358:	490b3b0b 	stmdbmi	fp, {r0, r1, r3, r8, r9, fp, ip, sp}
 35c:	000a0213 	andeq	r0, sl, r3, lsl r2
 360:	11010000 	mrsne	r0, (UNDEF: 1)
 364:	130e2501 	movwne	r2, #58625	; 0xe501
 368:	1b0e030b 	blne	380f9c <_start-0x3fc87064>
 36c:	1201110e 	andne	r1, r1, #-2147483645	; 0x80000003
 370:	00061001 	andeq	r1, r6, r1
 374:	01130200 	tsteq	r3, r0, lsl #4
 378:	0b3a0b0b 	bleq	e82fac <_start-0x3f185054>
 37c:	1301053b 	movwne	r0, #5435	; 0x153b
 380:	0d030000 	stceq	0, cr0, [r3, #-0]
 384:	3a0e0300 	bcc	380f8c <_start-0x3fc87074>
 388:	49053b0b 	stmdbmi	r5, {r0, r1, r3, r8, r9, fp, ip, sp}
 38c:	000a3813 	andeq	r3, sl, r3, lsl r8
 390:	00240400 	eoreq	r0, r4, r0, lsl #8
 394:	0b3e0b0b 	bleq	f82fc8 <_start-0x3f085038>
 398:	00000e03 	andeq	r0, r0, r3, lsl #28
 39c:	03001605 	movweq	r1, #1541	; 0x605
 3a0:	3b0b3a08 	blcc	2cebc8 <_start-0x3fd39438>
 3a4:	00134905 	andseq	r4, r3, r5, lsl #18
 3a8:	000d0600 	andeq	r0, sp, r0, lsl #12
 3ac:	0b3a0803 	bleq	e823c0 <_start-0x3f185c40>
 3b0:	1349053b 	movtne	r0, #38203	; 0x953b
 3b4:	00000a38 	andeq	r0, r0, r8, lsr sl
 3b8:	03001607 	movweq	r1, #1543	; 0x607
 3bc:	3b0b3a0e 	blcc	2cebfc <_start-0x3fd39404>
 3c0:	00134905 	andseq	r4, r3, r5, lsl #18
 3c4:	002e0800 	eoreq	r0, lr, r0, lsl #16
 3c8:	0e030c3f 	mcreq	12, 0, r0, cr3, cr15, {1}
 3cc:	0b3b0b3a 	bleq	ec30bc <_start-0x3f144f44>
 3d0:	01120111 	tsteq	r2, r1, lsl r1
 3d4:	00000640 	andeq	r0, r0, r0, asr #12
 3d8:	01110100 	tsteq	r1, r0, lsl #2
 3dc:	0b130e25 	bleq	4c3c78 <_start-0x3fb44388>
 3e0:	0e1b0e03 	cdpeq	14, 1, cr0, cr11, cr3, {0}
 3e4:	01120111 	tsteq	r2, r1, lsl r1
 3e8:	00000610 	andeq	r0, r0, r0, lsl r6
 3ec:	0b002402 	bleq	93fc <_start-0x3fffec04>
 3f0:	030b3e0b 	movweq	r3, #48651	; 0xbe0b
 3f4:	0300000e 	movweq	r0, #14
 3f8:	0b0b0113 	bleq	2c084c <_start-0x3fd477b4>
 3fc:	053b0b3a 	ldreq	r0, [fp, #-2874]!	; 0xb3a
 400:	00001301 	andeq	r1, r0, r1, lsl #6
 404:	03000d04 	movweq	r0, #3332	; 0xd04
 408:	3b0b3a08 	blcc	2cec30 <_start-0x3fd393d0>
 40c:	38134905 	ldmdacc	r3, {r0, r2, r8, fp, lr}
 410:	0500000a 	streq	r0, [r0, #-10]
 414:	0e030016 	mcreq	0, 0, r0, cr3, cr6, {0}
 418:	053b0b3a 	ldreq	r0, [fp, #-2874]!	; 0xb3a
 41c:	00001349 	andeq	r1, r0, r9, asr #6
 420:	03000d06 	movweq	r0, #3334	; 0xd06
 424:	3b0b3a0e 	blcc	2cec64 <_start-0x3fd3939c>
 428:	38134905 	ldmdacc	r3, {r0, r2, r8, fp, lr}
 42c:	0700000a 	streq	r0, [r0, -sl]
 430:	0c3f002e 	ldceq	0, cr0, [pc], #-184	; 380 <_start-0x40007c80>
 434:	0b3a0e03 	bleq	e83c48 <_start-0x3f1843b8>
 438:	01110b3b 	tsteq	r1, fp, lsr fp
 43c:	06400112 			; <UNDEFINED> instruction: 0x06400112
 440:	01000000 	mrseq	r0, (UNDEF: 0)
 444:	0e250111 	mcreq	1, 1, r0, cr5, cr1, {0}
 448:	0e030b13 	vmoveq.32	d3[0], r0
 44c:	01110e1b 	tsteq	r1, fp, lsl lr
 450:	06100112 			; <UNDEFINED> instruction: 0x06100112
 454:	24020000 	strcs	r0, [r2], #-0
 458:	3e0b0b00 	vmlacc.f64	d0, d11, d0
 45c:	000e030b 	andeq	r0, lr, fp, lsl #6
 460:	01130300 	tsteq	r3, r0, lsl #6
 464:	0b3a0b0b 	bleq	e83098 <_start-0x3f184f68>
 468:	1301053b 	movwne	r0, #5435	; 0x153b
 46c:	0d040000 	stceq	0, cr0, [r4, #-0]
 470:	3a080300 	bcc	201078 <_start-0x3fe06f88>
 474:	49053b0b 	stmdbmi	r5, {r0, r1, r3, r8, r9, fp, ip, sp}
 478:	000a3813 	andeq	r3, sl, r3, lsl r8
 47c:	000d0500 	andeq	r0, sp, r0, lsl #10
 480:	0b3a0e03 	bleq	e83c94 <_start-0x3f18436c>
 484:	1349053b 	movtne	r0, #38203	; 0x953b
 488:	00000a38 	andeq	r0, r0, r8, lsr sl
 48c:	03001606 	movweq	r1, #1542	; 0x606
 490:	3b0b3a0e 	blcc	2cecd0 <_start-0x3fd39330>
 494:	00134905 	andseq	r4, r3, r5, lsl #18
 498:	002e0700 	eoreq	r0, lr, r0, lsl #14
 49c:	0e030c3f 	mcreq	12, 0, r0, cr3, cr15, {1}
 4a0:	0b3b0b3a 	bleq	ec3190 <_start-0x3f144e70>
 4a4:	01120111 	tsteq	r2, r1, lsl r1
 4a8:	00000640 	andeq	r0, r0, r0, asr #12
 4ac:	3f012e08 	svccc	0x00012e08
 4b0:	3a0e030c 	bcc	3810e8 <_start-0x3fc86f18>
 4b4:	270b3b0b 	strcs	r3, [fp, -fp, lsl #22]
 4b8:	1201110c 	andne	r1, r1, #12, 2
 4bc:	01064001 	tsteq	r6, r1
 4c0:	09000013 	stmdbeq	r0, {r0, r1, r4}
 4c4:	08030005 	stmdaeq	r3, {r0, r2}
 4c8:	0b3b0b3a 	bleq	ec31b8 <_start-0x3f144e48>
 4cc:	0a021349 	beq	851f8 <_start-0x3ff82e08>
 4d0:	240a0000 	strcs	r0, [sl], #-0
 4d4:	3e0b0b00 	vmlacc.f64	d0, d11, d0
 4d8:	0008030b 	andeq	r0, r8, fp, lsl #6
 4dc:	012e0b00 	teqeq	lr, r0, lsl #22
 4e0:	0e030c3f 	mcreq	12, 0, r0, cr3, cr15, {1}
 4e4:	0b3b0b3a 	bleq	ec31d4 <_start-0x3f144e2c>
 4e8:	01110c27 	tsteq	r1, r7, lsr #24
 4ec:	06400112 			; <UNDEFINED> instruction: 0x06400112
 4f0:	01000000 	mrseq	r0, (UNDEF: 0)
 4f4:	0e250111 	mcreq	1, 1, r0, cr5, cr1, {0}
 4f8:	0e030b13 	vmoveq.32	d3[0], r0
 4fc:	01110e1b 	tsteq	r1, fp, lsl lr
 500:	06100112 			; <UNDEFINED> instruction: 0x06100112
 504:	24020000 	strcs	r0, [r2], #-0
 508:	3e0b0b00 	vmlacc.f64	d0, d11, d0
 50c:	000e030b 	andeq	r0, lr, fp, lsl #6
 510:	002e0300 	eoreq	r0, lr, r0, lsl #6
 514:	0e030c3f 	mcreq	12, 0, r0, cr3, cr15, {1}
 518:	0b3b0b3a 	bleq	ec3208 <_start-0x3f144df8>
 51c:	01120111 	tsteq	r2, r1, lsl r1
 520:	00000640 	andeq	r0, r0, r0, asr #12
 524:	3f012e04 	svccc	0x00012e04
 528:	3a0e030c 	bcc	381160 <_start-0x3fc86ea0>
 52c:	490b3b0b 	stmdbmi	fp, {r0, r1, r3, r8, r9, fp, ip, sp}
 530:	12011113 	andne	r1, r1, #-1073741820	; 0xc0000004
 534:	01064001 	tsteq	r6, r1
 538:	05000013 	streq	r0, [r0, #-19]
 53c:	08030034 	stmdaeq	r3, {r2, r4, r5}
 540:	0b3b0b3a 	bleq	ec3230 <_start-0x3f144dd0>
 544:	0a021349 	beq	85270 <_start-0x3ff82d90>
 548:	24060000 	strcs	r0, [r6], #-0
 54c:	3e0b0b00 	vmlacc.f64	d0, d11, d0
 550:	0008030b 	andeq	r0, r8, fp, lsl #6
	...

Disassembly of section .debug_aranges:

00000000 <.debug_aranges>:
   0:	0000001c 	andeq	r0, r0, ip, lsl r0
   4:	00000002 	andeq	r0, r0, r2
   8:	00040000 	andeq	r0, r4, r0
   c:	00000000 	andeq	r0, r0, r0
  10:	40008000 	andmi	r8, r0, r0
  14:	00000134 	andeq	r0, r0, r4, lsr r1
	...
  20:	0000001c 	andeq	r0, r0, ip, lsl r0
  24:	009c0002 	addseq	r0, ip, r2
  28:	00040000 	andeq	r0, r4, r0
  2c:	00000000 	andeq	r0, r0, r0
  30:	40008140 	andmi	r8, r0, r0, asr #2
  34:	000011d8 	ldrdeq	r1, [r0], -r8
	...
  40:	0000001c 	andeq	r0, r0, ip, lsl r0
  44:	05510002 	ldrbeq	r0, [r1, #-2]
  48:	00040000 	andeq	r0, r4, r0
  4c:	00000000 	andeq	r0, r0, r0
  50:	40009318 	andmi	r9, r0, r8, lsl r3
  54:	00000200 	andeq	r0, r0, r0, lsl #4
	...
  60:	0000001c 	andeq	r0, r0, ip, lsl r0
  64:	07b40002 	ldreq	r0, [r4, r2]!
  68:	00040000 	andeq	r0, r4, r0
  6c:	00000000 	andeq	r0, r0, r0
  70:	40009518 	andmi	r9, r0, r8, lsl r5
  74:	000000b0 	strheq	r0, [r0], -r0	; <UNPREDICTABLE>
	...
  80:	0000001c 	andeq	r0, r0, ip, lsl r0
  84:	08580002 	ldmdaeq	r8, {r1}^
  88:	00040000 	andeq	r0, r4, r0
  8c:	00000000 	andeq	r0, r0, r0
  90:	400095c8 	andmi	r9, r0, r8, asr #11
  94:	00000094 	muleq	r0, r4, r0
	...
  a0:	0000001c 	andeq	r0, r0, ip, lsl r0
  a4:	08fc0002 	ldmeq	ip!, {r1}^
  a8:	00040000 	andeq	r0, r4, r0
  ac:	00000000 	andeq	r0, r0, r0
  b0:	4000965c 	andmi	r9, r0, ip, asr r6
  b4:	00000074 	andeq	r0, r0, r4, ror r0
	...
  c0:	0000001c 	andeq	r0, r0, ip, lsl r0
  c4:	0a040002 	beq	1000d4 <_start-0x3ff07f2c>
  c8:	00040000 	andeq	r0, r4, r0
  cc:	00000000 	andeq	r0, r0, r0
  d0:	400096d0 	ldrdmi	r9, [r0], -r0
  d4:	00000118 	andeq	r0, r0, r8, lsl r1
	...
  e0:	0000001c 	andeq	r0, r0, ip, lsl r0
  e4:	0a9f0002 	beq	fe7c00f4 <_ctype+0xbe7b5b74>
  e8:	00040000 	andeq	r0, r4, r0
  ec:	00000000 	andeq	r0, r0, r0
  f0:	400097e8 	andmi	r9, r0, r8, ror #15
  f4:	00000104 	andeq	r0, r0, r4, lsl #2
	...
 100:	0000001c 	andeq	r0, r0, ip, lsl r0
 104:	0c9c0002 	ldceq	0, cr0, [ip], {2}
 108:	00040000 	andeq	r0, r4, r0
 10c:	00000000 	andeq	r0, r0, r0
 110:	400098ec 	andmi	r9, r0, ip, ror #17
 114:	00000174 	andeq	r0, r0, r4, ror r1
	...
 120:	0000001c 	andeq	r0, r0, ip, lsl r0
 124:	113b0002 	teqne	fp, r2
 128:	00040000 	andeq	r0, r4, r0
 12c:	00000000 	andeq	r0, r0, r0
 130:	40009a60 	andmi	r9, r0, r0, ror #20
 134:	000001fc 	strdeq	r0, [r0], -ip
	...
 140:	0000001c 	andeq	r0, r0, ip, lsl r0
 144:	12e30002 	rscne	r0, r3, #2
 148:	00040000 	andeq	r0, r4, r0
 14c:	00000000 	andeq	r0, r0, r0
 150:	40009c5c 	andmi	r9, r0, ip, asr ip
 154:	000000c0 	andeq	r0, r0, r0, asr #1
	...

Disassembly of section .debug_loc:

00000000 <.debug_loc>:
   0:	00000000 	andeq	r0, r0, r0
   4:	00000004 	andeq	r0, r0, r4
   8:	007d0002 	rsbseq	r0, sp, r2
   c:	00000004 	andeq	r0, r0, r4
  10:	00000008 	andeq	r0, r0, r8
  14:	047d0002 	ldrbteq	r0, [sp], #-2
  18:	00000008 	andeq	r0, r0, r8
  1c:	00000050 	andeq	r0, r0, r0, asr r0
  20:	047b0002 	ldrbteq	r0, [fp], #-2
	...
  2c:	00000050 	andeq	r0, r0, r0, asr r0
  30:	00000054 	andeq	r0, r0, r4, asr r0
  34:	007d0002 	rsbseq	r0, sp, r2
  38:	00000054 	andeq	r0, r0, r4, asr r0
  3c:	00000058 	andeq	r0, r0, r8, asr r0
  40:	087d0002 	ldmdaeq	sp!, {r1}^
  44:	00000058 	andeq	r0, r0, r8, asr r0
  48:	000001f4 	strdeq	r0, [r0], -r4
  4c:	047b0002 	ldrbteq	r0, [fp], #-2
	...
  58:	000001f4 	strdeq	r0, [r0], -r4
  5c:	000001f8 	strdeq	r0, [r0], -r8
  60:	007d0002 	rsbseq	r0, sp, r2
  64:	000001f8 	strdeq	r0, [r0], -r8
  68:	000001fc 	strdeq	r0, [r0], -ip
  6c:	087d0002 	ldmdaeq	sp!, {r1}^
  70:	000001fc 	strdeq	r0, [r0], -ip
  74:	00000260 	andeq	r0, r0, r0, ror #4
  78:	047b0002 	ldrbteq	r0, [fp], #-2
	...
  84:	00000260 	andeq	r0, r0, r0, ror #4
  88:	00000264 	andeq	r0, r0, r4, ror #4
  8c:	007d0002 	rsbseq	r0, sp, r2
  90:	00000264 	andeq	r0, r0, r4, ror #4
  94:	00000268 	andeq	r0, r0, r8, ror #4
  98:	047d0002 	ldrbteq	r0, [sp], #-2
  9c:	00000268 	andeq	r0, r0, r8, ror #4
  a0:	000002f4 	strdeq	r0, [r0], -r4
  a4:	047b0002 	ldrbteq	r0, [fp], #-2
	...
  b0:	000002f4 	strdeq	r0, [r0], -r4
  b4:	000002f8 	strdeq	r0, [r0], -r8
  b8:	007d0002 	rsbseq	r0, sp, r2
  bc:	000002f8 	strdeq	r0, [r0], -r8
  c0:	000002fc 	strdeq	r0, [r0], -ip
  c4:	087d0002 	ldmdaeq	sp!, {r1}^
  c8:	000002fc 	strdeq	r0, [r0], -ip
  cc:	00000788 	andeq	r0, r0, r8, lsl #15
  d0:	047b0002 	ldrbteq	r0, [fp], #-2
	...
  dc:	00000788 	andeq	r0, r0, r8, lsl #15
  e0:	0000078c 	andeq	r0, r0, ip, lsl #15
  e4:	007d0002 	rsbseq	r0, sp, r2
  e8:	0000078c 	andeq	r0, r0, ip, lsl #15
  ec:	00000790 	muleq	r0, r0, r7
  f0:	047d0002 	ldrbteq	r0, [sp], #-2
  f4:	00000790 	muleq	r0, r0, r7
  f8:	00000808 	andeq	r0, r0, r8, lsl #16
  fc:	047b0002 	ldrbteq	r0, [fp], #-2
	...
 108:	00000808 	andeq	r0, r0, r8, lsl #16
 10c:	0000080c 	andeq	r0, r0, ip, lsl #16
 110:	007d0002 	rsbseq	r0, sp, r2
 114:	0000080c 	andeq	r0, r0, ip, lsl #16
 118:	00000810 	andeq	r0, r0, r0, lsl r8
 11c:	087d0002 	ldmdaeq	sp!, {r1}^
 120:	00000810 	andeq	r0, r0, r0, lsl r8
 124:	00001130 	andeq	r1, r0, r0, lsr r1
 128:	047b0002 	ldrbteq	r0, [fp], #-2
	...
 134:	00001130 	andeq	r1, r0, r0, lsr r1
 138:	00001134 	andeq	r1, r0, r4, lsr r1
 13c:	007d0002 	rsbseq	r0, sp, r2
 140:	00001134 	andeq	r1, r0, r4, lsr r1
 144:	00001138 	andeq	r1, r0, r8, lsr r1
 148:	0c7d0002 	ldcleq	0, cr0, [sp], #-8
 14c:	00001138 	andeq	r1, r0, r8, lsr r1
 150:	0000113c 	andeq	r1, r0, ip, lsr r1
 154:	147d0002 	ldrbtne	r0, [sp], #-2
 158:	0000113c 	andeq	r1, r0, ip, lsr r1
 15c:	00001180 	andeq	r1, r0, r0, lsl #3
 160:	107b0002 	rsbsne	r0, fp, r2
	...
 16c:	00001180 	andeq	r1, r0, r0, lsl #3
 170:	00001184 	andeq	r1, r0, r4, lsl #3
 174:	007d0002 	rsbseq	r0, sp, r2
 178:	00001184 	andeq	r1, r0, r4, lsl #3
 17c:	00001188 	andeq	r1, r0, r8, lsl #3
 180:	107d0002 	rsbsne	r0, sp, r2
 184:	00001188 	andeq	r1, r0, r8, lsl #3
 188:	0000118c 	andeq	r1, r0, ip, lsl #3
 18c:	187d0002 	ldmdane	sp!, {r1}^
 190:	0000118c 	andeq	r1, r0, ip, lsl #3
 194:	000011d8 	ldrdeq	r1, [r0], -r8
 198:	147b0002 	ldrbtne	r0, [fp], #-2
	...
 1a8:	00000004 	andeq	r0, r0, r4
 1ac:	007d0002 	rsbseq	r0, sp, r2
 1b0:	00000004 	andeq	r0, r0, r4
 1b4:	00000008 	andeq	r0, r0, r8
 1b8:	047d0002 	ldrbteq	r0, [sp], #-2
 1bc:	00000008 	andeq	r0, r0, r8
 1c0:	00000080 	andeq	r0, r0, r0, lsl #1
 1c4:	047b0002 	ldrbteq	r0, [fp], #-2
	...
 1d0:	00000080 	andeq	r0, r0, r0, lsl #1
 1d4:	00000084 	andeq	r0, r0, r4, lsl #1
 1d8:	007d0002 	rsbseq	r0, sp, r2
 1dc:	00000084 	andeq	r0, r0, r4, lsl #1
 1e0:	00000088 	andeq	r0, r0, r8, lsl #1
 1e4:	047d0002 	ldrbteq	r0, [sp], #-2
 1e8:	00000088 	andeq	r0, r0, r8, lsl #1
 1ec:	000000dc 	ldrdeq	r0, [r0], -ip
 1f0:	047b0002 	ldrbteq	r0, [fp], #-2
	...
 1fc:	000000dc 	ldrdeq	r0, [r0], -ip
 200:	000000e0 	andeq	r0, r0, r0, ror #1
 204:	007d0002 	rsbseq	r0, sp, r2
 208:	000000e0 	andeq	r0, r0, r0, ror #1
 20c:	000000e4 	andeq	r0, r0, r4, ror #1
 210:	087d0002 	ldmdaeq	sp!, {r1}^
 214:	000000e4 	andeq	r0, r0, r4, ror #1
 218:	00000160 	andeq	r0, r0, r0, ror #2
 21c:	047b0002 	ldrbteq	r0, [fp], #-2
	...
 228:	00000160 	andeq	r0, r0, r0, ror #2
 22c:	00000164 	andeq	r0, r0, r4, ror #2
 230:	007d0002 	rsbseq	r0, sp, r2
 234:	00000164 	andeq	r0, r0, r4, ror #2
 238:	00000168 	andeq	r0, r0, r8, ror #2
 23c:	087d0002 	ldmdaeq	sp!, {r1}^
 240:	00000168 	andeq	r0, r0, r8, ror #2
 244:	000001b8 			; <UNDEFINED> instruction: 0x000001b8
 248:	047b0002 	ldrbteq	r0, [fp], #-2
	...
 254:	000001b8 			; <UNDEFINED> instruction: 0x000001b8
 258:	000001bc 			; <UNDEFINED> instruction: 0x000001bc
 25c:	007d0002 	rsbseq	r0, sp, r2
 260:	000001bc 			; <UNDEFINED> instruction: 0x000001bc
 264:	000001c0 	andeq	r0, r0, r0, asr #3
 268:	087d0002 	ldmdaeq	sp!, {r1}^
 26c:	000001c0 	andeq	r0, r0, r0, asr #3
 270:	00000200 	andeq	r0, r0, r0, lsl #4
 274:	047b0002 	ldrbteq	r0, [fp], #-2
	...
 284:	00000004 	andeq	r0, r0, r4
 288:	007d0002 	rsbseq	r0, sp, r2
 28c:	00000004 	andeq	r0, r0, r4
 290:	00000008 	andeq	r0, r0, r8
 294:	087d0002 	ldmdaeq	sp!, {r1}^
 298:	00000008 	andeq	r0, r0, r8
 29c:	00000074 	andeq	r0, r0, r4, ror r0
 2a0:	047b0002 	ldrbteq	r0, [fp], #-2
	...
 2b0:	00000004 	andeq	r0, r0, r4
 2b4:	007d0002 	rsbseq	r0, sp, r2
 2b8:	00000004 	andeq	r0, r0, r4
 2bc:	00000008 	andeq	r0, r0, r8
 2c0:	047d0002 	ldrbteq	r0, [sp], #-2
 2c4:	00000008 	andeq	r0, r0, r8
 2c8:	00000098 	muleq	r0, r8, r0
 2cc:	047b0002 	ldrbteq	r0, [fp], #-2
	...
 2d8:	00000098 	muleq	r0, r8, r0
 2dc:	0000009c 	muleq	r0, ip, r0
 2e0:	007d0002 	rsbseq	r0, sp, r2
 2e4:	0000009c 	muleq	r0, ip, r0
 2e8:	000000a0 	andeq	r0, r0, r0, lsr #1
 2ec:	087d0002 	ldmdaeq	sp!, {r1}^
 2f0:	000000a0 	andeq	r0, r0, r0, lsr #1
 2f4:	00000118 	andeq	r0, r0, r8, lsl r1
 2f8:	047b0002 	ldrbteq	r0, [fp], #-2
	...
 308:	00000004 	andeq	r0, r0, r4
 30c:	007d0002 	rsbseq	r0, sp, r2
 310:	00000004 	andeq	r0, r0, r4
 314:	00000008 	andeq	r0, r0, r8
 318:	047d0002 	ldrbteq	r0, [sp], #-2
 31c:	00000008 	andeq	r0, r0, r8
 320:	000000ac 	andeq	r0, r0, ip, lsr #1
 324:	047b0002 	ldrbteq	r0, [fp], #-2
	...
 330:	000000ac 	andeq	r0, r0, ip, lsr #1
 334:	000000b0 	strheq	r0, [r0], -r0	; <UNPREDICTABLE>
 338:	007d0002 	rsbseq	r0, sp, r2
 33c:	000000b0 	strheq	r0, [r0], -r0	; <UNPREDICTABLE>
 340:	000000b4 	strheq	r0, [r0], -r4
 344:	047d0002 	ldrbteq	r0, [sp], #-2
 348:	000000b4 	strheq	r0, [r0], -r4
 34c:	000000d8 	ldrdeq	r0, [r0], -r8
 350:	047b0002 	ldrbteq	r0, [fp], #-2
	...
 35c:	000000d8 	ldrdeq	r0, [r0], -r8
 360:	000000dc 	ldrdeq	r0, [r0], -ip
 364:	007d0002 	rsbseq	r0, sp, r2
 368:	000000dc 	ldrdeq	r0, [r0], -ip
 36c:	000000e0 	andeq	r0, r0, r0, ror #1
 370:	047d0002 	ldrbteq	r0, [sp], #-2
 374:	000000e0 	andeq	r0, r0, r0, ror #1
 378:	00000104 	andeq	r0, r0, r4, lsl #2
 37c:	047b0002 	ldrbteq	r0, [fp], #-2
	...
 38c:	00000004 	andeq	r0, r0, r4
 390:	007d0002 	rsbseq	r0, sp, r2
 394:	00000004 	andeq	r0, r0, r4
 398:	00000008 	andeq	r0, r0, r8
 39c:	047d0002 	ldrbteq	r0, [sp], #-2
 3a0:	00000008 	andeq	r0, r0, r8
 3a4:	000000dc 	ldrdeq	r0, [r0], -ip
 3a8:	047b0002 	ldrbteq	r0, [fp], #-2
	...
 3b4:	000000dc 	ldrdeq	r0, [r0], -ip
 3b8:	000000e0 	andeq	r0, r0, r0, ror #1
 3bc:	007d0002 	rsbseq	r0, sp, r2
 3c0:	000000e0 	andeq	r0, r0, r0, ror #1
 3c4:	000000e4 	andeq	r0, r0, r4, ror #1
 3c8:	087d0002 	ldmdaeq	sp!, {r1}^
 3cc:	000000e4 	andeq	r0, r0, r4, ror #1
 3d0:	00000128 	andeq	r0, r0, r8, lsr #2
 3d4:	047b0002 	ldrbteq	r0, [fp], #-2
	...
 3e0:	00000128 	andeq	r0, r0, r8, lsr #2
 3e4:	0000012c 	andeq	r0, r0, ip, lsr #2
 3e8:	007d0002 	rsbseq	r0, sp, r2
 3ec:	0000012c 	andeq	r0, r0, ip, lsr #2
 3f0:	00000130 	andeq	r0, r0, r0, lsr r1
 3f4:	087d0002 	ldmdaeq	sp!, {r1}^
 3f8:	00000130 	andeq	r0, r0, r0, lsr r1
 3fc:	00000174 	andeq	r0, r0, r4, ror r1
 400:	047b0002 	ldrbteq	r0, [fp], #-2
	...
 410:	00000004 	andeq	r0, r0, r4
 414:	007d0002 	rsbseq	r0, sp, r2
 418:	00000004 	andeq	r0, r0, r4
 41c:	00000008 	andeq	r0, r0, r8
 420:	047d0002 	ldrbteq	r0, [sp], #-2
 424:	00000008 	andeq	r0, r0, r8
 428:	000000a4 	andeq	r0, r0, r4, lsr #1
 42c:	047b0002 	ldrbteq	r0, [fp], #-2
	...
 438:	000000a4 	andeq	r0, r0, r4, lsr #1
 43c:	000000a8 	andeq	r0, r0, r8, lsr #1
 440:	007d0002 	rsbseq	r0, sp, r2
 444:	000000a8 	andeq	r0, r0, r8, lsr #1
 448:	000000ac 	andeq	r0, r0, ip, lsr #1
 44c:	047d0002 	ldrbteq	r0, [sp], #-2
 450:	000000ac 	andeq	r0, r0, ip, lsr #1
 454:	00000150 	andeq	r0, r0, r0, asr r1
 458:	047b0002 	ldrbteq	r0, [fp], #-2
	...
 464:	00000150 	andeq	r0, r0, r0, asr r1
 468:	00000154 	andeq	r0, r0, r4, asr r1
 46c:	007d0002 	rsbseq	r0, sp, r2
 470:	00000154 	andeq	r0, r0, r4, asr r1
 474:	00000158 	andeq	r0, r0, r8, asr r1
 478:	047d0002 	ldrbteq	r0, [sp], #-2
 47c:	00000158 	andeq	r0, r0, r8, asr r1
 480:	000001fc 	strdeq	r0, [r0], -ip
 484:	047b0002 	ldrbteq	r0, [fp], #-2
	...
 494:	00000004 	andeq	r0, r0, r4
 498:	007d0002 	rsbseq	r0, sp, r2
 49c:	00000004 	andeq	r0, r0, r4
 4a0:	00000008 	andeq	r0, r0, r8
 4a4:	047d0002 	ldrbteq	r0, [sp], #-2
 4a8:	00000008 	andeq	r0, r0, r8
 4ac:	00000058 	andeq	r0, r0, r8, asr r0
 4b0:	047b0002 	ldrbteq	r0, [fp], #-2
	...
 4bc:	00000058 	andeq	r0, r0, r8, asr r0
 4c0:	0000005c 	andeq	r0, r0, ip, asr r0
 4c4:	007d0002 	rsbseq	r0, sp, r2
 4c8:	0000005c 	andeq	r0, r0, ip, asr r0
 4cc:	00000060 	andeq	r0, r0, r0, rrx
 4d0:	047d0002 	ldrbteq	r0, [sp], #-2
 4d4:	00000060 	andeq	r0, r0, r0, rrx
 4d8:	000000c0 	andeq	r0, r0, r0, asr #1
 4dc:	047b0002 	ldrbteq	r0, [fp], #-2
	...

Disassembly of section .debug_str:

00000000 <.debug_str>:
   0:	75625f5f 	strbvc	r5, [r2, #-3935]!	; 0xf5f
   4:	69746c69 	ldmdbvs	r4!, {r0, r3, r5, r6, sl, fp, sp, lr}^
   8:	61765f6e 	cmnvs	r6, lr, ror #30
   c:	73696c5f 	cmnvc	r9, #24320	; 0x5f00
  10:	69730074 	ldmdbvs	r3!, {r2, r4, r5, r6}^
  14:	656c706d 	strbvs	r7, [ip, #-109]!	; 0x6d
  18:	7274735f 	rsbsvc	r7, r4, #2080374785	; 0x7c000001
  1c:	6c756f74 	ldclvs	15, cr6, [r5], #-464	; 0xfffffe30
  20:	6c617600 	stclvs	6, cr7, [r1], #-0
  24:	63006575 	movwvs	r6, #1397	; 0x575
  28:	746e756f 	strbtvc	r7, [lr], #-1391	; 0x56f
  2c:	745f5f00 	ldrbvc	r5, [pc], #-3840	; 34 <_start-0x40007fcc>
  30:	7070756f 	rsbsvc	r7, r0, pc, ror #10
  34:	5f007265 	svcpl	0x00007265
  38:	756e675f 	strbvc	r6, [lr, #-1887]!	; 0x75f
  3c:	61765f63 	cmnvs	r6, r3, ror #30
  40:	73696c5f 	cmnvc	r9, #24320	; 0x5f00
  44:	72700074 	rsbsvc	r0, r0, #116	; 0x74
  48:	73696365 	cmnvc	r9, #-1811939327	; 0x94000001
  4c:	006e6f69 	rsbeq	r6, lr, r9, ror #30
  50:	69736e75 	ldmdbvs	r3!, {r0, r2, r4, r5, r6, r9, sl, fp, sp, lr}^
  54:	64656e67 	strbtvs	r6, [r5], #-3687	; 0xe67
  58:	61686320 	cmnvs	r8, r0, lsr #6
  5c:	69730072 	ldmdbvs	r3!, {r1, r4, r5, r6}^
  60:	47006e67 	strmi	r6, [r0, -r7, ror #28]
  64:	4320554e 	teqmi	r0, #327155712	; 0x13800000
  68:	362e3420 	strtcc	r3, [lr], -r0, lsr #8
  6c:	6c00342e 	cfstrsvs	mvf3, [r0], {46}	; 0x2e
  70:	20676e6f 	rsbcs	r6, r7, pc, ror #28
  74:	69736e75 	ldmdbvs	r3!, {r0, r2, r4, r5, r6, r9, sl, fp, sp, lr}^
  78:	64656e67 	strbtvs	r6, [r5], #-3687	; 0xe67
  7c:	746e6920 	strbtvc	r6, [lr], #-2336	; 0x920
  80:	6d697300 	stclvs	3, cr7, [r9, #-0]
  84:	5f656c70 	svcpl	0x00656c70
  88:	74727473 	ldrbtvc	r7, [r2], #-1139	; 0x473
  8c:	63006c6f 	movwvs	r6, #3183	; 0xc6f
  90:	6f6d6d6f 	svcvs	0x006d6d6f
  94:	72732f6e 	rsbsvc	r2, r3, #440	; 0x1b8
  98:	72702f63 	rsbsvc	r2, r0, #396	; 0x18c
  9c:	66746e69 	ldrbtvs	r6, [r4], -r9, ror #28
  a0:	6200632e 	andvs	r6, r0, #-1207959552	; 0xb8000000
  a4:	00657361 	rsbeq	r7, r5, r1, ror #6
  a8:	67616c66 	strbvs	r6, [r1, -r6, ror #24]!
  ac:	69730073 	ldmdbvs	r3!, {r0, r1, r4, r5, r6}^
  b0:	7100657a 	tstvc	r0, sl, ror r5
  b4:	696c6175 	stmdbvs	ip!, {r0, r2, r4, r5, r6, r8, sp, lr}^
  b8:	72656966 	rsbvc	r6, r5, #1671168	; 0x198000
  bc:	696b7300 	stmdbvs	fp!, {r8, r9, ip, sp, lr}^
  c0:	74615f70 	strbtvc	r5, [r1], #-3952	; 0xf70
  c4:	2f00696f 	svccs	0x0000696f
  c8:	656d6f68 	strbvs	r6, [sp, #-3944]!	; 0xf68
  cc:	6c69772f 	stclvs	7, cr7, [r9], #-188	; 0xffffff44
  d0:	6f6f6264 	svcvs	0x006f6264
  d4:	6f442f6b 	svcvs	0x00442f6b
  d8:	656d7563 	strbvs	r7, [sp, #-1379]!	; 0x563
  dc:	2f73746e 	svccs	0x0073746e
  e0:	e52e3430 	str	r3, [lr, #-1072]!	; 0x430
  e4:	b8e68e8d 	stmialt	r6!, {r0, r2, r3, r7, r9, sl, fp, pc}^
  e8:	9cbfe885 	ldcls	8, cr14, [pc], #532	; 304 <_start-0x40007cfc>
  ec:	e581a7e8 	str	sl, [r1, #2024]	; 0x7e8
  f0:	aee8b99f 	mcrge	9, 7, fp, cr8, cr15, {4}
  f4:	94ace7ad 	strtls	lr, [ip], #1965	; 0x7ad
  f8:	2fb0aee8 	svccs	0x00b0aee8
  fc:	612e3630 	teqvs	lr, r0, lsr r6
 100:	342f6d72 	strtcc	r6, [pc], #-3442	; 108 <_start-0x40007ef8>
 104:	b8a3e82e 	stmialt	r3!, {r1, r2, r3, r5, fp, sp, lr, pc}
 108:	e7ba9ce6 	ldr	r9, [sl, r6, ror #25]!
 10c:	bae58ba8 	blt	ff962fb4 <_ctype+0xbf958a34>
 110:	2e322f8f 	cdpcs	15, 3, cr2, cr2, cr15, {4}
 114:	e4aab8e4 	strt	fp, [sl], #2276	; 0x8e4
 118:	bbe4baba 	bllt	ff92ec08 <_ctype+0xbf924688>
 11c:	81a0e7a3 	lsrhi	lr, r3, #15
 120:	612e352f 	teqvs	lr, pc, lsr #10
 124:	312f6364 	teqcc	pc, r4, ror #6
 128:	6364612e 	cmnvs	r4, #-2147483637	; 0x8000000b
 12c:	73657200 	cmnvc	r5, #0, 4
 130:	00746c75 	rsbseq	r6, r4, r5, ror ip
 134:	65706572 	ldrbvs	r6, [r0, #-1394]!	; 0x572
 138:	73007461 	movwvc	r7, #1121	; 0x461
 13c:	6c6e7274 	sfmvs	f7, 2, [lr], #-464	; 0xfffffe30
 140:	65006e65 	strvs	r6, [r0, #-3685]	; 0xe65
 144:	0070646e 	rsbseq	r6, r0, lr, ror #8
 148:	7974635f 	ldmdbvc	r4!, {r0, r1, r2, r3, r4, r6, r8, r9, sp, lr}^
 14c:	64006570 	strvs	r6, [r0], #-1392	; 0x570
 150:	74696769 	strbtvc	r6, [r9], #-1897	; 0x769
 154:	72700073 	rsbsvc	r0, r0, #115	; 0x73
 158:	62746e69 	rsbsvs	r6, r4, #1680	; 0x690
 15c:	65666675 	strbvs	r6, [r6, #-1653]!	; 0x675
 160:	69660072 	stmdbvs	r6!, {r1, r4, r5, r6}^
 164:	5f646c65 	svcpl	0x00646c65
 168:	74646977 	strbtvc	r6, [r4], #-2423	; 0x977
 16c:	72610068 	rsbvc	r0, r1, #104	; 0x68
 170:	6e007367 	cdpvs	3, 0, cr7, cr0, cr7, {3}
 174:	65626d75 	strbvs	r6, [r2, #-3445]!	; 0xd75
 178:	6f6c0072 	svcvs	0x006c0072
 17c:	6920676e 	stmdbvs	r0!, {r1, r2, r3, r5, r6, r8, r9, sl, sp, lr}
 180:	5f00746e 	svcpl	0x0000746e
 184:	7365725f 	cmnvc	r5, #-268435451	; 0xf0000005
 188:	70737600 	rsbsvc	r7, r3, r0, lsl #12
 18c:	746e6972 	strbtvc	r6, [lr], #-2418	; 0x972
 190:	61750066 	cmnvs	r5, r6, rrx
 194:	00327472 	eorseq	r7, r2, r2, ror r4
 198:	544e4955 	strbpl	r4, [lr], #-2389	; 0x955
 19c:	55003250 	strpl	r3, [r0, #-592]	; 0x250
 1a0:	53544e49 	cmppl	r4, #1168	; 0x490
 1a4:	55003250 	strpl	r3, [r0, #-592]	; 0x250
 1a8:	49445242 	stmdbmi	r4, {r1, r6, r9, ip, lr}^
 1ac:	70003256 	andvc	r3, r0, r6, asr r2
 1b0:	00727473 	rsbseq	r7, r2, r3, ror r4
 1b4:	54534655 	ldrbpl	r4, [r3], #-1621	; 0x655
 1b8:	00325441 	eorseq	r5, r2, r1, asr #8
 1bc:	53525455 	cmppl	r2, #1426063360	; 0x55000000
 1c0:	32544154 	subscc	r4, r4, #84, 2
 1c4:	74616400 	strbtvc	r6, [r1], #-1024	; 0x400
 1c8:	41550061 	cmpmi	r5, r1, rrx
 1cc:	495f5452 	ldmdbmi	pc, {r1, r4, r6, sl, ip, lr}^	; <UNPREDICTABLE>
 1d0:	0074696e 	rsbseq	r6, r4, lr, ror #18
 1d4:	4f434655 	svcmi	0x00434655
 1d8:	5500324e 	strpl	r3, [r0, #-590]	; 0x24e
 1dc:	32485854 	subcc	r5, r8, #84, 16	; 0x540000
 1e0:	4e4f4300 	cdpmi	3, 4, cr4, cr15, cr0, {0}
 1e4:	004e4450 	subeq	r4, lr, r0, asr r4
 1e8:	73746567 	cmnvc	r4, #432013312	; 0x19c00000
 1ec:	534d5500 	movtpl	r5, #54528	; 0xd500
 1f0:	32544154 	subscc	r4, r4, #84, 2
 1f4:	4e495500 	cdpmi	5, 4, cr5, cr9, cr0, {0}
 1f8:	00324d54 	eorseq	r4, r2, r4, asr sp
 1fc:	63747570 	cmnvs	r4, #112, 10	; 0x1c000000
 200:	00726168 	rsbseq	r6, r2, r8, ror #2
 204:	63746567 	cmnvs	r4, #432013312	; 0x19c00000
 208:	00726168 	rsbseq	r6, r2, r8, ror #2
 20c:	4f434c55 	svcmi	0x00434c55
 210:	6700324e 	strvs	r3, [r0, -lr, asr #4]
 214:	00316170 	eorseq	r6, r1, r0, ror r1
 218:	4e4f4355 	mcrmi	3, 2, r4, cr15, cr5, {2}
 21c:	45550032 	ldrbmi	r0, [r5, #-50]	; 0x32
 220:	41545352 	cmpmi	r4, r2, asr r3
 224:	50003254 	andpl	r3, r0, r4, asr r2
 228:	44504455 	ldrbmi	r4, [r0], #-1109	; 0x455
 22c:	6f63004e 	svcvs	0x0063004e
 230:	6e6f6d6d 	cdpvs	13, 6, cr6, cr15, cr13, {3}
 234:	6372732f 	cmnvs	r2, #-1140850688	; 0xbc000000
 238:	7261752f 	rsbvc	r7, r1, #197132288	; 0xbc00000
 23c:	00632e74 	rsbeq	r2, r3, r4, ror lr
 240:	73747570 	cmnvc	r4, #112, 10	; 0x1c000000
 244:	434d5500 	movtmi	r5, #54528	; 0xd500
 248:	00324e4f 	eorseq	r4, r2, pc, asr #28
 24c:	48585255 	ldmdami	r8, {r0, r2, r4, r6, r9, ip, lr}^
 250:	46550032 			; <UNDEFINED> instruction: 0x46550032
 254:	56434152 			; <UNDEFINED> instruction: 0x56434152
 258:	00324c41 	eorseq	r4, r2, r1, asr #24
 25c:	41434349 	cmpmi	r3, r9, asr #6
 260:	00525042 	subseq	r5, r2, r2, asr #32
 264:	49434349 	stmdbmi	r3, {r0, r3, r6, r8, r9, lr}^
 268:	49005241 	stmdbmi	r0, {r0, r6, r9, ip, lr}
 26c:	4f454343 	svcmi	0x00454343
 270:	49005249 	stmdbmi	r0, {r0, r3, r6, r9, ip, lr}
 274:	43494343 	movtmi	r4, #37699	; 0x9343
 278:	43490052 	movtmi	r0, #36946	; 0x9052
 27c:	49504843 	ldmdbmi	r0, {r0, r1, r6, fp, lr}^
 280:	72690052 	rsbvc	r0, r9, #82	; 0x52
 284:	756e5f71 	strbvc	r5, [lr, #-3953]!	; 0xf71
 288:	4349006d 	movtmi	r0, #36973	; 0x906d
 28c:	524d5043 	subpl	r5, sp, #67	; 0x43
 290:	544e4900 	strbpl	r4, [lr], #-2304	; 0x900
 294:	455f4745 	ldrbmi	r4, [pc, #-1861]	; fffffb57 <_ctype+0xbfff55d7>
 298:	4349004e 	movtmi	r0, #36942	; 0x904e
 29c:	52504243 	subspl	r4, r0, #805306372	; 0x30000004
 2a0:	5f6f6400 	svcpl	0x006f6400
 2a4:	00717269 	rsbseq	r7, r1, r9, ror #4
 2a8:	2e717269 	cdpcs	2, 7, cr7, cr1, cr9, {3}
 2ac:	4e490063 	cdpmi	0, 4, cr0, cr9, cr3, {3}
 2b0:	52524554 	subspl	r4, r2, #84, 10	; 0x15000000
 2b4:	5f545055 	svcpl	0x00545055
 2b8:	0054554f 	subseq	r5, r4, pc, asr #10
 2bc:	30757063 	rsbscc	r7, r5, r3, rrx
 2c0:	43434900 	movtmi	r4, #14592	; 0x3900
 2c4:	00525052 	subseq	r5, r2, r2, asr r0
 2c8:	6e69616d 	powvsez	f6, f1, #5.0
 2cc:	6d00632e 	stcvs	3, cr6, [r0, #-184]	; 0xffffff48
 2d0:	6c656479 	cfstrdvs	mvd6, [r5], #-484	; 0xfffffe1c
 2d4:	6d5f7961 	ldclvs	9, cr7, [pc, #-388]	; 158 <_start-0x40007ea8>
 2d8:	616d0073 	smcvs	53251	; 0xd003
 2dc:	54006e69 	strpl	r6, [r0], #-3689	; 0xe69
 2e0:	42544e43 	subsmi	r4, r4, #1072	; 0x430
 2e4:	43540031 	cmpmi	r4, #49	; 0x31
 2e8:	3042504d 	subcc	r5, r2, sp, asr #32
 2ec:	64706700 	ldrbtvs	r6, [r0], #-1792	; 0x700
 2f0:	43540030 	cmpmi	r4, #48	; 0x30
 2f4:	3142504d 	cmpcc	r2, sp, asr #32
 2f8:	4d435400 	cfstrdmi	mvd5, [r3, #-0]
 2fc:	00324250 	eorseq	r4, r2, r0, asr r2
 300:	504d4354 	subpl	r4, sp, r4, asr r3
 304:	62003342 	andvs	r3, r0, #134217729	; 0x8000001
 308:	5f706565 	svcpl	0x00706565
 30c:	0066666f 	rsbeq	r6, r6, pc, ror #12
 310:	2f637273 	svccs	0x00637273
 314:	2e6d7770 	mcrcs	7, 3, r7, cr13, cr0, {3}
 318:	65620063 	strbvs	r0, [r2, #-99]!	; 0x63
 31c:	6f5f7065 	svcvs	0x005f7065
 320:	5750006e 	ldrbpl	r0, [r0, -lr, rrx]
 324:	6e495f4d 	cdpvs	15, 4, cr5, cr9, cr13, {2}
 328:	54007469 	strpl	r7, [r0], #-1129	; 0x469
 32c:	42544e43 	subsmi	r4, r4, #1072	; 0x430
 330:	43540032 	cmpmi	r4, #50	; 0x32
 334:	3342544e 	movtcc	r5, #9294	; 0x244e
 338:	46435400 	strbmi	r5, [r3], -r0, lsl #8
 33c:	54003047 	strpl	r3, [r0], #-71	; 0x47
 340:	31474643 	cmpcc	r7, r3, asr #12
 344:	4f435400 	svcmi	0x00435400
 348:	4354004e 	cmpmi	r4, #78	; 0x4e
 34c:	304f544e 	subcc	r5, pc, lr, asr #8
 350:	4e435400 	cdpmi	4, 4, cr5, cr3, cr0, {0}
 354:	00314f54 	eorseq	r4, r1, r4, asr pc
 358:	544e4354 	strbpl	r4, [lr], #-852	; 0x354
 35c:	5400324f 	strpl	r3, [r0], #-591	; 0x24f
 360:	4f544e43 	svcmi	0x00544e43
 364:	43540033 	cmpmi	r4, #51	; 0x33
 368:	344f544e 	strbcc	r5, [pc], #-1102	; 370 <_start-0x40007c90>
 36c:	4e495400 	cdpmi	4, 4, cr5, cr9, cr0, {0}
 370:	53435f54 	movtpl	r5, #16212	; 0x3f54
 374:	00544154 	subseq	r4, r4, r4, asr r1
 378:	544e4354 	strbpl	r4, [lr], #-852	; 0x354
 37c:	54003042 	strpl	r3, [r0], #-66	; 0x42
 380:	42544e43 	subsmi	r4, r4, #1072	; 0x430
 384:	43490034 	movtmi	r0, #36916	; 0x9034
 388:	50434944 	subpl	r4, r3, r4, asr #18
 38c:	435f3052 	cmpmi	pc, #82	; 0x52
 390:	00305550 	eorseq	r5, r0, r0, asr r5
 394:	3379656b 	cmncc	r9, #448790528	; 0x1ac00000
 398:	7172695f 	cmnvc	r2, pc, asr r9
 39c:	63727300 	cmnvs	r2, #0, 6
 3a0:	79656b2f 	stmdbvc	r5!, {r0, r1, r2, r3, r5, r8, r9, fp, sp, lr}^
 3a4:	6b00632e 	blvs	19064 <_start-0x3ffeef9c>
 3a8:	695f7965 	ldmdbvs	pc, {r0, r2, r5, r6, r8, fp, ip, sp, lr}^	; <UNPREDICTABLE>
 3ac:	0074696e 	rsbseq	r6, r4, lr, ror #18
 3b0:	49444349 	stmdbmi	r4, {r0, r3, r6, r8, r9, lr}^
 3b4:	33525450 	cmpcc	r2, #80, 8	; 0x50000000
 3b8:	43490038 	movtmi	r0, #36920	; 0x9038
 3bc:	54504944 	ldrbpl	r4, [r0], #-2372	; 0x944
 3c0:	00303152 	eorseq	r3, r0, r2, asr r1
 3c4:	49444349 	stmdbmi	r4, {r0, r3, r6, r8, r9, lr}^
 3c8:	31525450 	cmpcc	r2, r0, asr r4
 3cc:	43490031 	movtmi	r0, #36913	; 0x9031
 3d0:	54504944 	ldrbpl	r4, [r0], #-2372	; 0x944
 3d4:	00323152 	eorseq	r3, r2, r2, asr r1
 3d8:	49444349 	stmdbmi	r4, {r0, r3, r6, r8, r9, lr}^
 3dc:	31525450 	cmpcc	r2, r0, asr r4
 3e0:	43490033 	movtmi	r0, #36915	; 0x9033
 3e4:	54504944 	ldrbpl	r4, [r0], #-2372	; 0x944
 3e8:	00343152 	eorseq	r3, r4, r2, asr r1
 3ec:	49444349 	stmdbmi	r4, {r0, r3, r6, r8, r9, lr}^
 3f0:	31525450 	cmpcc	r2, r0, asr r4
 3f4:	43490035 	movtmi	r0, #36917	; 0x9035
 3f8:	54504944 	ldrbpl	r4, [r0], #-2372	; 0x944
 3fc:	00363152 	eorseq	r3, r6, r2, asr r1
 400:	49444349 	stmdbmi	r4, {r0, r3, r6, r8, r9, lr}^
 404:	31525450 	cmpcc	r2, r0, asr r4
 408:	43490037 	movtmi	r0, #36919	; 0x9037
 40c:	54504944 	ldrbpl	r4, [r0], #-2372	; 0x944
 410:	00383152 	eorseq	r3, r8, r2, asr r1
 414:	49444349 	stmdbmi	r4, {r0, r3, r6, r8, r9, lr}^
 418:	31525450 	cmpcc	r2, r0, asr r4
 41c:	43490039 	movtmi	r0, #36921	; 0x9039
 420:	54504944 	ldrbpl	r4, [r0], #-2372	; 0x944
 424:	435f3752 	cmpmi	pc, #21495808	; 0x1480000
 428:	00305550 	eorseq	r5, r0, r0, asr r5
 42c:	49444349 	stmdbmi	r4, {r0, r3, r6, r8, r9, lr}^
 430:	35525450 	ldrbcc	r5, [r2, #-1104]	; 0x450
 434:	5550435f 	ldrbpl	r4, [r0, #-863]	; 0x35f
 438:	43490030 	movtmi	r0, #36912	; 0x9030
 43c:	54504944 	ldrbpl	r4, [r0], #-2372	; 0x944
 440:	49003852 	stmdbmi	r0, {r1, r4, r6, fp, ip, sp}
 444:	50494443 	subpl	r4, r9, r3, asr #8
 448:	00395254 	eorseq	r5, r9, r4, asr r2
 44c:	49444349 	stmdbmi	r4, {r0, r3, r6, r8, r9, lr}^
 450:	31525043 	cmpcc	r2, r3, asr #32
 454:	44434900 	strbmi	r4, [r3], #-2304	; 0x900
 458:	52504349 	subspl	r4, r0, #603979777	; 0x24000001
 45c:	43490032 	movtmi	r0, #36914	; 0x9032
 460:	50434944 	subpl	r4, r3, r4, asr #18
 464:	49003352 	stmdbmi	r0, {r1, r4, r6, r8, r9, ip, sp}
 468:	43494443 	movtmi	r4, #37955	; 0x9443
 46c:	00345250 	eorseq	r5, r4, r0, asr r2
 470:	49444349 	stmdbmi	r4, {r0, r3, r6, r8, r9, lr}^
 474:	32525450 	subscc	r5, r2, #80, 8	; 0x50000000
 478:	43490032 	movtmi	r0, #36914	; 0x9032
 47c:	54504944 	ldrbpl	r4, [r0], #-2372	; 0x944
 480:	00303252 	eorseq	r3, r0, r2, asr r2
 484:	49444349 	stmdbmi	r4, {r0, r3, r6, r8, r9, lr}^
 488:	32525450 	subscc	r5, r2, #80, 8	; 0x50000000
 48c:	43490031 	movtmi	r0, #36913	; 0x9031
 490:	54504944 	ldrbpl	r4, [r0], #-2372	; 0x944
 494:	00333252 	eorseq	r3, r3, r2, asr r2
 498:	49444349 	stmdbmi	r4, {r0, r3, r6, r8, r9, lr}^
 49c:	32525450 	subscc	r5, r2, #80, 8	; 0x50000000
 4a0:	43490034 	movtmi	r0, #36916	; 0x9034
 4a4:	54504944 	ldrbpl	r4, [r0], #-2372	; 0x944
 4a8:	00353252 	eorseq	r3, r5, r2, asr r2
 4ac:	49444349 	stmdbmi	r4, {r0, r3, r6, r8, r9, lr}^
 4b0:	32525450 	subscc	r5, r2, #80, 8	; 0x50000000
 4b4:	43490036 	movtmi	r0, #36918	; 0x9036
 4b8:	54504944 	ldrbpl	r4, [r0], #-2372	; 0x944
 4bc:	00373252 	eorseq	r3, r7, r2, asr r2
 4c0:	49444349 	stmdbmi	r4, {r0, r3, r6, r8, r9, lr}^
 4c4:	32525450 	subscc	r5, r2, #80, 8	; 0x50000000
 4c8:	43490038 	movtmi	r0, #36920	; 0x9038
 4cc:	54504944 	ldrbpl	r4, [r0], #-2372	; 0x944
 4d0:	00393252 	eorseq	r3, r9, r2, asr r2
 4d4:	49444349 	stmdbmi	r4, {r0, r3, r6, r8, r9, lr}^
 4d8:	32525450 	subscc	r5, r2, #80, 8	; 0x50000000
 4dc:	5550435f 	ldrbpl	r4, [r0, #-863]	; 0x35f
 4e0:	70670030 	rsbvc	r0, r7, r0, lsr r0
 4e4:	6b003178 	blvs	cacc <_start-0x3fffb534>
 4e8:	5f327965 	svcpl	0x00327965
 4ec:	00717269 	rsbseq	r7, r1, r9, ror #4
 4f0:	49444349 	stmdbmi	r4, {r0, r3, r6, r8, r9, lr}^
 4f4:	33525450 	cmpcc	r2, #80, 8	; 0x50000000
 4f8:	5550435f 	ldrbpl	r4, [r0, #-863]	; 0x35f
 4fc:	63690030 	cmnvs	r9, #48	; 0x30
 500:	69007270 	stmdbvs	r0, {r4, r5, r6, r9, ip, sp, lr}
 504:	00727470 	rsbseq	r7, r2, r0, ror r4
 508:	49444349 	stmdbmi	r4, {r0, r3, r6, r8, r9, lr}^
 50c:	34524553 	ldrbcc	r4, [r2], #-1363	; 0x553
 510:	44434900 	strbmi	r4, [r3], #-2304	; 0x900
 514:	52545049 	subspl	r5, r4, #73	; 0x49
 518:	50435f34 	subpl	r5, r3, r4, lsr pc
 51c:	49003055 	stmdbmi	r0, {r0, r2, r4, r6, ip, sp}
 520:	50494443 	subpl	r4, r9, r3, asr #8
 524:	30335254 	eorscc	r5, r3, r4, asr r2
 528:	44434900 	strbmi	r4, [r3], #-2304	; 0x900
 52c:	52545049 	subspl	r5, r4, #73	; 0x49
 530:	49003233 	stmdbmi	r0, {r0, r1, r4, r5, r9, ip, sp}
 534:	50494443 	subpl	r4, r9, r3, asr #8
 538:	33335254 	teqcc	r3, #84, 4	; 0x40000005
 53c:	44434900 	strbmi	r4, [r3], #-2304	; 0x900
 540:	52545049 	subspl	r5, r4, #73	; 0x49
 544:	49003433 	stmdbmi	r0, {r0, r1, r4, r5, sl, ip, sp}
 548:	50494443 	subpl	r4, r9, r3, asr #8
 54c:	35335254 	ldrcc	r5, [r3, #-596]!	; 0x254
 550:	44434900 	strbmi	r4, [r3], #-2304	; 0x900
 554:	52545049 	subspl	r5, r4, #73	; 0x49
 558:	49003633 	stmdbmi	r0, {r0, r1, r4, r5, r9, sl, ip, sp}
 55c:	50494443 	subpl	r4, r9, r3, asr #8
 560:	37335254 			; <UNDEFINED> instruction: 0x37335254
 564:	44434900 	strbmi	r4, [r3], #-2304	; 0x900
 568:	52455349 	subpl	r5, r5, #603979777	; 0x24000001
 56c:	50435f30 	subpl	r5, r3, r0, lsr pc
 570:	49003055 	stmdbmi	r0, {r0, r2, r4, r6, ip, sp}
 574:	50494443 	subpl	r4, r9, r3, asr #8
 578:	39335254 	ldmdbcc	r3!, {r2, r4, r6, r9, ip, lr}
 57c:	44434900 	strbmi	r4, [r3], #-2304	; 0x900
 580:	52545049 	subspl	r5, r4, #73	; 0x49
 584:	50435f36 	subpl	r5, r3, r6, lsr pc
 588:	49003055 	stmdbmi	r0, {r0, r2, r4, r6, ip, sp}
 58c:	53494443 	movtpl	r4, #37955	; 0x9443
 590:	00315245 	eorseq	r5, r1, r5, asr #4
 594:	49444349 	stmdbmi	r4, {r0, r3, r6, r8, r9, lr}^
 598:	32524553 	subscc	r4, r2, #348127232	; 0x14c00000
 59c:	44434900 	strbmi	r4, [r3], #-2304	; 0x900
 5a0:	52455349 	subpl	r5, r5, #603979777	; 0x24000001
 5a4:	43490033 	movtmi	r0, #36915	; 0x9033
 5a8:	54504944 	ldrbpl	r4, [r0], #-2372	; 0x944
 5ac:	435f3052 	cmpmi	pc, #82	; 0x52
 5b0:	00305550 	eorseq	r5, r0, r0, asr r5
 5b4:	49444349 	stmdbmi	r4, {r0, r3, r6, r8, r9, lr}^
 5b8:	31525450 	cmpcc	r2, r0, asr r4
 5bc:	5550435f 	ldrbpl	r4, [r0, #-863]	; 0x35f
 5c0:	73690030 	cmnvc	r9, #48	; 0x30
 5c4:	49007265 	stmdbmi	r0, {r0, r2, r5, r6, r9, ip, sp, lr}
 5c8:	50494443 	subpl	r4, r9, r3, asr #8
 5cc:	31335254 	teqcc	r3, r4, asr r2
 5d0:	63727300 	cmnvs	r2, #0, 6
 5d4:	64656c2f 	strbtvs	r6, [r5], #-3119	; 0xc2f
 5d8:	6700632e 	strvs	r6, [r0, -lr, lsr #6]
 5dc:	00327870 	eorseq	r7, r2, r0, ror r8
 5e0:	5f44454c 	svcpl	0x0044454c
 5e4:	0046464f 	subeq	r4, r6, pc, asr #12
 5e8:	5f44454c 	svcpl	0x0044454c
 5ec:	74696e49 	strbtvc	r6, [r9], #-3657	; 0xe49
 5f0:	66706700 	ldrbtvs	r6, [r0], -r0, lsl #14
 5f4:	454c0033 	strbmi	r0, [ip, #-51]	; 0x33
 5f8:	4e4f5f44 	cdpmi	15, 4, cr5, cr15, cr4, {2}
 5fc:	43444100 	movtmi	r4, #16640	; 0x4100
 600:	696e495f 	stmdbvs	lr!, {r0, r1, r2, r3, r4, r6, r8, fp, lr}^
 604:	72730074 	rsbsvc	r0, r3, #116	; 0x74
 608:	64612f63 	strbtvs	r2, [r1], #-3939	; 0xf63
 60c:	00632e63 	rsbeq	r2, r3, r3, ror #28
 610:	41746547 	cmnmi	r4, r7, asr #10
 614:	6f434344 	svcvs	0x00434344
 618:	7265766e 	rsbvc	r7, r5, #115343360	; 0x6e00000
 61c:	44726574 	ldrbtmi	r6, [r2], #-1396	; 0x574
 620:	00617461 	rsbeq	r7, r1, r1, ror #8

Disassembly of section .debug_frame:

00000000 <.debug_frame>:
   0:	0000000c 	andeq	r0, r0, ip
   4:	ffffffff 			; <UNDEFINED> instruction: 0xffffffff
   8:	7c020001 	stcvc	0, cr0, [r2], {1}
   c:	000d0c0e 	andeq	r0, sp, lr, lsl #24
  10:	00000014 	andeq	r0, r0, r4, lsl r0
  14:	00000000 	andeq	r0, r0, r0
  18:	40008140 	andmi	r8, r0, r0, asr #2
  1c:	00000050 	andeq	r0, r0, r0, asr r0
  20:	8b040e42 	blhi	103930 <_start-0x3ff046d0>
  24:	0b0d4201 	bleq	350830 <_start-0x3fcb77d0>
  28:	00000018 	andeq	r0, r0, r8, lsl r0
  2c:	00000000 	andeq	r0, r0, r0
  30:	40008190 	mulmi	r0, r0, r1
  34:	000001a4 	andeq	r0, r0, r4, lsr #3
  38:	8e080e42 	cdphi	14, 0, cr0, cr8, cr2, {2}
  3c:	42028b01 	andmi	r8, r2, #1024	; 0x400
  40:	00040b0c 	andeq	r0, r4, ip, lsl #22
  44:	00000018 	andeq	r0, r0, r8, lsl r0
  48:	00000000 	andeq	r0, r0, r0
  4c:	40008334 	andmi	r8, r0, r4, lsr r3
  50:	0000006c 	andeq	r0, r0, ip, rrx
  54:	8e080e42 	cdphi	14, 0, cr0, cr8, cr2, {2}
  58:	42028b01 	andmi	r8, r2, #1024	; 0x400
  5c:	00040b0c 	andeq	r0, r4, ip, lsl #22
  60:	00000014 	andeq	r0, r0, r4, lsl r0
  64:	00000000 	andeq	r0, r0, r0
  68:	400083a0 	andmi	r8, r0, r0, lsr #7
  6c:	00000094 	muleq	r0, r4, r0
  70:	8b040e42 	blhi	103980 <_start-0x3ff04680>
  74:	0b0d4201 	bleq	350880 <_start-0x3fcb7780>
  78:	00000018 	andeq	r0, r0, r8, lsl r0
  7c:	00000000 	andeq	r0, r0, r0
  80:	40008434 	andmi	r8, r0, r4, lsr r4
  84:	00000494 	muleq	r0, r4, r4
  88:	8e080e42 	cdphi	14, 0, cr0, cr8, cr2, {2}
  8c:	42028b01 	andmi	r8, r2, #1024	; 0x400
  90:	00040b0c 	andeq	r0, r4, ip, lsl #22
  94:	00000014 	andeq	r0, r0, r4, lsl r0
  98:	00000000 	andeq	r0, r0, r0
  9c:	400088c8 	andmi	r8, r0, r8, asr #17
  a0:	00000080 	andeq	r0, r0, r0, lsl #1
  a4:	8b040e42 	blhi	1039b4 <_start-0x3ff0464c>
  a8:	0b0d4201 	bleq	3508b4 <_start-0x3fcb774c>
  ac:	00000018 	andeq	r0, r0, r8, lsl r0
  b0:	00000000 	andeq	r0, r0, r0
  b4:	40008948 	andmi	r8, r0, r8, asr #18
  b8:	00000928 	andeq	r0, r0, r8, lsr #18
  bc:	8e080e42 	cdphi	14, 0, cr0, cr8, cr2, {2}
  c0:	42028b01 	andmi	r8, r2, #1024	; 0x400
  c4:	00040b0c 	andeq	r0, r4, ip, lsl #22
  c8:	00000020 	andeq	r0, r0, r0, lsr #32
  cc:	00000000 	andeq	r0, r0, r0
  d0:	40009270 	andmi	r9, r0, r0, ror r2
  d4:	00000050 	andeq	r0, r0, r0, asr r0
  d8:	830c0e42 	movwhi	r0, #52802	; 0xce42
  dc:	81028201 	tsthi	r2, r1, lsl #4
  e0:	140e4203 	strne	r4, [lr], #-515	; 0x203
  e4:	058b048e 	streq	r0, [fp, #1166]	; 0x48e
  e8:	100b0c42 	andne	r0, fp, r2, asr #24
  ec:	00000024 	andeq	r0, r0, r4, lsr #32
  f0:	00000000 	andeq	r0, r0, r0
  f4:	400092c0 	andmi	r9, r0, r0, asr #5
  f8:	00000058 	andeq	r0, r0, r8, asr r0
  fc:	83100e42 	tsthi	r0, #1056	; 0x420
 100:	81028201 	tsthi	r2, r1, lsl #4
 104:	42048003 	andmi	r8, r4, #3
 108:	058e180e 	streq	r1, [lr, #2062]	; 0x80e
 10c:	0c42068b 	mcrreq	6, 8, r0, r2, cr11
 110:	0000140b 	andeq	r1, r0, fp, lsl #8
 114:	0000000c 	andeq	r0, r0, ip
 118:	ffffffff 			; <UNDEFINED> instruction: 0xffffffff
 11c:	7c020001 	stcvc	0, cr0, [r2], {1}
 120:	000d0c0e 	andeq	r0, sp, lr, lsl #24
 124:	00000014 	andeq	r0, r0, r4, lsl r0
 128:	00000114 	andeq	r0, r0, r4, lsl r1
 12c:	40009318 	andmi	r9, r0, r8, lsl r3
 130:	00000080 	andeq	r0, r0, r0, lsl #1
 134:	8b040e42 	blhi	103a44 <_start-0x3ff045bc>
 138:	0b0d4201 	bleq	350944 <_start-0x3fcb76bc>
 13c:	00000014 	andeq	r0, r0, r4, lsl r0
 140:	00000114 	andeq	r0, r0, r4, lsl r1
 144:	40009398 	mulmi	r0, r8, r3
 148:	0000005c 	andeq	r0, r0, ip, asr r0
 14c:	8b040e42 	blhi	103a5c <_start-0x3ff045a4>
 150:	0b0d4201 	bleq	35095c <_start-0x3fcb76a4>
 154:	00000018 	andeq	r0, r0, r8, lsl r0
 158:	00000114 	andeq	r0, r0, r4, lsl r1
 15c:	400093f4 	strdmi	r9, [r0], -r4
 160:	00000084 	andeq	r0, r0, r4, lsl #1
 164:	8e080e42 	cdphi	14, 0, cr0, cr8, cr2, {2}
 168:	42028b01 	andmi	r8, r2, #1024	; 0x400
 16c:	00040b0c 	andeq	r0, r4, ip, lsl #22
 170:	00000018 	andeq	r0, r0, r8, lsl r0
 174:	00000114 	andeq	r0, r0, r4, lsl r1
 178:	40009478 	andmi	r9, r0, r8, ror r4
 17c:	00000058 	andeq	r0, r0, r8, asr r0
 180:	8e080e42 	cdphi	14, 0, cr0, cr8, cr2, {2}
 184:	42028b01 	andmi	r8, r2, #1024	; 0x400
 188:	00040b0c 	andeq	r0, r4, ip, lsl #22
 18c:	00000018 	andeq	r0, r0, r8, lsl r0
 190:	00000114 	andeq	r0, r0, r4, lsl r1
 194:	400094d0 	ldrdmi	r9, [r0], -r0
 198:	00000048 	andeq	r0, r0, r8, asr #32
 19c:	8e080e42 	cdphi	14, 0, cr0, cr8, cr2, {2}
 1a0:	42028b01 	andmi	r8, r2, #1024	; 0x400
 1a4:	00040b0c 	andeq	r0, r4, ip, lsl #22
 1a8:	0000000c 	andeq	r0, r0, ip
 1ac:	ffffffff 			; <UNDEFINED> instruction: 0xffffffff
 1b0:	7c020001 	stcvc	0, cr0, [r2], {1}
 1b4:	000d0c0e 	andeq	r0, sp, lr, lsl #24
 1b8:	00000018 	andeq	r0, r0, r8, lsl r0
 1bc:	000001a8 	andeq	r0, r0, r8, lsr #3
 1c0:	4000965c 	andmi	r9, r0, ip, asr r6
 1c4:	00000074 	andeq	r0, r0, r4, ror r0
 1c8:	8e080e42 	cdphi	14, 0, cr0, cr8, cr2, {2}
 1cc:	42028b01 	andmi	r8, r2, #1024	; 0x400
 1d0:	00040b0c 	andeq	r0, r4, ip, lsl #22
 1d4:	0000000c 	andeq	r0, r0, ip
 1d8:	ffffffff 			; <UNDEFINED> instruction: 0xffffffff
 1dc:	7c020001 	stcvc	0, cr0, [r2], {1}
 1e0:	000d0c0e 	andeq	r0, sp, lr, lsl #24
 1e4:	00000014 	andeq	r0, r0, r4, lsl r0
 1e8:	000001d4 	ldrdeq	r0, [r0], -r4
 1ec:	400096d0 	ldrdmi	r9, [r0], -r0
 1f0:	00000098 	muleq	r0, r8, r0
 1f4:	8b040e42 	blhi	103b04 <_start-0x3ff044fc>
 1f8:	0b0d4201 	bleq	350a04 <_start-0x3fcb75fc>
 1fc:	00000018 	andeq	r0, r0, r8, lsl r0
 200:	000001d4 	ldrdeq	r0, [r0], -r4
 204:	40009768 	andmi	r9, r0, r8, ror #14
 208:	00000080 	andeq	r0, r0, r0, lsl #1
 20c:	8e080e42 	cdphi	14, 0, cr0, cr8, cr2, {2}
 210:	42028b01 	andmi	r8, r2, #1024	; 0x400
 214:	00040b0c 	andeq	r0, r4, ip, lsl #22
 218:	0000000c 	andeq	r0, r0, ip
 21c:	ffffffff 			; <UNDEFINED> instruction: 0xffffffff
 220:	7c020001 	stcvc	0, cr0, [r2], {1}
 224:	000d0c0e 	andeq	r0, sp, lr, lsl #24
 228:	00000014 	andeq	r0, r0, r4, lsl r0
 22c:	00000218 	andeq	r0, r0, r8, lsl r2
 230:	400097e8 	andmi	r9, r0, r8, ror #15
 234:	000000ac 	andeq	r0, r0, ip, lsr #1
 238:	8b040e42 	blhi	103b48 <_start-0x3ff044b8>
 23c:	0b0d4201 	bleq	350a48 <_start-0x3fcb75b8>
 240:	00000014 	andeq	r0, r0, r4, lsl r0
 244:	00000218 	andeq	r0, r0, r8, lsl r2
 248:	40009894 	mulmi	r0, r4, r8
 24c:	0000002c 	andeq	r0, r0, ip, lsr #32
 250:	8b040e42 	blhi	103b60 <_start-0x3ff044a0>
 254:	0b0d4201 	bleq	350a60 <_start-0x3fcb75a0>
 258:	00000014 	andeq	r0, r0, r4, lsl r0
 25c:	00000218 	andeq	r0, r0, r8, lsl r2
 260:	400098c0 	andmi	r9, r0, r0, asr #17
 264:	0000002c 	andeq	r0, r0, ip, lsr #32
 268:	8b040e42 	blhi	103b78 <_start-0x3ff04488>
 26c:	0b0d4201 	bleq	350a78 <_start-0x3fcb7588>
 270:	0000000c 	andeq	r0, r0, ip
 274:	ffffffff 			; <UNDEFINED> instruction: 0xffffffff
 278:	7c020001 	stcvc	0, cr0, [r2], {1}
 27c:	000d0c0e 	andeq	r0, sp, lr, lsl #24
 280:	00000014 	andeq	r0, r0, r4, lsl r0
 284:	00000270 	andeq	r0, r0, r0, ror r2
 288:	400098ec 	andmi	r9, r0, ip, ror #17
 28c:	000000dc 	ldrdeq	r0, [r0], -ip
 290:	8b040e42 	blhi	103ba0 <_start-0x3ff04460>
 294:	0b0d4201 	bleq	350aa0 <_start-0x3fcb7560>
 298:	00000018 	andeq	r0, r0, r8, lsl r0
 29c:	00000270 	andeq	r0, r0, r0, ror r2
 2a0:	400099c8 	andmi	r9, r0, r8, asr #19
 2a4:	0000004c 	andeq	r0, r0, ip, asr #32
 2a8:	8e080e42 	cdphi	14, 0, cr0, cr8, cr2, {2}
 2ac:	42028b01 	andmi	r8, r2, #1024	; 0x400
 2b0:	00040b0c 	andeq	r0, r4, ip, lsl #22
 2b4:	00000018 	andeq	r0, r0, r8, lsl r0
 2b8:	00000270 	andeq	r0, r0, r0, ror r2
 2bc:	40009a14 	andmi	r9, r0, r4, lsl sl
 2c0:	0000004c 	andeq	r0, r0, ip, asr #32
 2c4:	8e080e42 	cdphi	14, 0, cr0, cr8, cr2, {2}
 2c8:	42028b01 	andmi	r8, r2, #1024	; 0x400
 2cc:	00040b0c 	andeq	r0, r4, ip, lsl #22
 2d0:	0000000c 	andeq	r0, r0, ip
 2d4:	ffffffff 			; <UNDEFINED> instruction: 0xffffffff
 2d8:	7c020001 	stcvc	0, cr0, [r2], {1}
 2dc:	000d0c0e 	andeq	r0, sp, lr, lsl #24
 2e0:	00000014 	andeq	r0, r0, r4, lsl r0
 2e4:	000002d0 	ldrdeq	r0, [r0], -r0	; <UNPREDICTABLE>
 2e8:	40009a60 	andmi	r9, r0, r0, ror #20
 2ec:	000000a4 	andeq	r0, r0, r4, lsr #1
 2f0:	8b040e42 	blhi	103c00 <_start-0x3ff04400>
 2f4:	0b0d4201 	bleq	350b00 <_start-0x3fcb7500>
 2f8:	00000014 	andeq	r0, r0, r4, lsl r0
 2fc:	000002d0 	ldrdeq	r0, [r0], -r0	; <UNPREDICTABLE>
 300:	40009b04 	andmi	r9, r0, r4, lsl #22
 304:	000000ac 	andeq	r0, r0, ip, lsr #1
 308:	8b040e42 	blhi	103c18 <_start-0x3ff043e8>
 30c:	0b0d4201 	bleq	350b18 <_start-0x3fcb74e8>
 310:	00000014 	andeq	r0, r0, r4, lsl r0
 314:	000002d0 	ldrdeq	r0, [r0], -r0	; <UNPREDICTABLE>
 318:	40009bb0 			; <UNDEFINED> instruction: 0x40009bb0
 31c:	000000ac 	andeq	r0, r0, ip, lsr #1
 320:	8b040e42 	blhi	103c30 <_start-0x3ff043d0>
 324:	0b0d4201 	bleq	350b30 <_start-0x3fcb74d0>
 328:	0000000c 	andeq	r0, r0, ip
 32c:	ffffffff 			; <UNDEFINED> instruction: 0xffffffff
 330:	7c020001 	stcvc	0, cr0, [r2], {1}
 334:	000d0c0e 	andeq	r0, sp, lr, lsl #24
 338:	00000014 	andeq	r0, r0, r4, lsl r0
 33c:	00000328 	andeq	r0, r0, r8, lsr #6
 340:	40009c5c 	andmi	r9, r0, ip, asr ip
 344:	00000058 	andeq	r0, r0, r8, asr r0
 348:	8b040e42 	blhi	103c58 <_start-0x3ff043a8>
 34c:	0b0d4201 	bleq	350b58 <_start-0x3fcb74a8>
 350:	00000014 	andeq	r0, r0, r4, lsl r0
 354:	00000328 	andeq	r0, r0, r8, lsr #6
 358:	40009cb4 			; <UNDEFINED> instruction: 0x40009cb4
 35c:	00000068 	andeq	r0, r0, r8, rrx
 360:	8b040e42 	blhi	103c70 <_start-0x3ff04390>
 364:	0b0d4201 	bleq	350b70 <_start-0x3fcb7490>
